<?xml version="1.0"?>
<?xml-stylesheet type="text/xsl" href="pdml2html.xsl"?>
<!-- You can find pdml2html.xsl in C:\Program Files\Wireshark or at https://code.wireshark.org/review/gitweb?p=wireshark.git;a=blob_plain;f=pdml2html.xsl. -->
<pdml version="0" creator="wireshark/2.2.5" time="Wed Jan 29 04:53:51 2020" capture_file="C:\Users\ANJAN\AppData\Local\Temp\wireshark_-_20200129043154_a03348.pcapng">
<packet>
  <proto name="geninfo" pos="0" showname="General information" size="410">
    <field name="num" pos="0" show="208" showname="Number" value="d0" size="410"/>
    <field name="len" pos="0" show="410" showname="Frame Length" value="19a" size="410"/>
    <field name="caplen" pos="0" show="410" showname="Captured Length" value="19a" size="410"/>
    <field name="timestamp" pos="0" show="Jan 29, 2020 04:32:43.505732000 India Standard Time" showname="Captured Time" value="1580252563.505732000" size="410"/>
  </proto>
  <proto name="frame" showname="Frame 208: 410 bytes on wire (3280 bits), 410 bytes captured (3280 bits) on interface 0" size="410" pos="0">
    <field name="frame.interface_id" showname="Interface id: 0 (-)" size="0" pos="0" show="0"/>
    <field name="frame.encap_type" showname="Encapsulation type: Ethernet (1)" size="0" pos="0" show="1"/>
    <field name="frame.time" showname="Arrival Time: Jan 29, 2020 04:32:43.505732000 India Standard Time" size="0" pos="0" show="Jan 29, 2020 04:32:43.505732000 India Standard Time"/>
    <field name="frame.offset_shift" showname="Time shift for this packet: 0.000000000 seconds" size="0" pos="0" show="0.000000000"/>
    <field name="frame.time_epoch" showname="Epoch Time: 1580252563.505732000 seconds" size="0" pos="0" show="1580252563.505732000"/>
    <field name="frame.time_delta" showname="Time delta from previous captured frame: 1.707989000 seconds" size="0" pos="0" show="1.707989000"/>
    <field name="frame.time_delta_displayed" showname="Time delta from previous displayed frame: 0.000000000 seconds" size="0" pos="0" show="0.000000000"/>
    <field name="frame.time_relative" showname="Time since reference or first frame: 92.104396000 seconds" size="0" pos="0" show="92.104396000"/>
    <field name="frame.number" showname="Frame Number: 208" size="0" pos="0" show="208"/>
    <field name="frame.len" showname="Frame Length: 410 bytes (3280 bits)" size="0" pos="0" show="410"/>
    <field name="frame.cap_len" showname="Capture Length: 410 bytes (3280 bits)" size="0" pos="0" show="410"/>
    <field name="frame.marked" showname="Frame is marked: False" size="0" pos="0" show="0"/>
    <field name="frame.ignored" showname="Frame is ignored: False" size="0" pos="0" show="0"/>
    <field name="frame.protocols" showname="Protocols in frame: eth:ethertype:vlan:ethertype:ip:udp:DHCP" size="0" pos="0" show="eth:ethertype:vlan:ethertype:ip:udp:DHCP"/>
    <field name="frame.coloring_rule.name" showname="Coloring Rule Name: UDP" size="0" pos="0" show="UDP"/>
    <field name="frame.coloring_rule.string" showname="Coloring Rule String: udp" size="0" pos="0" show="udp"/>
  </proto>
  <proto name="eth" showname="Ethernet II, Src: Private_66:68:00 (00:50:79:66:68:00), Dst: Broadcast (ff:ff:ff:ff:ff:ff)" size="14" pos="0">
    <field name="eth.dst" showname="Destination: Broadcast (ff:ff:ff:ff:ff:ff)" size="6" pos="0" show="ff:ff:ff:ff:ff:ff" value="ffffffffffff">
      <field name="eth.dst_resolved" showname="Destination (resolved): Broadcast" hide="yes" size="6" pos="0" show="Broadcast" value="ffffffffffff"/>
      <field name="eth.addr" showname="Address: Broadcast (ff:ff:ff:ff:ff:ff)" size="6" pos="0" show="ff:ff:ff:ff:ff:ff" value="ffffffffffff"/>
      <field name="eth.addr_resolved" showname="Address (resolved): Broadcast" hide="yes" size="6" pos="0" show="Broadcast" value="ffffffffffff"/>
      <field name="eth.lg" showname=".... ..1. .... .... .... .... = LG bit: Locally administered address (this is NOT the factory default)" size="3" pos="0" show="1" value="1" unmaskedvalue="ffffff"/>
      <field name="eth.ig" showname=".... ...1 .... .... .... .... = IG bit: Group address (multicast/broadcast)" size="3" pos="0" show="1" value="1" unmaskedvalue="ffffff"/>
    </field>
    <field name="eth.src" showname="Source: Private_66:68:00 (00:50:79:66:68:00)" size="6" pos="6" show="00:50:79:66:68:00" value="005079666800">
      <field name="eth.src_resolved" showname="Source (resolved): Private_66:68:00" hide="yes" size="6" pos="6" show="Private_66:68:00" value="005079666800"/>
      <field name="eth.addr" showname="Address: Private_66:68:00 (00:50:79:66:68:00)" size="6" pos="6" show="00:50:79:66:68:00" value="005079666800"/>
      <field name="eth.addr_resolved" showname="Address (resolved): Private_66:68:00" hide="yes" size="6" pos="6" show="Private_66:68:00" value="005079666800"/>
      <field name="eth.lg" showname=".... ..0. .... .... .... .... = LG bit: Globally unique address (factory default)" size="3" pos="6" show="0" value="0" unmaskedvalue="005079"/>
      <field name="eth.ig" showname=".... ...0 .... .... .... .... = IG bit: Individual address (unicast)" size="3" pos="6" show="0" value="0" unmaskedvalue="005079"/>
    </field>
    <field name="eth.type" showname="Type: 802.1Q Virtual LAN (0x8100)" size="2" pos="12" show="0x00008100" value="8100"/>
  </proto>
  <proto name="vlan" showname="802.1Q Virtual LAN, PRI: 0, CFI: 0, ID: 100" size="4" pos="14">
    <field name="vlan.priority" showname="000. .... .... .... = Priority: Best Effort (default) (0)" size="2" pos="14" show="0" value="0" unmaskedvalue="0064"/>
    <field name="vlan.cfi" showname="...0 .... .... .... = CFI: Canonical (0)" size="2" pos="14" show="0" value="0" unmaskedvalue="0064"/>
    <field name="vlan.id" showname=".... 0000 0110 0100 = ID: 100" size="2" pos="14" show="100" value="64" unmaskedvalue="0064"/>
    <field name="vlan.etype" showname="Type: IPv4 (0x0800)" size="2" pos="16" show="0x00000800" value="0800"/>
  </proto>
  <proto name="ip" showname="Internet Protocol Version 4, Src: 0.0.0.0, Dst: 255.255.255.255" size="20" pos="18">
    <field name="ip.version" showname="0100 .... = Version: 4" size="1" pos="18" show="4" value="4" unmaskedvalue="45"/>
    <field name="ip.hdr_len" showname=".... 0101 = Header Length: 20 bytes (5)" size="1" pos="18" show="20" value="45"/>
    <field name="ip.dsfield" showname="Differentiated Services Field: 0x10 (DSCP: Unknown, ECN: Not-ECT)" size="1" pos="19" show="0x00000010" value="10">
      <field name="ip.dsfield.dscp" showname="0001 00.. = Differentiated Services Codepoint: Unknown (4)" size="1" pos="19" show="4" value="4" unmaskedvalue="10"/>
      <field name="ip.dsfield.ecn" showname=".... ..00 = Explicit Congestion Notification: Not ECN-Capable Transport (0)" size="1" pos="19" show="0" value="0" unmaskedvalue="10"/>
    </field>
    <field name="ip.len" showname="Total Length: 392" size="2" pos="20" show="392" value="0188"/>
    <field name="ip.id" showname="Identification: 0x0000 (0)" size="2" pos="22" show="0x00000000" value="0000"/>
    <field name="ip.flags" showname="Flags: 0x00" size="1" pos="24" show="0x00000000" value="00">
      <field name="ip.flags.rb" showname="0... .... = Reserved bit: Not set" size="1" pos="24" show="0" value="00"/>
      <field name="ip.flags.df" showname=".0.. .... = Don&#x27;t fragment: Not set" size="1" pos="24" show="0" value="00"/>
      <field name="ip.flags.mf" showname="..0. .... = More fragments: Not set" size="1" pos="24" show="0" value="00"/>
    </field>
    <field name="ip.frag_offset" showname="Fragment offset: 0" size="2" pos="24" show="0" value="0000"/>
    <field name="ip.ttl" showname="Time to live: 16" size="1" pos="26" show="16" value="10"/>
    <field name="ip.proto" showname="Protocol: UDP (17)" size="1" pos="27" show="17" value="11"/>
    <field name="ip.checksum" showname="Header checksum: 0xa956 [validation disabled]" size="2" pos="28" show="0x0000a956" value="a956"/>
    <field name="ip.checksum.status" showname="Header checksum status: Unverified" size="0" pos="28" show="2"/>
    <field name="ip.src" showname="Source: 0.0.0.0" size="4" pos="30" show="0.0.0.0" value="00000000"/>
    <field name="ip.addr" showname="Source or Destination Address: 0.0.0.0" hide="yes" size="4" pos="30" show="0.0.0.0" value="00000000"/>
    <field name="ip.src_host" showname="Source Host: 0.0.0.0" hide="yes" size="4" pos="30" show="0.0.0.0" value="00000000"/>
    <field name="ip.host" showname="Source or Destination Host: 0.0.0.0" hide="yes" size="4" pos="30" show="0.0.0.0" value="00000000"/>
    <field name="ip.dst" showname="Destination: 255.255.255.255" size="4" pos="34" show="255.255.255.255" value="ffffffff"/>
    <field name="ip.addr" showname="Source or Destination Address: 255.255.255.255" hide="yes" size="4" pos="34" show="255.255.255.255" value="ffffffff"/>
    <field name="ip.dst_host" showname="Destination Host: 255.255.255.255" hide="yes" size="4" pos="34" show="255.255.255.255" value="ffffffff"/>
    <field name="ip.host" showname="Source or Destination Host: 255.255.255.255" hide="yes" size="4" pos="34" show="255.255.255.255" value="ffffffff"/>
    <field name="" show="Source GeoIP: Unknown" size="4" pos="30" value="00000000"/>
    <field name="" show="Destination GeoIP: Unknown" size="4" pos="34" value="ffffffff"/>
  </proto>
  <proto name="udp" showname="User Datagram Protocol, Src Port: 68, Dst Port: 67" size="8" pos="38">
    <field name="udp.srcport" showname="Source Port: 68" size="2" pos="38" show="68" value="0044"/>
    <field name="udp.dstport" showname="Destination Port: 67" size="2" pos="40" show="67" value="0043"/>
    <field name="udp.port" showname="Source or Destination Port: 68" hide="yes" size="2" pos="38" show="68" value="0044"/>
    <field name="udp.port" showname="Source or Destination Port: 67" hide="yes" size="2" pos="40" show="67" value="0043"/>
    <field name="udp.length" showname="Length: 372" size="2" pos="42" show="372" value="0174"/>
    <field name="udp.checksum" showname="Checksum: 0x7f3b [unverified]" size="2" pos="44" show="0x00007f3b" value="7f3b"/>
    <field name="udp.checksum.status" showname="Checksum Status: Unverified" size="0" pos="44" show="2"/>
    <field name="udp.stream" showname="Stream index: 0" size="0" pos="46" show="0"/>
  </proto>
  <proto name="DHCP" showname="DHCP Protocol (Discover)" size="364" pos="46">
    <field name="DHCP.type" showname="Message type: Boot Request (1)" size="1" pos="46" show="1" value="01"/>
    <field name="DHCP.hw.type" showname="Hardware type: Ethernet (0x01)" size="1" pos="47" show="0x00000001" value="01"/>
    <field name="DHCP.hw.len" showname="Hardware address length: 6" size="1" pos="48" show="6" value="06"/>
    <field name="DHCP.hops" showname="Hops: 0" size="1" pos="49" show="0" value="00"/>
    <field name="DHCP.id" showname="Transaction ID: 0xb65f1f5a" size="4" pos="50" show="0xb65f1f5a" value="b65f1f5a"/>
    <field name="DHCP.secs" showname="Seconds elapsed: 0" size="2" pos="54" show="0" value="0000"/>
    <field name="DHCP.flags" showname="DHCP flags: 0x0000 (Unicast)" size="2" pos="56" show="0x00000000" value="0000">
      <field name="DHCP.flags.bc" showname="0... .... .... .... = Broadcast flag: Unicast" size="2" pos="56" show="0" value="0" unmaskedvalue="0000"/>
      <field name="DHCP.flags.reserved" showname=".000 0000 0000 0000 = Reserved flags: 0x0000" size="2" pos="56" show="0x00000000" value="0" unmaskedvalue="0000"/>
    </field>
    <field name="DHCP.ip.client" showname="Client IP address: 0.0.0.0" size="4" pos="58" show="0.0.0.0" value="00000000"/>
    <field name="DHCP.ip.your" showname="Your (client) IP address: 0.0.0.0" size="4" pos="62" show="0.0.0.0" value="00000000"/>
    <field name="DHCP.ip.server" showname="Next server IP address: 0.0.0.0" size="4" pos="66" show="0.0.0.0" value="00000000"/>
    <field name="DHCP.ip.relay" showname="Relay agent IP address: 0.0.0.0" size="4" pos="70" show="0.0.0.0" value="00000000"/>
    <field name="DHCP.hw.mac_addr" showname="Client MAC address: Private_66:68:00 (00:50:79:66:68:00)" size="6" pos="74" show="00:50:79:66:68:00" value="005079666800"/>
    <field name="DHCP.hw.addr_padding" showname="Client hardware address padding: 00000000000000000000" size="10" pos="80" show="00:00:00:00:00:00:00:00:00:00" value="00000000000000000000"/>
    <field name="DHCP.server" showname="Server host name not given" size="64" pos="90" show="" value="00000000000000000000000000000000000000000000000000000000000000000000000000000000000000000000000000000000000000000000000000000000"/>
    <field name="DHCP.file" showname="Boot file name not given" size="128" pos="154" show="" value="0000000000000000000000000000000000000000000000000000000000000000000000000000000000000000000000000000000000000000000000000000000000000000000000000000000000000000000000000000000000000000000000000000000000000000000000000000000000000000000000000000000000000000"/>
    <field name="DHCP.dhcp" showname="Frame is DHCP: True" hide="yes" size="0" pos="46" show="1"/>
    <field name="DHCP.cookie" showname="Magic cookie: DHCP" size="4" pos="282" show="99.130.83.99" value="63825363"/>
    <field name="DHCP.option.type" showname="Option: (53) DHCP Message Type (Discover)" size="3" pos="286" show="53" value="350101">
      <field name="DHCP.option.length" showname="Length: 1" size="1" pos="287" show="1" value="01"/>
      <field name="DHCP.option.value" showname="Value: 01" hide="yes" size="1" pos="288" show="01" value="01"/>
      <field name="DHCP.option.dhcp" showname="DHCP: Discover (1)" size="1" pos="288" show="1" value="01"/>
    </field>
    <field name="DHCP.option.type" showname="Option: (12) Host Name" size="9" pos="289" show="12" value="0c07565043532d3131">
      <field name="DHCP.option.length" showname="Length: 7" size="1" pos="290" show="7" value="07"/>
      <field name="DHCP.option.value" showname="Value: 565043532d3131" hide="yes" size="7" pos="291" show="56:50:43:53:2d:31:31" value="565043532d3131"/>
      <field name="DHCP.option.hostname" showname="Host Name: VPCS-11" size="7" pos="291" show="VPCS-11" value="565043532d3131"/>
    </field>
    <field name="DHCP.option.type" showname="Option: (61) Client identifier" size="9" pos="298" show="61" value="3d0701005079666800">
      <field name="DHCP.option.length" showname="Length: 7" size="1" pos="299" show="7" value="07"/>
      <field name="DHCP.option.value" showname="Value: 01005079666800" hide="yes" size="7" pos="300" show="01:00:50:79:66:68:00" value="01005079666800"/>
      <field name="DHCP.hw.type" showname="Hardware type: Ethernet (0x01)" size="1" pos="300" show="0x00000001" value="01"/>
      <field name="DHCP.hw.mac_addr" showname="Client MAC address: Private_66:68:00 (00:50:79:66:68:00)" size="6" pos="301" show="00:50:79:66:68:00" value="005079666800"/>
    </field>
    <field name="DHCP.option.type" showname="Option: (255) End" size="1" pos="307" show="0" value="ff">
      <field name="DHCP.option.end" showname="Option End: 255" size="1" pos="307" show="255" value="ff"/>
    </field>
    <field name="DHCP.option.padding" showname="Padding: 000000000000000000000000000000000000000000000000..." size="102" pos="308" show="00:00:00:00:00:00:00:00:00:00:00:00:00:00:00:00:00:00:00:00:00:00:00:00:00:00:00:00:00:00:00:00:00:00:00:00:00:00:00:00:00:00:00:00:00:00:00:00:00:00:00:00:00:00:00:00:00:00:00:00:00:00:00:00:00:00:00:00:00:00:00:00:00:00:00:00:00:00:00:00:00:00:00:00:00:00:00:00:00:00:00:00:00:00:00:00:00:00:00:00:00:00" value="000000000000000000000000000000000000000000000000000000000000000000000000000000000000000000000000000000000000000000000000000000000000000000000000000000000000000000000000000000000000000000000000000000000000"/>
  </proto>
</packet>

<packet>
  <proto name="geninfo" pos="0" showname="General information" size="64">
    <field name="num" pos="0" show="209" showname="Number" value="d1" size="64"/>
    <field name="len" pos="0" show="64" showname="Frame Length" value="40" size="64"/>
    <field name="caplen" pos="0" show="64" showname="Captured Length" value="40" size="64"/>
    <field name="timestamp" pos="0" show="Jan 29, 2020 04:32:43.506500000 India Standard Time" showname="Captured Time" value="1580252563.506500000" size="64"/>
  </proto>
  <proto name="frame" showname="Frame 209: 64 bytes on wire (512 bits), 64 bytes captured (512 bits) on interface 0" size="64" pos="0">
    <field name="frame.interface_id" showname="Interface id: 0 (-)" size="0" pos="0" show="0"/>
    <field name="frame.encap_type" showname="Encapsulation type: Ethernet (1)" size="0" pos="0" show="1"/>
    <field name="frame.time" showname="Arrival Time: Jan 29, 2020 04:32:43.506500000 India Standard Time" size="0" pos="0" show="Jan 29, 2020 04:32:43.506500000 India Standard Time"/>
    <field name="frame.offset_shift" showname="Time shift for this packet: 0.000000000 seconds" size="0" pos="0" show="0.000000000"/>
    <field name="frame.time_epoch" showname="Epoch Time: 1580252563.506500000 seconds" size="0" pos="0" show="1580252563.506500000"/>
    <field name="frame.time_delta" showname="Time delta from previous captured frame: 0.000768000 seconds" size="0" pos="0" show="0.000768000"/>
    <field name="frame.time_delta_displayed" showname="Time delta from previous displayed frame: 0.000768000 seconds" size="0" pos="0" show="0.000768000"/>
    <field name="frame.time_relative" showname="Time since reference or first frame: 92.105164000 seconds" size="0" pos="0" show="92.105164000"/>
    <field name="frame.number" showname="Frame Number: 209" size="0" pos="0" show="209"/>
    <field name="frame.len" showname="Frame Length: 64 bytes (512 bits)" size="0" pos="0" show="64"/>
    <field name="frame.cap_len" showname="Capture Length: 64 bytes (512 bits)" size="0" pos="0" show="64"/>
    <field name="frame.marked" showname="Frame is marked: False" size="0" pos="0" show="0"/>
    <field name="frame.ignored" showname="Frame is ignored: False" size="0" pos="0" show="0"/>
    <field name="frame.protocols" showname="Protocols in frame: eth:ethertype:vlan:ethertype:arp" size="0" pos="0" show="eth:ethertype:vlan:ethertype:arp"/>
    <field name="frame.coloring_rule.name" showname="Coloring Rule Name: ARP" size="0" pos="0" show="ARP"/>
    <field name="frame.coloring_rule.string" showname="Coloring Rule String: arp" size="0" pos="0" show="arp"/>
  </proto>
  <proto name="eth" showname="Ethernet II, Src: aa:bb:cc:00:01:00 (aa:bb:cc:00:01:00), Dst: Broadcast (ff:ff:ff:ff:ff:ff)" size="14" pos="0">
    <field name="eth.dst" showname="Destination: Broadcast (ff:ff:ff:ff:ff:ff)" size="6" pos="0" show="ff:ff:ff:ff:ff:ff" value="ffffffffffff">
      <field name="eth.dst_resolved" showname="Destination (resolved): Broadcast" hide="yes" size="6" pos="0" show="Broadcast" value="ffffffffffff"/>
      <field name="eth.addr" showname="Address: Broadcast (ff:ff:ff:ff:ff:ff)" size="6" pos="0" show="ff:ff:ff:ff:ff:ff" value="ffffffffffff"/>
      <field name="eth.addr_resolved" showname="Address (resolved): Broadcast" hide="yes" size="6" pos="0" show="Broadcast" value="ffffffffffff"/>
      <field name="eth.lg" showname=".... ..1. .... .... .... .... = LG bit: Locally administered address (this is NOT the factory default)" size="3" pos="0" show="1" value="1" unmaskedvalue="ffffff"/>
      <field name="eth.ig" showname=".... ...1 .... .... .... .... = IG bit: Group address (multicast/broadcast)" size="3" pos="0" show="1" value="1" unmaskedvalue="ffffff"/>
    </field>
    <field name="eth.src" showname="Source: aa:bb:cc:00:01:00 (aa:bb:cc:00:01:00)" size="6" pos="6" show="aa:bb:cc:00:01:00" value="aabbcc000100">
      <field name="eth.src_resolved" showname="Source (resolved): aa:bb:cc:00:01:00" hide="yes" size="6" pos="6" show="aa:bb:cc:00:01:00" value="aabbcc000100"/>
      <field name="eth.addr" showname="Address: aa:bb:cc:00:01:00 (aa:bb:cc:00:01:00)" size="6" pos="6" show="aa:bb:cc:00:01:00" value="aabbcc000100"/>
      <field name="eth.addr_resolved" showname="Address (resolved): aa:bb:cc:00:01:00" hide="yes" size="6" pos="6" show="aa:bb:cc:00:01:00" value="aabbcc000100"/>
      <field name="eth.lg" showname=".... ..1. .... .... .... .... = LG bit: Locally administered address (this is NOT the factory default)" size="3" pos="6" show="1" value="1" unmaskedvalue="aabbcc"/>
      <field name="eth.ig" showname=".... ...0 .... .... .... .... = IG bit: Individual address (unicast)" size="3" pos="6" show="0" value="0" unmaskedvalue="aabbcc"/>
    </field>
    <field name="eth.type" showname="Type: 802.1Q Virtual LAN (0x8100)" size="2" pos="12" show="0x00008100" value="8100"/>
  </proto>
  <proto name="vlan" showname="802.1Q Virtual LAN, PRI: 0, CFI: 0, ID: 100" size="4" pos="14">
    <field name="vlan.priority" showname="000. .... .... .... = Priority: Best Effort (default) (0)" size="2" pos="14" show="0" value="0" unmaskedvalue="0064"/>
    <field name="vlan.cfi" showname="...0 .... .... .... = CFI: Canonical (0)" size="2" pos="14" show="0" value="0" unmaskedvalue="0064"/>
    <field name="vlan.id" showname=".... 0000 0110 0100 = ID: 100" size="2" pos="14" show="100" value="64" unmaskedvalue="0064"/>
    <field name="vlan.etype" showname="Type: ARP (0x0806)" size="2" pos="16" show="0x00000806" value="0806"/>
    <field name="eth.padding" showname="Padding: 0000000000000000000000000000" size="14" pos="46" show="00:00:00:00:00:00:00:00:00:00:00:00:00:00" value="0000000000000000000000000000"/>
    <field name="vlan.trailer" showname="Trailer: 00000000" size="4" pos="60" show="00:00:00:00" value="00000000"/>
  </proto>
  <proto name="arp" showname="Address Resolution Protocol (request)" size="28" pos="18">
    <field name="arp.hw.type" showname="Hardware type: Ethernet (1)" size="2" pos="18" show="1" value="0001"/>
    <field name="arp.proto.type" showname="Protocol type: IPv4 (0x0800)" size="2" pos="20" show="0x00000800" value="0800"/>
    <field name="arp.hw.size" showname="Hardware size: 6" size="1" pos="22" show="6" value="06"/>
    <field name="arp.proto.size" showname="Protocol size: 4" size="1" pos="23" show="4" value="04"/>
    <field name="arp.opcode" showname="Opcode: request (1)" size="2" pos="24" show="1" value="0001"/>
    <field name="arp.src.hw_mac" showname="Sender MAC address: aa:bb:cc:00:01:00 (aa:bb:cc:00:01:00)" size="6" pos="26" show="aa:bb:cc:00:01:00" value="aabbcc000100"/>
    <field name="arp.src.proto_ipv4" showname="Sender IP address: 192.168.100.1" size="4" pos="32" show="192.168.100.1" value="c0a86401"/>
    <field name="arp.dst.hw_mac" showname="Target MAC address: 00:00:00_00:00:00 (00:00:00:00:00:00)" size="6" pos="36" show="00:00:00:00:00:00" value="000000000000"/>
    <field name="arp.dst.proto_ipv4" showname="Target IP address: 192.168.100.2" size="4" pos="42" show="192.168.100.2" value="c0a86402"/>
  </proto>
</packet>

<packet>
  <proto name="geninfo" pos="0" showname="General information" size="410">
    <field name="num" pos="0" show="214" showname="Number" value="d6" size="410"/>
    <field name="len" pos="0" show="410" showname="Frame Length" value="19a" size="410"/>
    <field name="caplen" pos="0" show="410" showname="Captured Length" value="19a" size="410"/>
    <field name="timestamp" pos="0" show="Jan 29, 2020 04:32:44.505842000 India Standard Time" showname="Captured Time" value="1580252564.505842000" size="410"/>
  </proto>
  <proto name="frame" showname="Frame 214: 410 bytes on wire (3280 bits), 410 bytes captured (3280 bits) on interface 0" size="410" pos="0">
    <field name="frame.interface_id" showname="Interface id: 0 (-)" size="0" pos="0" show="0"/>
    <field name="frame.encap_type" showname="Encapsulation type: Ethernet (1)" size="0" pos="0" show="1"/>
    <field name="frame.time" showname="Arrival Time: Jan 29, 2020 04:32:44.505842000 India Standard Time" size="0" pos="0" show="Jan 29, 2020 04:32:44.505842000 India Standard Time"/>
    <field name="frame.offset_shift" showname="Time shift for this packet: 0.000000000 seconds" size="0" pos="0" show="0.000000000"/>
    <field name="frame.time_epoch" showname="Epoch Time: 1580252564.505842000 seconds" size="0" pos="0" show="1580252564.505842000"/>
    <field name="frame.time_delta" showname="Time delta from previous captured frame: 0.704306000 seconds" size="0" pos="0" show="0.704306000"/>
    <field name="frame.time_delta_displayed" showname="Time delta from previous displayed frame: 0.999342000 seconds" size="0" pos="0" show="0.999342000"/>
    <field name="frame.time_relative" showname="Time since reference or first frame: 93.104506000 seconds" size="0" pos="0" show="93.104506000"/>
    <field name="frame.number" showname="Frame Number: 214" size="0" pos="0" show="214"/>
    <field name="frame.len" showname="Frame Length: 410 bytes (3280 bits)" size="0" pos="0" show="410"/>
    <field name="frame.cap_len" showname="Capture Length: 410 bytes (3280 bits)" size="0" pos="0" show="410"/>
    <field name="frame.marked" showname="Frame is marked: False" size="0" pos="0" show="0"/>
    <field name="frame.ignored" showname="Frame is ignored: False" size="0" pos="0" show="0"/>
    <field name="frame.protocols" showname="Protocols in frame: eth:ethertype:vlan:ethertype:ip:udp:DHCP" size="0" pos="0" show="eth:ethertype:vlan:ethertype:ip:udp:DHCP"/>
    <field name="frame.coloring_rule.name" showname="Coloring Rule Name: UDP" size="0" pos="0" show="UDP"/>
    <field name="frame.coloring_rule.string" showname="Coloring Rule String: udp" size="0" pos="0" show="udp"/>
  </proto>
  <proto name="eth" showname="Ethernet II, Src: Private_66:68:00 (00:50:79:66:68:00), Dst: Broadcast (ff:ff:ff:ff:ff:ff)" size="14" pos="0">
    <field name="eth.dst" showname="Destination: Broadcast (ff:ff:ff:ff:ff:ff)" size="6" pos="0" show="ff:ff:ff:ff:ff:ff" value="ffffffffffff">
      <field name="eth.dst_resolved" showname="Destination (resolved): Broadcast" hide="yes" size="6" pos="0" show="Broadcast" value="ffffffffffff"/>
      <field name="eth.addr" showname="Address: Broadcast (ff:ff:ff:ff:ff:ff)" size="6" pos="0" show="ff:ff:ff:ff:ff:ff" value="ffffffffffff"/>
      <field name="eth.addr_resolved" showname="Address (resolved): Broadcast" hide="yes" size="6" pos="0" show="Broadcast" value="ffffffffffff"/>
      <field name="eth.lg" showname=".... ..1. .... .... .... .... = LG bit: Locally administered address (this is NOT the factory default)" size="3" pos="0" show="1" value="1" unmaskedvalue="ffffff"/>
      <field name="eth.ig" showname=".... ...1 .... .... .... .... = IG bit: Group address (multicast/broadcast)" size="3" pos="0" show="1" value="1" unmaskedvalue="ffffff"/>
    </field>
    <field name="eth.src" showname="Source: Private_66:68:00 (00:50:79:66:68:00)" size="6" pos="6" show="00:50:79:66:68:00" value="005079666800">
      <field name="eth.src_resolved" showname="Source (resolved): Private_66:68:00" hide="yes" size="6" pos="6" show="Private_66:68:00" value="005079666800"/>
      <field name="eth.addr" showname="Address: Private_66:68:00 (00:50:79:66:68:00)" size="6" pos="6" show="00:50:79:66:68:00" value="005079666800"/>
      <field name="eth.addr_resolved" showname="Address (resolved): Private_66:68:00" hide="yes" size="6" pos="6" show="Private_66:68:00" value="005079666800"/>
      <field name="eth.lg" showname=".... ..0. .... .... .... .... = LG bit: Globally unique address (factory default)" size="3" pos="6" show="0" value="0" unmaskedvalue="005079"/>
      <field name="eth.ig" showname=".... ...0 .... .... .... .... = IG bit: Individual address (unicast)" size="3" pos="6" show="0" value="0" unmaskedvalue="005079"/>
    </field>
    <field name="eth.type" showname="Type: 802.1Q Virtual LAN (0x8100)" size="2" pos="12" show="0x00008100" value="8100"/>
  </proto>
  <proto name="vlan" showname="802.1Q Virtual LAN, PRI: 0, CFI: 0, ID: 100" size="4" pos="14">
    <field name="vlan.priority" showname="000. .... .... .... = Priority: Best Effort (default) (0)" size="2" pos="14" show="0" value="0" unmaskedvalue="0064"/>
    <field name="vlan.cfi" showname="...0 .... .... .... = CFI: Canonical (0)" size="2" pos="14" show="0" value="0" unmaskedvalue="0064"/>
    <field name="vlan.id" showname=".... 0000 0110 0100 = ID: 100" size="2" pos="14" show="100" value="64" unmaskedvalue="0064"/>
    <field name="vlan.etype" showname="Type: IPv4 (0x0800)" size="2" pos="16" show="0x00000800" value="0800"/>
  </proto>
  <proto name="ip" showname="Internet Protocol Version 4, Src: 0.0.0.0, Dst: 255.255.255.255" size="20" pos="18">
    <field name="ip.version" showname="0100 .... = Version: 4" size="1" pos="18" show="4" value="4" unmaskedvalue="45"/>
    <field name="ip.hdr_len" showname=".... 0101 = Header Length: 20 bytes (5)" size="1" pos="18" show="20" value="45"/>
    <field name="ip.dsfield" showname="Differentiated Services Field: 0x10 (DSCP: Unknown, ECN: Not-ECT)" size="1" pos="19" show="0x00000010" value="10">
      <field name="ip.dsfield.dscp" showname="0001 00.. = Differentiated Services Codepoint: Unknown (4)" size="1" pos="19" show="4" value="4" unmaskedvalue="10"/>
      <field name="ip.dsfield.ecn" showname=".... ..00 = Explicit Congestion Notification: Not ECN-Capable Transport (0)" size="1" pos="19" show="0" value="0" unmaskedvalue="10"/>
    </field>
    <field name="ip.len" showname="Total Length: 392" size="2" pos="20" show="392" value="0188"/>
    <field name="ip.id" showname="Identification: 0x0000 (0)" size="2" pos="22" show="0x00000000" value="0000"/>
    <field name="ip.flags" showname="Flags: 0x00" size="1" pos="24" show="0x00000000" value="00">
      <field name="ip.flags.rb" showname="0... .... = Reserved bit: Not set" size="1" pos="24" show="0" value="00"/>
      <field name="ip.flags.df" showname=".0.. .... = Don&#x27;t fragment: Not set" size="1" pos="24" show="0" value="00"/>
      <field name="ip.flags.mf" showname="..0. .... = More fragments: Not set" size="1" pos="24" show="0" value="00"/>
    </field>
    <field name="ip.frag_offset" showname="Fragment offset: 0" size="2" pos="24" show="0" value="0000"/>
    <field name="ip.ttl" showname="Time to live: 16" size="1" pos="26" show="16" value="10"/>
    <field name="ip.proto" showname="Protocol: UDP (17)" size="1" pos="27" show="17" value="11"/>
    <field name="ip.checksum" showname="Header checksum: 0xa956 [validation disabled]" size="2" pos="28" show="0x0000a956" value="a956"/>
    <field name="ip.checksum.status" showname="Header checksum status: Unverified" size="0" pos="28" show="2"/>
    <field name="ip.src" showname="Source: 0.0.0.0" size="4" pos="30" show="0.0.0.0" value="00000000"/>
    <field name="ip.addr" showname="Source or Destination Address: 0.0.0.0" hide="yes" size="4" pos="30" show="0.0.0.0" value="00000000"/>
    <field name="ip.src_host" showname="Source Host: 0.0.0.0" hide="yes" size="4" pos="30" show="0.0.0.0" value="00000000"/>
    <field name="ip.host" showname="Source or Destination Host: 0.0.0.0" hide="yes" size="4" pos="30" show="0.0.0.0" value="00000000"/>
    <field name="ip.dst" showname="Destination: 255.255.255.255" size="4" pos="34" show="255.255.255.255" value="ffffffff"/>
    <field name="ip.addr" showname="Source or Destination Address: 255.255.255.255" hide="yes" size="4" pos="34" show="255.255.255.255" value="ffffffff"/>
    <field name="ip.dst_host" showname="Destination Host: 255.255.255.255" hide="yes" size="4" pos="34" show="255.255.255.255" value="ffffffff"/>
    <field name="ip.host" showname="Source or Destination Host: 255.255.255.255" hide="yes" size="4" pos="34" show="255.255.255.255" value="ffffffff"/>
    <field name="" show="Source GeoIP: Unknown" size="4" pos="30" value="00000000"/>
    <field name="" show="Destination GeoIP: Unknown" size="4" pos="34" value="ffffffff"/>
  </proto>
  <proto name="udp" showname="User Datagram Protocol, Src Port: 68, Dst Port: 67" size="8" pos="38">
    <field name="udp.srcport" showname="Source Port: 68" size="2" pos="38" show="68" value="0044"/>
    <field name="udp.dstport" showname="Destination Port: 67" size="2" pos="40" show="67" value="0043"/>
    <field name="udp.port" showname="Source or Destination Port: 68" hide="yes" size="2" pos="38" show="68" value="0044"/>
    <field name="udp.port" showname="Source or Destination Port: 67" hide="yes" size="2" pos="40" show="67" value="0043"/>
    <field name="udp.length" showname="Length: 372" size="2" pos="42" show="372" value="0174"/>
    <field name="udp.checksum" showname="Checksum: 0x7f3b [unverified]" size="2" pos="44" show="0x00007f3b" value="7f3b"/>
    <field name="udp.checksum.status" showname="Checksum Status: Unverified" size="0" pos="44" show="2"/>
    <field name="udp.stream" showname="Stream index: 0" size="0" pos="46" show="0"/>
  </proto>
  <proto name="DHCP" showname="DHCP Protocol (Discover)" size="364" pos="46">
    <field name="DHCP.type" showname="Message type: Boot Request (1)" size="1" pos="46" show="1" value="01"/>
    <field name="DHCP.hw.type" showname="Hardware type: Ethernet (0x01)" size="1" pos="47" show="0x00000001" value="01"/>
    <field name="DHCP.hw.len" showname="Hardware address length: 6" size="1" pos="48" show="6" value="06"/>
    <field name="DHCP.hops" showname="Hops: 0" size="1" pos="49" show="0" value="00"/>
    <field name="DHCP.id" showname="Transaction ID: 0xb65f1f5a" size="4" pos="50" show="0xb65f1f5a" value="b65f1f5a"/>
    <field name="DHCP.secs" showname="Seconds elapsed: 0" size="2" pos="54" show="0" value="0000"/>
    <field name="DHCP.flags" showname="DHCP flags: 0x0000 (Unicast)" size="2" pos="56" show="0x00000000" value="0000">
      <field name="DHCP.flags.bc" showname="0... .... .... .... = Broadcast flag: Unicast" size="2" pos="56" show="0" value="0" unmaskedvalue="0000"/>
      <field name="DHCP.flags.reserved" showname=".000 0000 0000 0000 = Reserved flags: 0x0000" size="2" pos="56" show="0x00000000" value="0" unmaskedvalue="0000"/>
    </field>
    <field name="DHCP.ip.client" showname="Client IP address: 0.0.0.0" size="4" pos="58" show="0.0.0.0" value="00000000"/>
    <field name="DHCP.ip.your" showname="Your (client) IP address: 0.0.0.0" size="4" pos="62" show="0.0.0.0" value="00000000"/>
    <field name="DHCP.ip.server" showname="Next server IP address: 0.0.0.0" size="4" pos="66" show="0.0.0.0" value="00000000"/>
    <field name="DHCP.ip.relay" showname="Relay agent IP address: 0.0.0.0" size="4" pos="70" show="0.0.0.0" value="00000000"/>
    <field name="DHCP.hw.mac_addr" showname="Client MAC address: Private_66:68:00 (00:50:79:66:68:00)" size="6" pos="74" show="00:50:79:66:68:00" value="005079666800"/>
    <field name="DHCP.hw.addr_padding" showname="Client hardware address padding: 00000000000000000000" size="10" pos="80" show="00:00:00:00:00:00:00:00:00:00" value="00000000000000000000"/>
    <field name="DHCP.server" showname="Server host name not given" size="64" pos="90" show="" value="00000000000000000000000000000000000000000000000000000000000000000000000000000000000000000000000000000000000000000000000000000000"/>
    <field name="DHCP.file" showname="Boot file name not given" size="128" pos="154" show="" value="0000000000000000000000000000000000000000000000000000000000000000000000000000000000000000000000000000000000000000000000000000000000000000000000000000000000000000000000000000000000000000000000000000000000000000000000000000000000000000000000000000000000000000"/>
    <field name="DHCP.dhcp" showname="Frame is DHCP: True" hide="yes" size="0" pos="46" show="1"/>
    <field name="DHCP.cookie" showname="Magic cookie: DHCP" size="4" pos="282" show="99.130.83.99" value="63825363"/>
    <field name="DHCP.option.type" showname="Option: (53) DHCP Message Type (Discover)" size="3" pos="286" show="53" value="350101">
      <field name="DHCP.option.length" showname="Length: 1" size="1" pos="287" show="1" value="01"/>
      <field name="DHCP.option.value" showname="Value: 01" hide="yes" size="1" pos="288" show="01" value="01"/>
      <field name="DHCP.option.dhcp" showname="DHCP: Discover (1)" size="1" pos="288" show="1" value="01"/>
    </field>
    <field name="DHCP.option.type" showname="Option: (12) Host Name" size="9" pos="289" show="12" value="0c07565043532d3131">
      <field name="DHCP.option.length" showname="Length: 7" size="1" pos="290" show="7" value="07"/>
      <field name="DHCP.option.value" showname="Value: 565043532d3131" hide="yes" size="7" pos="291" show="56:50:43:53:2d:31:31" value="565043532d3131"/>
      <field name="DHCP.option.hostname" showname="Host Name: VPCS-11" size="7" pos="291" show="VPCS-11" value="565043532d3131"/>
    </field>
    <field name="DHCP.option.type" showname="Option: (61) Client identifier" size="9" pos="298" show="61" value="3d0701005079666800">
      <field name="DHCP.option.length" showname="Length: 7" size="1" pos="299" show="7" value="07"/>
      <field name="DHCP.option.value" showname="Value: 01005079666800" hide="yes" size="7" pos="300" show="01:00:50:79:66:68:00" value="01005079666800"/>
      <field name="DHCP.hw.type" showname="Hardware type: Ethernet (0x01)" size="1" pos="300" show="0x00000001" value="01"/>
      <field name="DHCP.hw.mac_addr" showname="Client MAC address: Private_66:68:00 (00:50:79:66:68:00)" size="6" pos="301" show="00:50:79:66:68:00" value="005079666800"/>
    </field>
    <field name="DHCP.option.type" showname="Option: (255) End" size="1" pos="307" show="0" value="ff">
      <field name="DHCP.option.end" showname="Option End: 255" size="1" pos="307" show="255" value="ff"/>
    </field>
    <field name="DHCP.option.padding" showname="Padding: 000000000000000000000000000000000000000000000000..." size="102" pos="308" show="00:00:00:00:00:00:00:00:00:00:00:00:00:00:00:00:00:00:00:00:00:00:00:00:00:00:00:00:00:00:00:00:00:00:00:00:00:00:00:00:00:00:00:00:00:00:00:00:00:00:00:00:00:00:00:00:00:00:00:00:00:00:00:00:00:00:00:00:00:00:00:00:00:00:00:00:00:00:00:00:00:00:00:00:00:00:00:00:00:00:00:00:00:00:00:00:00:00:00:00:00:00" value="000000000000000000000000000000000000000000000000000000000000000000000000000000000000000000000000000000000000000000000000000000000000000000000000000000000000000000000000000000000000000000000000000000000000"/>
  </proto>
</packet>

<packet>
  <proto name="geninfo" pos="0" showname="General information" size="346">
    <field name="num" pos="0" show="215" showname="Number" value="d7" size="346"/>
    <field name="len" pos="0" show="346" showname="Frame Length" value="15a" size="346"/>
    <field name="caplen" pos="0" show="346" showname="Captured Length" value="15a" size="346"/>
    <field name="timestamp" pos="0" show="Jan 29, 2020 04:32:45.527724000 India Standard Time" showname="Captured Time" value="1580252565.527724000" size="346"/>
  </proto>
  <proto name="frame" showname="Frame 215: 346 bytes on wire (2768 bits), 346 bytes captured (2768 bits) on interface 0" size="346" pos="0">
    <field name="frame.interface_id" showname="Interface id: 0 (-)" size="0" pos="0" show="0"/>
    <field name="frame.encap_type" showname="Encapsulation type: Ethernet (1)" size="0" pos="0" show="1"/>
    <field name="frame.time" showname="Arrival Time: Jan 29, 2020 04:32:45.527724000 India Standard Time" size="0" pos="0" show="Jan 29, 2020 04:32:45.527724000 India Standard Time"/>
    <field name="frame.offset_shift" showname="Time shift for this packet: 0.000000000 seconds" size="0" pos="0" show="0.000000000"/>
    <field name="frame.time_epoch" showname="Epoch Time: 1580252565.527724000 seconds" size="0" pos="0" show="1580252565.527724000"/>
    <field name="frame.time_delta" showname="Time delta from previous captured frame: 1.021882000 seconds" size="0" pos="0" show="1.021882000"/>
    <field name="frame.time_delta_displayed" showname="Time delta from previous displayed frame: 1.021882000 seconds" size="0" pos="0" show="1.021882000"/>
    <field name="frame.time_relative" showname="Time since reference or first frame: 94.126388000 seconds" size="0" pos="0" show="94.126388000"/>
    <field name="frame.number" showname="Frame Number: 215" size="0" pos="0" show="215"/>
    <field name="frame.len" showname="Frame Length: 346 bytes (2768 bits)" size="0" pos="0" show="346"/>
    <field name="frame.cap_len" showname="Capture Length: 346 bytes (2768 bits)" size="0" pos="0" show="346"/>
    <field name="frame.marked" showname="Frame is marked: False" size="0" pos="0" show="0"/>
    <field name="frame.ignored" showname="Frame is ignored: False" size="0" pos="0" show="0"/>
    <field name="frame.protocols" showname="Protocols in frame: eth:ethertype:vlan:ethertype:ip:udp:DHCP" size="0" pos="0" show="eth:ethertype:vlan:ethertype:ip:udp:DHCP"/>
    <field name="frame.coloring_rule.name" showname="Coloring Rule Name: UDP" size="0" pos="0" show="UDP"/>
    <field name="frame.coloring_rule.string" showname="Coloring Rule String: udp" size="0" pos="0" show="udp"/>
  </proto>
  <proto name="eth" showname="Ethernet II, Src: aa:bb:cc:00:01:00 (aa:bb:cc:00:01:00), Dst: Private_66:68:00 (00:50:79:66:68:00)" size="14" pos="0">
    <field name="eth.dst" showname="Destination: Private_66:68:00 (00:50:79:66:68:00)" size="6" pos="0" show="00:50:79:66:68:00" value="005079666800">
      <field name="eth.dst_resolved" showname="Destination (resolved): Private_66:68:00" hide="yes" size="6" pos="0" show="Private_66:68:00" value="005079666800"/>
      <field name="eth.addr" showname="Address: Private_66:68:00 (00:50:79:66:68:00)" size="6" pos="0" show="00:50:79:66:68:00" value="005079666800"/>
      <field name="eth.addr_resolved" showname="Address (resolved): Private_66:68:00" hide="yes" size="6" pos="0" show="Private_66:68:00" value="005079666800"/>
      <field name="eth.lg" showname=".... ..0. .... .... .... .... = LG bit: Globally unique address (factory default)" size="3" pos="0" show="0" value="0" unmaskedvalue="005079"/>
      <field name="eth.ig" showname=".... ...0 .... .... .... .... = IG bit: Individual address (unicast)" size="3" pos="0" show="0" value="0" unmaskedvalue="005079"/>
    </field>
    <field name="eth.src" showname="Source: aa:bb:cc:00:01:00 (aa:bb:cc:00:01:00)" size="6" pos="6" show="aa:bb:cc:00:01:00" value="aabbcc000100">
      <field name="eth.src_resolved" showname="Source (resolved): aa:bb:cc:00:01:00" hide="yes" size="6" pos="6" show="aa:bb:cc:00:01:00" value="aabbcc000100"/>
      <field name="eth.addr" showname="Address: aa:bb:cc:00:01:00 (aa:bb:cc:00:01:00)" size="6" pos="6" show="aa:bb:cc:00:01:00" value="aabbcc000100"/>
      <field name="eth.addr_resolved" showname="Address (resolved): aa:bb:cc:00:01:00" hide="yes" size="6" pos="6" show="aa:bb:cc:00:01:00" value="aabbcc000100"/>
      <field name="eth.lg" showname=".... ..1. .... .... .... .... = LG bit: Locally administered address (this is NOT the factory default)" size="3" pos="6" show="1" value="1" unmaskedvalue="aabbcc"/>
      <field name="eth.ig" showname=".... ...0 .... .... .... .... = IG bit: Individual address (unicast)" size="3" pos="6" show="0" value="0" unmaskedvalue="aabbcc"/>
    </field>
    <field name="eth.type" showname="Type: 802.1Q Virtual LAN (0x8100)" size="2" pos="12" show="0x00008100" value="8100"/>
  </proto>
  <proto name="vlan" showname="802.1Q Virtual LAN, PRI: 0, CFI: 0, ID: 100" size="4" pos="14">
    <field name="vlan.priority" showname="000. .... .... .... = Priority: Best Effort (default) (0)" size="2" pos="14" show="0" value="0" unmaskedvalue="0064"/>
    <field name="vlan.cfi" showname="...0 .... .... .... = CFI: Canonical (0)" size="2" pos="14" show="0" value="0" unmaskedvalue="0064"/>
    <field name="vlan.id" showname=".... 0000 0110 0100 = ID: 100" size="2" pos="14" show="100" value="64" unmaskedvalue="0064"/>
    <field name="vlan.etype" showname="Type: IPv4 (0x0800)" size="2" pos="16" show="0x00000800" value="0800"/>
  </proto>
  <proto name="ip" showname="Internet Protocol Version 4, Src: 192.168.100.1, Dst: 192.168.100.2" size="20" pos="18">
    <field name="ip.version" showname="0100 .... = Version: 4" size="1" pos="18" show="4" value="4" unmaskedvalue="45"/>
    <field name="ip.hdr_len" showname=".... 0101 = Header Length: 20 bytes (5)" size="1" pos="18" show="20" value="45"/>
    <field name="ip.dsfield" showname="Differentiated Services Field: 0x00 (DSCP: CS0, ECN: Not-ECT)" size="1" pos="19" show="0x00000000" value="00">
      <field name="ip.dsfield.dscp" showname="0000 00.. = Differentiated Services Codepoint: Default (0)" size="1" pos="19" show="0" value="0" unmaskedvalue="00"/>
      <field name="ip.dsfield.ecn" showname=".... ..00 = Explicit Congestion Notification: Not ECN-Capable Transport (0)" size="1" pos="19" show="0" value="0" unmaskedvalue="00"/>
    </field>
    <field name="ip.len" showname="Total Length: 328" size="2" pos="20" show="328" value="0148"/>
    <field name="ip.id" showname="Identification: 0x0000 (0)" size="2" pos="22" show="0x00000000" value="0000"/>
    <field name="ip.flags" showname="Flags: 0x00" size="1" pos="24" show="0x00000000" value="00">
      <field name="ip.flags.rb" showname="0... .... = Reserved bit: Not set" size="1" pos="24" show="0" value="00"/>
      <field name="ip.flags.df" showname=".0.. .... = Don&#x27;t fragment: Not set" size="1" pos="24" show="0" value="00"/>
      <field name="ip.flags.mf" showname="..0. .... = More fragments: Not set" size="1" pos="24" show="0" value="00"/>
    </field>
    <field name="ip.frag_offset" showname="Fragment offset: 0" size="2" pos="24" show="0" value="0000"/>
    <field name="ip.ttl" showname="Time to live: 255" size="1" pos="26" show="255" value="ff"/>
    <field name="ip.proto" showname="Protocol: UDP (17)" size="1" pos="27" show="17" value="11"/>
    <field name="ip.checksum" showname="Header checksum: 0x7150 [validation disabled]" size="2" pos="28" show="0x00007150" value="7150"/>
    <field name="ip.checksum.status" showname="Header checksum status: Unverified" size="0" pos="28" show="2"/>
    <field name="ip.src" showname="Source: 192.168.100.1" size="4" pos="30" show="192.168.100.1" value="c0a86401"/>
    <field name="ip.addr" showname="Source or Destination Address: 192.168.100.1" hide="yes" size="4" pos="30" show="192.168.100.1" value="c0a86401"/>
    <field name="ip.src_host" showname="Source Host: 192.168.100.1" hide="yes" size="4" pos="30" show="192.168.100.1" value="c0a86401"/>
    <field name="ip.host" showname="Source or Destination Host: 192.168.100.1" hide="yes" size="4" pos="30" show="192.168.100.1" value="c0a86401"/>
    <field name="ip.dst" showname="Destination: 192.168.100.2" size="4" pos="34" show="192.168.100.2" value="c0a86402"/>
    <field name="ip.addr" showname="Source or Destination Address: 192.168.100.2" hide="yes" size="4" pos="34" show="192.168.100.2" value="c0a86402"/>
    <field name="ip.dst_host" showname="Destination Host: 192.168.100.2" hide="yes" size="4" pos="34" show="192.168.100.2" value="c0a86402"/>
    <field name="ip.host" showname="Source or Destination Host: 192.168.100.2" hide="yes" size="4" pos="34" show="192.168.100.2" value="c0a86402"/>
    <field name="" show="Source GeoIP: Unknown" size="4" pos="30" value="c0a86401"/>
    <field name="" show="Destination GeoIP: Unknown" size="4" pos="34" value="c0a86402"/>
  </proto>
  <proto name="udp" showname="User Datagram Protocol, Src Port: 67, Dst Port: 68" size="8" pos="38">
    <field name="udp.srcport" showname="Source Port: 67" size="2" pos="38" show="67" value="0043"/>
    <field name="udp.dstport" showname="Destination Port: 68" size="2" pos="40" show="68" value="0044"/>
    <field name="udp.port" showname="Source or Destination Port: 67" hide="yes" size="2" pos="38" show="67" value="0043"/>
    <field name="udp.port" showname="Source or Destination Port: 68" hide="yes" size="2" pos="40" show="68" value="0044"/>
    <field name="udp.length" showname="Length: 308" size="2" pos="42" show="308" value="0134"/>
    <field name="udp.checksum" showname="Checksum: 0xd74f [unverified]" size="2" pos="44" show="0x0000d74f" value="d74f"/>
    <field name="udp.checksum.status" showname="Checksum Status: Unverified" size="0" pos="44" show="2"/>
    <field name="udp.stream" showname="Stream index: 1" size="0" pos="46" show="1"/>
  </proto>
  <proto name="DHCP" showname="DHCP Protocol (Offer)" size="300" pos="46">
    <field name="DHCP.type" showname="Message type: Boot Reply (2)" size="1" pos="46" show="2" value="02"/>
    <field name="DHCP.hw.type" showname="Hardware type: Ethernet (0x01)" size="1" pos="47" show="0x00000001" value="01"/>
    <field name="DHCP.hw.len" showname="Hardware address length: 6" size="1" pos="48" show="6" value="06"/>
    <field name="DHCP.hops" showname="Hops: 0" size="1" pos="49" show="0" value="00"/>
    <field name="DHCP.id" showname="Transaction ID: 0xb65f1f5a" size="4" pos="50" show="0xb65f1f5a" value="b65f1f5a"/>
    <field name="DHCP.secs" showname="Seconds elapsed: 0" size="2" pos="54" show="0" value="0000"/>
    <field name="DHCP.flags" showname="DHCP flags: 0x0000 (Unicast)" size="2" pos="56" show="0x00000000" value="0000">
      <field name="DHCP.flags.bc" showname="0... .... .... .... = Broadcast flag: Unicast" size="2" pos="56" show="0" value="0" unmaskedvalue="0000"/>
      <field name="DHCP.flags.reserved" showname=".000 0000 0000 0000 = Reserved flags: 0x0000" size="2" pos="56" show="0x00000000" value="0" unmaskedvalue="0000"/>
    </field>
    <field name="DHCP.ip.client" showname="Client IP address: 0.0.0.0" size="4" pos="58" show="0.0.0.0" value="00000000"/>
    <field name="DHCP.ip.your" showname="Your (client) IP address: 192.168.100.2" size="4" pos="62" show="192.168.100.2" value="c0a86402"/>
    <field name="DHCP.ip.server" showname="Next server IP address: 0.0.0.0" size="4" pos="66" show="0.0.0.0" value="00000000"/>
    <field name="DHCP.ip.relay" showname="Relay agent IP address: 0.0.0.0" size="4" pos="70" show="0.0.0.0" value="00000000"/>
    <field name="DHCP.hw.mac_addr" showname="Client MAC address: Private_66:68:00 (00:50:79:66:68:00)" size="6" pos="74" show="00:50:79:66:68:00" value="005079666800"/>
    <field name="DHCP.hw.addr_padding" showname="Client hardware address padding: 00000000000000000000" size="10" pos="80" show="00:00:00:00:00:00:00:00:00:00" value="00000000000000000000"/>
    <field name="DHCP.server" showname="Server host name not given" size="64" pos="90" show="" value="00000000000000000000000000000000000000000000000000000000000000000000000000000000000000000000000000000000000000000000000000000000"/>
    <field name="DHCP.file" showname="Boot file name not given" size="128" pos="154" show="" value="0000000000000000000000000000000000000000000000000000000000000000000000000000000000000000000000000000000000000000000000000000000000000000000000000000000000000000000000000000000000000000000000000000000000000000000000000000000000000000000000000000000000000000"/>
    <field name="DHCP.dhcp" showname="Frame is DHCP: True" hide="yes" size="0" pos="46" show="1"/>
    <field name="DHCP.cookie" showname="Magic cookie: DHCP" size="4" pos="282" show="99.130.83.99" value="63825363"/>
    <field name="DHCP.option.type" showname="Option: (53) DHCP Message Type (Offer)" size="3" pos="286" show="53" value="350102">
      <field name="DHCP.option.length" showname="Length: 1" size="1" pos="287" show="1" value="01"/>
      <field name="DHCP.option.value" showname="Value: 02" hide="yes" size="1" pos="288" show="02" value="02"/>
      <field name="DHCP.option.dhcp" showname="DHCP: Offer (2)" size="1" pos="288" show="2" value="02"/>
    </field>
    <field name="DHCP.option.type" showname="Option: (54) DHCP Server Identifier" size="6" pos="289" show="54" value="3604c0a86401">
      <field name="DHCP.option.length" showname="Length: 4" size="1" pos="290" show="4" value="04"/>
      <field name="DHCP.option.value" showname="Value: c0a86401" hide="yes" size="4" pos="291" show="c0:a8:64:01" value="c0a86401"/>
      <field name="DHCP.option.dhcp_server_id" showname="DHCP Server Identifier: 192.168.100.1" size="4" pos="291" show="192.168.100.1" value="c0a86401"/>
    </field>
    <field name="DHCP.option.type" showname="Option: (51) IP Address Lease Time" size="6" pos="295" show="51" value="330400015180">
      <field name="DHCP.option.length" showname="Length: 4" size="1" pos="296" show="4" value="04"/>
      <field name="DHCP.option.value" showname="Value: 00015180" hide="yes" size="4" pos="297" show="00:01:51:80" value="00015180"/>
      <field name="DHCP.option.ip_address_lease_time" showname="IP Address Lease Time: (86400s) 1 day" size="4" pos="297" show="86400" value="00015180"/>
    </field>
    <field name="DHCP.option.type" showname="Option: (58) Renewal Time Value" size="6" pos="301" show="58" value="3a040000a8c0">
      <field name="DHCP.option.length" showname="Length: 4" size="1" pos="302" show="4" value="04"/>
      <field name="DHCP.option.value" showname="Value: 0000a8c0" hide="yes" size="4" pos="303" show="00:00:a8:c0" value="0000a8c0"/>
      <field name="DHCP.option.renewal_time_value" showname="Renewal Time Value: (43200s) 12 hours" size="4" pos="303" show="43200" value="0000a8c0"/>
    </field>
    <field name="DHCP.option.type" showname="Option: (59) Rebinding Time Value" size="6" pos="307" show="59" value="3b0400012750">
      <field name="DHCP.option.length" showname="Length: 4" size="1" pos="308" show="4" value="04"/>
      <field name="DHCP.option.value" showname="Value: 00012750" hide="yes" size="4" pos="309" show="00:01:27:50" value="00012750"/>
      <field name="DHCP.option.rebinding_time_value" showname="Rebinding Time Value: (75600s) 21 hours" size="4" pos="309" show="75600" value="00012750"/>
    </field>
    <field name="DHCP.option.type" showname="Option: (1) Subnet Mask" size="6" pos="313" show="1" value="0104ffffff00">
      <field name="DHCP.option.length" showname="Length: 4" size="1" pos="314" show="4" value="04"/>
      <field name="DHCP.option.value" showname="Value: ffffff00" hide="yes" size="4" pos="315" show="ff:ff:ff:00" value="ffffff00"/>
      <field name="DHCP.option.subnet_mask" showname="Subnet Mask: 255.255.255.0" size="4" pos="315" show="255.255.255.0" value="ffffff00"/>
    </field>
    <field name="DHCP.option.type" showname="Option: (6) Domain Name Server" size="6" pos="319" show="6" value="060404020202">
      <field name="DHCP.option.length" showname="Length: 4" size="1" pos="320" show="4" value="04"/>
      <field name="DHCP.option.value" showname="Value: 04020202" hide="yes" size="4" pos="321" show="04:02:02:02" value="04020202"/>
      <field name="DHCP.option.domain_name_server" showname="Domain Name Server: 4.2.2.2" size="4" pos="321" show="4.2.2.2" value="04020202"/>
    </field>
    <field name="DHCP.option.type" showname="Option: (3) Router" size="6" pos="325" show="3" value="0304c0a86401">
      <field name="DHCP.option.length" showname="Length: 4" size="1" pos="326" show="4" value="04"/>
      <field name="DHCP.option.value" showname="Value: c0a86401" hide="yes" size="4" pos="327" show="c0:a8:64:01" value="c0a86401"/>
      <field name="DHCP.option.router" showname="Router: 192.168.100.1" size="4" pos="327" show="192.168.100.1" value="c0a86401"/>
    </field>
    <field name="DHCP.option.type" showname="Option: (255) End" size="1" pos="331" show="0" value="ff">
      <field name="DHCP.option.end" showname="Option End: 255" size="1" pos="331" show="255" value="ff"/>
    </field>
    <field name="DHCP.option.padding" showname="Padding: 0000000000000000000000000000" size="14" pos="332" show="00:00:00:00:00:00:00:00:00:00:00:00:00:00" value="0000000000000000000000000000"/>
  </proto>
</packet>

<packet>
  <proto name="geninfo" pos="0" showname="General information" size="410">
    <field name="num" pos="0" show="222" showname="Number" value="de" size="410"/>
    <field name="len" pos="0" show="410" showname="Frame Length" value="19a" size="410"/>
    <field name="caplen" pos="0" show="410" showname="Captured Length" value="19a" size="410"/>
    <field name="timestamp" pos="0" show="Jan 29, 2020 04:32:47.506412000 India Standard Time" showname="Captured Time" value="1580252567.506412000" size="410"/>
  </proto>
  <proto name="frame" showname="Frame 222: 410 bytes on wire (3280 bits), 410 bytes captured (3280 bits) on interface 0" size="410" pos="0">
    <field name="frame.interface_id" showname="Interface id: 0 (-)" size="0" pos="0" show="0"/>
    <field name="frame.encap_type" showname="Encapsulation type: Ethernet (1)" size="0" pos="0" show="1"/>
    <field name="frame.time" showname="Arrival Time: Jan 29, 2020 04:32:47.506412000 India Standard Time" size="0" pos="0" show="Jan 29, 2020 04:32:47.506412000 India Standard Time"/>
    <field name="frame.offset_shift" showname="Time shift for this packet: 0.000000000 seconds" size="0" pos="0" show="0.000000000"/>
    <field name="frame.time_epoch" showname="Epoch Time: 1580252567.506412000 seconds" size="0" pos="0" show="1580252567.506412000"/>
    <field name="frame.time_delta" showname="Time delta from previous captured frame: 1.701097000 seconds" size="0" pos="0" show="1.701097000"/>
    <field name="frame.time_delta_displayed" showname="Time delta from previous displayed frame: 1.978688000 seconds" size="0" pos="0" show="1.978688000"/>
    <field name="frame.time_relative" showname="Time since reference or first frame: 96.105076000 seconds" size="0" pos="0" show="96.105076000"/>
    <field name="frame.number" showname="Frame Number: 222" size="0" pos="0" show="222"/>
    <field name="frame.len" showname="Frame Length: 410 bytes (3280 bits)" size="0" pos="0" show="410"/>
    <field name="frame.cap_len" showname="Capture Length: 410 bytes (3280 bits)" size="0" pos="0" show="410"/>
    <field name="frame.marked" showname="Frame is marked: False" size="0" pos="0" show="0"/>
    <field name="frame.ignored" showname="Frame is ignored: False" size="0" pos="0" show="0"/>
    <field name="frame.protocols" showname="Protocols in frame: eth:ethertype:vlan:ethertype:ip:udp:DHCP" size="0" pos="0" show="eth:ethertype:vlan:ethertype:ip:udp:DHCP"/>
    <field name="frame.coloring_rule.name" showname="Coloring Rule Name: UDP" size="0" pos="0" show="UDP"/>
    <field name="frame.coloring_rule.string" showname="Coloring Rule String: udp" size="0" pos="0" show="udp"/>
  </proto>
  <proto name="eth" showname="Ethernet II, Src: Private_66:68:00 (00:50:79:66:68:00), Dst: aa:bb:cc:00:01:00 (aa:bb:cc:00:01:00)" size="14" pos="0">
    <field name="eth.dst" showname="Destination: aa:bb:cc:00:01:00 (aa:bb:cc:00:01:00)" size="6" pos="0" show="aa:bb:cc:00:01:00" value="aabbcc000100">
      <field name="eth.dst_resolved" showname="Destination (resolved): aa:bb:cc:00:01:00" hide="yes" size="6" pos="0" show="aa:bb:cc:00:01:00" value="aabbcc000100"/>
      <field name="eth.addr" showname="Address: aa:bb:cc:00:01:00 (aa:bb:cc:00:01:00)" size="6" pos="0" show="aa:bb:cc:00:01:00" value="aabbcc000100"/>
      <field name="eth.addr_resolved" showname="Address (resolved): aa:bb:cc:00:01:00" hide="yes" size="6" pos="0" show="aa:bb:cc:00:01:00" value="aabbcc000100"/>
      <field name="eth.lg" showname=".... ..1. .... .... .... .... = LG bit: Locally administered address (this is NOT the factory default)" size="3" pos="0" show="1" value="1" unmaskedvalue="aabbcc"/>
      <field name="eth.ig" showname=".... ...0 .... .... .... .... = IG bit: Individual address (unicast)" size="3" pos="0" show="0" value="0" unmaskedvalue="aabbcc"/>
    </field>
    <field name="eth.src" showname="Source: Private_66:68:00 (00:50:79:66:68:00)" size="6" pos="6" show="00:50:79:66:68:00" value="005079666800">
      <field name="eth.src_resolved" showname="Source (resolved): Private_66:68:00" hide="yes" size="6" pos="6" show="Private_66:68:00" value="005079666800"/>
      <field name="eth.addr" showname="Address: Private_66:68:00 (00:50:79:66:68:00)" size="6" pos="6" show="00:50:79:66:68:00" value="005079666800"/>
      <field name="eth.addr_resolved" showname="Address (resolved): Private_66:68:00" hide="yes" size="6" pos="6" show="Private_66:68:00" value="005079666800"/>
      <field name="eth.lg" showname=".... ..0. .... .... .... .... = LG bit: Globally unique address (factory default)" size="3" pos="6" show="0" value="0" unmaskedvalue="005079"/>
      <field name="eth.ig" showname=".... ...0 .... .... .... .... = IG bit: Individual address (unicast)" size="3" pos="6" show="0" value="0" unmaskedvalue="005079"/>
    </field>
    <field name="eth.type" showname="Type: 802.1Q Virtual LAN (0x8100)" size="2" pos="12" show="0x00008100" value="8100"/>
  </proto>
  <proto name="vlan" showname="802.1Q Virtual LAN, PRI: 0, CFI: 0, ID: 100" size="4" pos="14">
    <field name="vlan.priority" showname="000. .... .... .... = Priority: Best Effort (default) (0)" size="2" pos="14" show="0" value="0" unmaskedvalue="0064"/>
    <field name="vlan.cfi" showname="...0 .... .... .... = CFI: Canonical (0)" size="2" pos="14" show="0" value="0" unmaskedvalue="0064"/>
    <field name="vlan.id" showname=".... 0000 0110 0100 = ID: 100" size="2" pos="14" show="100" value="64" unmaskedvalue="0064"/>
    <field name="vlan.etype" showname="Type: IPv4 (0x0800)" size="2" pos="16" show="0x00000800" value="0800"/>
  </proto>
  <proto name="ip" showname="Internet Protocol Version 4, Src: 0.0.0.0, Dst: 255.255.255.255" size="20" pos="18">
    <field name="ip.version" showname="0100 .... = Version: 4" size="1" pos="18" show="4" value="4" unmaskedvalue="45"/>
    <field name="ip.hdr_len" showname=".... 0101 = Header Length: 20 bytes (5)" size="1" pos="18" show="20" value="45"/>
    <field name="ip.dsfield" showname="Differentiated Services Field: 0x10 (DSCP: Unknown, ECN: Not-ECT)" size="1" pos="19" show="0x00000010" value="10">
      <field name="ip.dsfield.dscp" showname="0001 00.. = Differentiated Services Codepoint: Unknown (4)" size="1" pos="19" show="4" value="4" unmaskedvalue="10"/>
      <field name="ip.dsfield.ecn" showname=".... ..00 = Explicit Congestion Notification: Not ECN-Capable Transport (0)" size="1" pos="19" show="0" value="0" unmaskedvalue="10"/>
    </field>
    <field name="ip.len" showname="Total Length: 392" size="2" pos="20" show="392" value="0188"/>
    <field name="ip.id" showname="Identification: 0x0000 (0)" size="2" pos="22" show="0x00000000" value="0000"/>
    <field name="ip.flags" showname="Flags: 0x00" size="1" pos="24" show="0x00000000" value="00">
      <field name="ip.flags.rb" showname="0... .... = Reserved bit: Not set" size="1" pos="24" show="0" value="00"/>
      <field name="ip.flags.df" showname=".0.. .... = Don&#x27;t fragment: Not set" size="1" pos="24" show="0" value="00"/>
      <field name="ip.flags.mf" showname="..0. .... = More fragments: Not set" size="1" pos="24" show="0" value="00"/>
    </field>
    <field name="ip.frag_offset" showname="Fragment offset: 0" size="2" pos="24" show="0" value="0000"/>
    <field name="ip.ttl" showname="Time to live: 16" size="1" pos="26" show="16" value="10"/>
    <field name="ip.proto" showname="Protocol: UDP (17)" size="1" pos="27" show="17" value="11"/>
    <field name="ip.checksum" showname="Header checksum: 0xa956 [validation disabled]" size="2" pos="28" show="0x0000a956" value="a956"/>
    <field name="ip.checksum.status" showname="Header checksum status: Unverified" size="0" pos="28" show="2"/>
    <field name="ip.src" showname="Source: 0.0.0.0" size="4" pos="30" show="0.0.0.0" value="00000000"/>
    <field name="ip.addr" showname="Source or Destination Address: 0.0.0.0" hide="yes" size="4" pos="30" show="0.0.0.0" value="00000000"/>
    <field name="ip.src_host" showname="Source Host: 0.0.0.0" hide="yes" size="4" pos="30" show="0.0.0.0" value="00000000"/>
    <field name="ip.host" showname="Source or Destination Host: 0.0.0.0" hide="yes" size="4" pos="30" show="0.0.0.0" value="00000000"/>
    <field name="ip.dst" showname="Destination: 255.255.255.255" size="4" pos="34" show="255.255.255.255" value="ffffffff"/>
    <field name="ip.addr" showname="Source or Destination Address: 255.255.255.255" hide="yes" size="4" pos="34" show="255.255.255.255" value="ffffffff"/>
    <field name="ip.dst_host" showname="Destination Host: 255.255.255.255" hide="yes" size="4" pos="34" show="255.255.255.255" value="ffffffff"/>
    <field name="ip.host" showname="Source or Destination Host: 255.255.255.255" hide="yes" size="4" pos="34" show="255.255.255.255" value="ffffffff"/>
    <field name="" show="Source GeoIP: Unknown" size="4" pos="30" value="00000000"/>
    <field name="" show="Destination GeoIP: Unknown" size="4" pos="34" value="ffffffff"/>
  </proto>
  <proto name="udp" showname="User Datagram Protocol, Src Port: 68, Dst Port: 67" size="8" pos="38">
    <field name="udp.srcport" showname="Source Port: 68" size="2" pos="38" show="68" value="0044"/>
    <field name="udp.dstport" showname="Destination Port: 67" size="2" pos="40" show="67" value="0043"/>
    <field name="udp.port" showname="Source or Destination Port: 68" hide="yes" size="2" pos="38" show="68" value="0044"/>
    <field name="udp.port" showname="Source or Destination Port: 67" hide="yes" size="2" pos="40" show="67" value="0043"/>
    <field name="udp.length" showname="Length: 372" size="2" pos="42" show="372" value="0174"/>
    <field name="udp.checksum" showname="Checksum: 0xc8bc [unverified]" size="2" pos="44" show="0x0000c8bc" value="c8bc"/>
    <field name="udp.checksum.status" showname="Checksum Status: Unverified" size="0" pos="44" show="2"/>
    <field name="udp.stream" showname="Stream index: 0" size="0" pos="46" show="0"/>
  </proto>
  <proto name="DHCP" showname="DHCP Protocol (Request)" size="364" pos="46">
    <field name="DHCP.type" showname="Message type: Boot Request (1)" size="1" pos="46" show="1" value="01"/>
    <field name="DHCP.hw.type" showname="Hardware type: Ethernet (0x01)" size="1" pos="47" show="0x00000001" value="01"/>
    <field name="DHCP.hw.len" showname="Hardware address length: 6" size="1" pos="48" show="6" value="06"/>
    <field name="DHCP.hops" showname="Hops: 0" size="1" pos="49" show="0" value="00"/>
    <field name="DHCP.id" showname="Transaction ID: 0xb65f1f5a" size="4" pos="50" show="0xb65f1f5a" value="b65f1f5a"/>
    <field name="DHCP.secs" showname="Seconds elapsed: 0" size="2" pos="54" show="0" value="0000"/>
    <field name="DHCP.flags" showname="DHCP flags: 0x0000 (Unicast)" size="2" pos="56" show="0x00000000" value="0000">
      <field name="DHCP.flags.bc" showname="0... .... .... .... = Broadcast flag: Unicast" size="2" pos="56" show="0" value="0" unmaskedvalue="0000"/>
      <field name="DHCP.flags.reserved" showname=".000 0000 0000 0000 = Reserved flags: 0x0000" size="2" pos="56" show="0x00000000" value="0" unmaskedvalue="0000"/>
    </field>
    <field name="DHCP.ip.client" showname="Client IP address: 192.168.100.2" size="4" pos="58" show="192.168.100.2" value="c0a86402"/>
    <field name="DHCP.ip.your" showname="Your (client) IP address: 0.0.0.0" size="4" pos="62" show="0.0.0.0" value="00000000"/>
    <field name="DHCP.ip.server" showname="Next server IP address: 0.0.0.0" size="4" pos="66" show="0.0.0.0" value="00000000"/>
    <field name="DHCP.ip.relay" showname="Relay agent IP address: 0.0.0.0" size="4" pos="70" show="0.0.0.0" value="00000000"/>
    <field name="DHCP.hw.mac_addr" showname="Client MAC address: Private_66:68:00 (00:50:79:66:68:00)" size="6" pos="74" show="00:50:79:66:68:00" value="005079666800"/>
    <field name="DHCP.hw.addr_padding" showname="Client hardware address padding: 00000000000000000000" size="10" pos="80" show="00:00:00:00:00:00:00:00:00:00" value="00000000000000000000"/>
    <field name="DHCP.server" showname="Server host name not given" size="64" pos="90" show="" value="00000000000000000000000000000000000000000000000000000000000000000000000000000000000000000000000000000000000000000000000000000000"/>
    <field name="DHCP.file" showname="Boot file name not given" size="128" pos="154" show="" value="0000000000000000000000000000000000000000000000000000000000000000000000000000000000000000000000000000000000000000000000000000000000000000000000000000000000000000000000000000000000000000000000000000000000000000000000000000000000000000000000000000000000000000"/>
    <field name="DHCP.dhcp" showname="Frame is DHCP: True" hide="yes" size="0" pos="46" show="1"/>
    <field name="DHCP.cookie" showname="Magic cookie: DHCP" size="4" pos="282" show="99.130.83.99" value="63825363"/>
    <field name="DHCP.option.type" showname="Option: (53) DHCP Message Type (Request)" size="3" pos="286" show="53" value="350103">
      <field name="DHCP.option.length" showname="Length: 1" size="1" pos="287" show="1" value="01"/>
      <field name="DHCP.option.value" showname="Value: 03" hide="yes" size="1" pos="288" show="03" value="03"/>
      <field name="DHCP.option.dhcp" showname="DHCP: Request (3)" size="1" pos="288" show="3" value="03"/>
    </field>
    <field name="DHCP.option.type" showname="Option: (54) DHCP Server Identifier" size="6" pos="289" show="54" value="3604c0a86401">
      <field name="DHCP.option.length" showname="Length: 4" size="1" pos="290" show="4" value="04"/>
      <field name="DHCP.option.value" showname="Value: c0a86401" hide="yes" size="4" pos="291" show="c0:a8:64:01" value="c0a86401"/>
      <field name="DHCP.option.dhcp_server_id" showname="DHCP Server Identifier: 192.168.100.1" size="4" pos="291" show="192.168.100.1" value="c0a86401"/>
    </field>
    <field name="DHCP.option.type" showname="Option: (50) Requested IP Address" size="6" pos="295" show="50" value="3204c0a86402">
      <field name="DHCP.option.length" showname="Length: 4" size="1" pos="296" show="4" value="04"/>
      <field name="DHCP.option.value" showname="Value: c0a86402" hide="yes" size="4" pos="297" show="c0:a8:64:02" value="c0a86402"/>
      <field name="DHCP.option.requested_ip_address" showname="Requested IP Address: 192.168.100.2" size="4" pos="297" show="192.168.100.2" value="c0a86402"/>
    </field>
    <field name="DHCP.option.type" showname="Option: (61) Client identifier" size="9" pos="301" show="61" value="3d0701005079666800">
      <field name="DHCP.option.length" showname="Length: 7" size="1" pos="302" show="7" value="07"/>
      <field name="DHCP.option.value" showname="Value: 01005079666800" hide="yes" size="7" pos="303" show="01:00:50:79:66:68:00" value="01005079666800"/>
      <field name="DHCP.hw.type" showname="Hardware type: Ethernet (0x01)" size="1" pos="303" show="0x00000001" value="01"/>
      <field name="DHCP.hw.mac_addr" showname="Client MAC address: Private_66:68:00 (00:50:79:66:68:00)" size="6" pos="304" show="00:50:79:66:68:00" value="005079666800"/>
    </field>
    <field name="DHCP.option.type" showname="Option: (12) Host Name" size="9" pos="310" show="12" value="0c07565043532d3131">
      <field name="DHCP.option.length" showname="Length: 7" size="1" pos="311" show="7" value="07"/>
      <field name="DHCP.option.value" showname="Value: 565043532d3131" hide="yes" size="7" pos="312" show="56:50:43:53:2d:31:31" value="565043532d3131"/>
      <field name="DHCP.option.hostname" showname="Host Name: VPCS-11" size="7" pos="312" show="VPCS-11" value="565043532d3131"/>
    </field>
    <field name="DHCP.option.type" showname="Option: (55) Parameter Request List" size="6" pos="319" show="55" value="37040103060f">
      <field name="DHCP.option.length" showname="Length: 4" size="1" pos="320" show="4" value="04"/>
      <field name="DHCP.option.value" showname="Value: 0103060f" hide="yes" size="4" pos="321" show="01:03:06:0f" value="0103060f"/>
      <field name="DHCP.option.request_list_item" showname="Parameter Request List Item: (1) Subnet Mask" size="1" pos="321" show="1" value="01"/>
      <field name="DHCP.option.request_list_item" showname="Parameter Request List Item: (3) Router" size="1" pos="322" show="3" value="03"/>
      <field name="DHCP.option.request_list_item" showname="Parameter Request List Item: (6) Domain Name Server" size="1" pos="323" show="6" value="06"/>
      <field name="DHCP.option.request_list_item" showname="Parameter Request List Item: (15) Domain Name" size="1" pos="324" show="15" value="0f"/>
    </field>
    <field name="DHCP.option.type" showname="Option: (255) End" size="1" pos="325" show="0" value="ff">
      <field name="DHCP.option.end" showname="Option End: 255" size="1" pos="325" show="255" value="ff"/>
    </field>
    <field name="DHCP.option.padding" showname="Padding: 000000000000000000000000000000000000000000000000..." size="84" pos="326" show="00:00:00:00:00:00:00:00:00:00:00:00:00:00:00:00:00:00:00:00:00:00:00:00:00:00:00:00:00:00:00:00:00:00:00:00:00:00:00:00:00:00:00:00:00:00:00:00:00:00:00:00:00:00:00:00:00:00:00:00:00:00:00:00:00:00:00:00:00:00:00:00:00:00:00:00:00:00:00:00:00:00:00:00" value="000000000000000000000000000000000000000000000000000000000000000000000000000000000000000000000000000000000000000000000000000000000000000000000000000000000000000000000000"/>
  </proto>
</packet>

<packet>
  <proto name="geninfo" pos="0" showname="General information" size="346">
    <field name="num" pos="0" show="223" showname="Number" value="df" size="346"/>
    <field name="len" pos="0" show="346" showname="Frame Length" value="15a" size="346"/>
    <field name="caplen" pos="0" show="346" showname="Captured Length" value="15a" size="346"/>
    <field name="timestamp" pos="0" show="Jan 29, 2020 04:32:47.507186000 India Standard Time" showname="Captured Time" value="1580252567.507186000" size="346"/>
  </proto>
  <proto name="frame" showname="Frame 223: 346 bytes on wire (2768 bits), 346 bytes captured (2768 bits) on interface 0" size="346" pos="0">
    <field name="frame.interface_id" showname="Interface id: 0 (-)" size="0" pos="0" show="0"/>
    <field name="frame.encap_type" showname="Encapsulation type: Ethernet (1)" size="0" pos="0" show="1"/>
    <field name="frame.time" showname="Arrival Time: Jan 29, 2020 04:32:47.507186000 India Standard Time" size="0" pos="0" show="Jan 29, 2020 04:32:47.507186000 India Standard Time"/>
    <field name="frame.offset_shift" showname="Time shift for this packet: 0.000000000 seconds" size="0" pos="0" show="0.000000000"/>
    <field name="frame.time_epoch" showname="Epoch Time: 1580252567.507186000 seconds" size="0" pos="0" show="1580252567.507186000"/>
    <field name="frame.time_delta" showname="Time delta from previous captured frame: 0.000774000 seconds" size="0" pos="0" show="0.000774000"/>
    <field name="frame.time_delta_displayed" showname="Time delta from previous displayed frame: 0.000774000 seconds" size="0" pos="0" show="0.000774000"/>
    <field name="frame.time_relative" showname="Time since reference or first frame: 96.105850000 seconds" size="0" pos="0" show="96.105850000"/>
    <field name="frame.number" showname="Frame Number: 223" size="0" pos="0" show="223"/>
    <field name="frame.len" showname="Frame Length: 346 bytes (2768 bits)" size="0" pos="0" show="346"/>
    <field name="frame.cap_len" showname="Capture Length: 346 bytes (2768 bits)" size="0" pos="0" show="346"/>
    <field name="frame.marked" showname="Frame is marked: False" size="0" pos="0" show="0"/>
    <field name="frame.ignored" showname="Frame is ignored: False" size="0" pos="0" show="0"/>
    <field name="frame.protocols" showname="Protocols in frame: eth:ethertype:vlan:ethertype:ip:udp:DHCP" size="0" pos="0" show="eth:ethertype:vlan:ethertype:ip:udp:DHCP"/>
    <field name="frame.coloring_rule.name" showname="Coloring Rule Name: UDP" size="0" pos="0" show="UDP"/>
    <field name="frame.coloring_rule.string" showname="Coloring Rule String: udp" size="0" pos="0" show="udp"/>
  </proto>
  <proto name="eth" showname="Ethernet II, Src: aa:bb:cc:00:01:00 (aa:bb:cc:00:01:00), Dst: Private_66:68:00 (00:50:79:66:68:00)" size="14" pos="0">
    <field name="eth.dst" showname="Destination: Private_66:68:00 (00:50:79:66:68:00)" size="6" pos="0" show="00:50:79:66:68:00" value="005079666800">
      <field name="eth.dst_resolved" showname="Destination (resolved): Private_66:68:00" hide="yes" size="6" pos="0" show="Private_66:68:00" value="005079666800"/>
      <field name="eth.addr" showname="Address: Private_66:68:00 (00:50:79:66:68:00)" size="6" pos="0" show="00:50:79:66:68:00" value="005079666800"/>
      <field name="eth.addr_resolved" showname="Address (resolved): Private_66:68:00" hide="yes" size="6" pos="0" show="Private_66:68:00" value="005079666800"/>
      <field name="eth.lg" showname=".... ..0. .... .... .... .... = LG bit: Globally unique address (factory default)" size="3" pos="0" show="0" value="0" unmaskedvalue="005079"/>
      <field name="eth.ig" showname=".... ...0 .... .... .... .... = IG bit: Individual address (unicast)" size="3" pos="0" show="0" value="0" unmaskedvalue="005079"/>
    </field>
    <field name="eth.src" showname="Source: aa:bb:cc:00:01:00 (aa:bb:cc:00:01:00)" size="6" pos="6" show="aa:bb:cc:00:01:00" value="aabbcc000100">
      <field name="eth.src_resolved" showname="Source (resolved): aa:bb:cc:00:01:00" hide="yes" size="6" pos="6" show="aa:bb:cc:00:01:00" value="aabbcc000100"/>
      <field name="eth.addr" showname="Address: aa:bb:cc:00:01:00 (aa:bb:cc:00:01:00)" size="6" pos="6" show="aa:bb:cc:00:01:00" value="aabbcc000100"/>
      <field name="eth.addr_resolved" showname="Address (resolved): aa:bb:cc:00:01:00" hide="yes" size="6" pos="6" show="aa:bb:cc:00:01:00" value="aabbcc000100"/>
      <field name="eth.lg" showname=".... ..1. .... .... .... .... = LG bit: Locally administered address (this is NOT the factory default)" size="3" pos="6" show="1" value="1" unmaskedvalue="aabbcc"/>
      <field name="eth.ig" showname=".... ...0 .... .... .... .... = IG bit: Individual address (unicast)" size="3" pos="6" show="0" value="0" unmaskedvalue="aabbcc"/>
    </field>
    <field name="eth.type" showname="Type: 802.1Q Virtual LAN (0x8100)" size="2" pos="12" show="0x00008100" value="8100"/>
  </proto>
  <proto name="vlan" showname="802.1Q Virtual LAN, PRI: 0, CFI: 0, ID: 100" size="4" pos="14">
    <field name="vlan.priority" showname="000. .... .... .... = Priority: Best Effort (default) (0)" size="2" pos="14" show="0" value="0" unmaskedvalue="0064"/>
    <field name="vlan.cfi" showname="...0 .... .... .... = CFI: Canonical (0)" size="2" pos="14" show="0" value="0" unmaskedvalue="0064"/>
    <field name="vlan.id" showname=".... 0000 0110 0100 = ID: 100" size="2" pos="14" show="100" value="64" unmaskedvalue="0064"/>
    <field name="vlan.etype" showname="Type: IPv4 (0x0800)" size="2" pos="16" show="0x00000800" value="0800"/>
  </proto>
  <proto name="ip" showname="Internet Protocol Version 4, Src: 192.168.100.1, Dst: 192.168.100.2" size="20" pos="18">
    <field name="ip.version" showname="0100 .... = Version: 4" size="1" pos="18" show="4" value="4" unmaskedvalue="45"/>
    <field name="ip.hdr_len" showname=".... 0101 = Header Length: 20 bytes (5)" size="1" pos="18" show="20" value="45"/>
    <field name="ip.dsfield" showname="Differentiated Services Field: 0x00 (DSCP: CS0, ECN: Not-ECT)" size="1" pos="19" show="0x00000000" value="00">
      <field name="ip.dsfield.dscp" showname="0000 00.. = Differentiated Services Codepoint: Default (0)" size="1" pos="19" show="0" value="0" unmaskedvalue="00"/>
      <field name="ip.dsfield.ecn" showname=".... ..00 = Explicit Congestion Notification: Not ECN-Capable Transport (0)" size="1" pos="19" show="0" value="0" unmaskedvalue="00"/>
    </field>
    <field name="ip.len" showname="Total Length: 328" size="2" pos="20" show="328" value="0148"/>
    <field name="ip.id" showname="Identification: 0x0001 (1)" size="2" pos="22" show="0x00000001" value="0001"/>
    <field name="ip.flags" showname="Flags: 0x00" size="1" pos="24" show="0x00000000" value="00">
      <field name="ip.flags.rb" showname="0... .... = Reserved bit: Not set" size="1" pos="24" show="0" value="00"/>
      <field name="ip.flags.df" showname=".0.. .... = Don&#x27;t fragment: Not set" size="1" pos="24" show="0" value="00"/>
      <field name="ip.flags.mf" showname="..0. .... = More fragments: Not set" size="1" pos="24" show="0" value="00"/>
    </field>
    <field name="ip.frag_offset" showname="Fragment offset: 0" size="2" pos="24" show="0" value="0000"/>
    <field name="ip.ttl" showname="Time to live: 255" size="1" pos="26" show="255" value="ff"/>
    <field name="ip.proto" showname="Protocol: UDP (17)" size="1" pos="27" show="17" value="11"/>
    <field name="ip.checksum" showname="Header checksum: 0x714f [validation disabled]" size="2" pos="28" show="0x0000714f" value="714f"/>
    <field name="ip.checksum.status" showname="Header checksum status: Unverified" size="0" pos="28" show="2"/>
    <field name="ip.src" showname="Source: 192.168.100.1" size="4" pos="30" show="192.168.100.1" value="c0a86401"/>
    <field name="ip.addr" showname="Source or Destination Address: 192.168.100.1" hide="yes" size="4" pos="30" show="192.168.100.1" value="c0a86401"/>
    <field name="ip.src_host" showname="Source Host: 192.168.100.1" hide="yes" size="4" pos="30" show="192.168.100.1" value="c0a86401"/>
    <field name="ip.host" showname="Source or Destination Host: 192.168.100.1" hide="yes" size="4" pos="30" show="192.168.100.1" value="c0a86401"/>
    <field name="ip.dst" showname="Destination: 192.168.100.2" size="4" pos="34" show="192.168.100.2" value="c0a86402"/>
    <field name="ip.addr" showname="Source or Destination Address: 192.168.100.2" hide="yes" size="4" pos="34" show="192.168.100.2" value="c0a86402"/>
    <field name="ip.dst_host" showname="Destination Host: 192.168.100.2" hide="yes" size="4" pos="34" show="192.168.100.2" value="c0a86402"/>
    <field name="ip.host" showname="Source or Destination Host: 192.168.100.2" hide="yes" size="4" pos="34" show="192.168.100.2" value="c0a86402"/>
    <field name="" show="Source GeoIP: Unknown" size="4" pos="30" value="c0a86401"/>
    <field name="" show="Destination GeoIP: Unknown" size="4" pos="34" value="c0a86402"/>
  </proto>
  <proto name="udp" showname="User Datagram Protocol, Src Port: 67, Dst Port: 68" size="8" pos="38">
    <field name="udp.srcport" showname="Source Port: 67" size="2" pos="38" show="67" value="0043"/>
    <field name="udp.dstport" showname="Destination Port: 68" size="2" pos="40" show="68" value="0044"/>
    <field name="udp.port" showname="Source or Destination Port: 67" hide="yes" size="2" pos="38" show="67" value="0043"/>
    <field name="udp.port" showname="Source or Destination Port: 68" hide="yes" size="2" pos="40" show="68" value="0044"/>
    <field name="udp.length" showname="Length: 308" size="2" pos="42" show="308" value="0134"/>
    <field name="udp.checksum" showname="Checksum: 0xafa4 [unverified]" size="2" pos="44" show="0x0000afa4" value="afa4"/>
    <field name="udp.checksum.status" showname="Checksum Status: Unverified" size="0" pos="44" show="2"/>
    <field name="udp.stream" showname="Stream index: 1" size="0" pos="46" show="1"/>
  </proto>
  <proto name="DHCP" showname="DHCP Protocol (ACK)" size="300" pos="46">
    <field name="DHCP.type" showname="Message type: Boot Reply (2)" size="1" pos="46" show="2" value="02"/>
    <field name="DHCP.hw.type" showname="Hardware type: Ethernet (0x01)" size="1" pos="47" show="0x00000001" value="01"/>
    <field name="DHCP.hw.len" showname="Hardware address length: 6" size="1" pos="48" show="6" value="06"/>
    <field name="DHCP.hops" showname="Hops: 0" size="1" pos="49" show="0" value="00"/>
    <field name="DHCP.id" showname="Transaction ID: 0xb65f1f5a" size="4" pos="50" show="0xb65f1f5a" value="b65f1f5a"/>
    <field name="DHCP.secs" showname="Seconds elapsed: 0" size="2" pos="54" show="0" value="0000"/>
    <field name="DHCP.flags" showname="DHCP flags: 0x0000 (Unicast)" size="2" pos="56" show="0x00000000" value="0000">
      <field name="DHCP.flags.bc" showname="0... .... .... .... = Broadcast flag: Unicast" size="2" pos="56" show="0" value="0" unmaskedvalue="0000"/>
      <field name="DHCP.flags.reserved" showname=".000 0000 0000 0000 = Reserved flags: 0x0000" size="2" pos="56" show="0x00000000" value="0" unmaskedvalue="0000"/>
    </field>
    <field name="DHCP.ip.client" showname="Client IP address: 192.168.100.2" size="4" pos="58" show="192.168.100.2" value="c0a86402"/>
    <field name="DHCP.ip.your" showname="Your (client) IP address: 192.168.100.2" size="4" pos="62" show="192.168.100.2" value="c0a86402"/>
    <field name="DHCP.ip.server" showname="Next server IP address: 0.0.0.0" size="4" pos="66" show="0.0.0.0" value="00000000"/>
    <field name="DHCP.ip.relay" showname="Relay agent IP address: 0.0.0.0" size="4" pos="70" show="0.0.0.0" value="00000000"/>
    <field name="DHCP.hw.mac_addr" showname="Client MAC address: Private_66:68:00 (00:50:79:66:68:00)" size="6" pos="74" show="00:50:79:66:68:00" value="005079666800"/>
    <field name="DHCP.hw.addr_padding" showname="Client hardware address padding: 00000000000000000000" size="10" pos="80" show="00:00:00:00:00:00:00:00:00:00" value="00000000000000000000"/>
    <field name="DHCP.server" showname="Server host name not given" size="64" pos="90" show="" value="00000000000000000000000000000000000000000000000000000000000000000000000000000000000000000000000000000000000000000000000000000000"/>
    <field name="DHCP.file" showname="Boot file name not given" size="128" pos="154" show="" value="0000000000000000000000000000000000000000000000000000000000000000000000000000000000000000000000000000000000000000000000000000000000000000000000000000000000000000000000000000000000000000000000000000000000000000000000000000000000000000000000000000000000000000"/>
    <field name="DHCP.dhcp" showname="Frame is DHCP: True" hide="yes" size="0" pos="46" show="1"/>
    <field name="DHCP.cookie" showname="Magic cookie: DHCP" size="4" pos="282" show="99.130.83.99" value="63825363"/>
    <field name="DHCP.option.type" showname="Option: (53) DHCP Message Type (ACK)" size="3" pos="286" show="53" value="350105">
      <field name="DHCP.option.length" showname="Length: 1" size="1" pos="287" show="1" value="01"/>
      <field name="DHCP.option.value" showname="Value: 05" hide="yes" size="1" pos="288" show="05" value="05"/>
      <field name="DHCP.option.dhcp" showname="DHCP: ACK (5)" size="1" pos="288" show="5" value="05"/>
    </field>
    <field name="DHCP.option.type" showname="Option: (54) DHCP Server Identifier" size="6" pos="289" show="54" value="3604c0a86401">
      <field name="DHCP.option.length" showname="Length: 4" size="1" pos="290" show="4" value="04"/>
      <field name="DHCP.option.value" showname="Value: c0a86401" hide="yes" size="4" pos="291" show="c0:a8:64:01" value="c0a86401"/>
      <field name="DHCP.option.dhcp_server_id" showname="DHCP Server Identifier: 192.168.100.1" size="4" pos="291" show="192.168.100.1" value="c0a86401"/>
    </field>
    <field name="DHCP.option.type" showname="Option: (51) IP Address Lease Time" size="6" pos="295" show="51" value="330400015180">
      <field name="DHCP.option.length" showname="Length: 4" size="1" pos="296" show="4" value="04"/>
      <field name="DHCP.option.value" showname="Value: 00015180" hide="yes" size="4" pos="297" show="00:01:51:80" value="00015180"/>
      <field name="DHCP.option.ip_address_lease_time" showname="IP Address Lease Time: (86400s) 1 day" size="4" pos="297" show="86400" value="00015180"/>
    </field>
    <field name="DHCP.option.type" showname="Option: (58) Renewal Time Value" size="6" pos="301" show="58" value="3a040000a8c0">
      <field name="DHCP.option.length" showname="Length: 4" size="1" pos="302" show="4" value="04"/>
      <field name="DHCP.option.value" showname="Value: 0000a8c0" hide="yes" size="4" pos="303" show="00:00:a8:c0" value="0000a8c0"/>
      <field name="DHCP.option.renewal_time_value" showname="Renewal Time Value: (43200s) 12 hours" size="4" pos="303" show="43200" value="0000a8c0"/>
    </field>
    <field name="DHCP.option.type" showname="Option: (59) Rebinding Time Value" size="6" pos="307" show="59" value="3b0400012750">
      <field name="DHCP.option.length" showname="Length: 4" size="1" pos="308" show="4" value="04"/>
      <field name="DHCP.option.value" showname="Value: 00012750" hide="yes" size="4" pos="309" show="00:01:27:50" value="00012750"/>
      <field name="DHCP.option.rebinding_time_value" showname="Rebinding Time Value: (75600s) 21 hours" size="4" pos="309" show="75600" value="00012750"/>
    </field>
    <field name="DHCP.option.type" showname="Option: (1) Subnet Mask" size="6" pos="313" show="1" value="0104ffffff00">
      <field name="DHCP.option.length" showname="Length: 4" size="1" pos="314" show="4" value="04"/>
      <field name="DHCP.option.value" showname="Value: ffffff00" hide="yes" size="4" pos="315" show="ff:ff:ff:00" value="ffffff00"/>
      <field name="DHCP.option.subnet_mask" showname="Subnet Mask: 255.255.255.0" size="4" pos="315" show="255.255.255.0" value="ffffff00"/>
    </field>
    <field name="DHCP.option.type" showname="Option: (6) Domain Name Server" size="6" pos="319" show="6" value="060404020202">
      <field name="DHCP.option.length" showname="Length: 4" size="1" pos="320" show="4" value="04"/>
      <field name="DHCP.option.value" showname="Value: 04020202" hide="yes" size="4" pos="321" show="04:02:02:02" value="04020202"/>
      <field name="DHCP.option.domain_name_server" showname="Domain Name Server: 4.2.2.2" size="4" pos="321" show="4.2.2.2" value="04020202"/>
    </field>
    <field name="DHCP.option.type" showname="Option: (3) Router" size="6" pos="325" show="3" value="0304c0a86401">
      <field name="DHCP.option.length" showname="Length: 4" size="1" pos="326" show="4" value="04"/>
      <field name="DHCP.option.value" showname="Value: c0a86401" hide="yes" size="4" pos="327" show="c0:a8:64:01" value="c0a86401"/>
      <field name="DHCP.option.router" showname="Router: 192.168.100.1" size="4" pos="327" show="192.168.100.1" value="c0a86401"/>
    </field>
    <field name="DHCP.option.type" showname="Option: (255) End" size="1" pos="331" show="0" value="ff">
      <field name="DHCP.option.end" showname="Option End: 255" size="1" pos="331" show="255" value="ff"/>
    </field>
    <field name="DHCP.option.padding" showname="Padding: 0000000000000000000000000000" size="14" pos="332" show="00:00:00:00:00:00:00:00:00:00:00:00:00:00" value="0000000000000000000000000000"/>
  </proto>
</packet>

<packet>
  <proto name="geninfo" pos="0" showname="General information" size="68">
    <field name="num" pos="0" show="228" showname="Number" value="e4" size="68"/>
    <field name="len" pos="0" show="68" showname="Frame Length" value="44" size="68"/>
    <field name="caplen" pos="0" show="68" showname="Captured Length" value="44" size="68"/>
    <field name="timestamp" pos="0" show="Jan 29, 2020 04:32:48.507360000 India Standard Time" showname="Captured Time" value="1580252568.507360000" size="68"/>
  </proto>
  <proto name="frame" showname="Frame 228: 68 bytes on wire (544 bits), 68 bytes captured (544 bits) on interface 0" size="68" pos="0">
    <field name="frame.interface_id" showname="Interface id: 0 (-)" size="0" pos="0" show="0"/>
    <field name="frame.encap_type" showname="Encapsulation type: Ethernet (1)" size="0" pos="0" show="1"/>
    <field name="frame.time" showname="Arrival Time: Jan 29, 2020 04:32:48.507360000 India Standard Time" size="0" pos="0" show="Jan 29, 2020 04:32:48.507360000 India Standard Time"/>
    <field name="frame.offset_shift" showname="Time shift for this packet: 0.000000000 seconds" size="0" pos="0" show="0.000000000"/>
    <field name="frame.time_epoch" showname="Epoch Time: 1580252568.507360000 seconds" size="0" pos="0" show="1580252568.507360000"/>
    <field name="frame.time_delta" showname="Time delta from previous captured frame: 0.695890000 seconds" size="0" pos="0" show="0.695890000"/>
    <field name="frame.time_delta_displayed" showname="Time delta from previous displayed frame: 1.000174000 seconds" size="0" pos="0" show="1.000174000"/>
    <field name="frame.time_relative" showname="Time since reference or first frame: 97.106024000 seconds" size="0" pos="0" show="97.106024000"/>
    <field name="frame.number" showname="Frame Number: 228" size="0" pos="0" show="228"/>
    <field name="frame.len" showname="Frame Length: 68 bytes (544 bits)" size="0" pos="0" show="68"/>
    <field name="frame.cap_len" showname="Capture Length: 68 bytes (544 bits)" size="0" pos="0" show="68"/>
    <field name="frame.marked" showname="Frame is marked: False" size="0" pos="0" show="0"/>
    <field name="frame.ignored" showname="Frame is ignored: False" size="0" pos="0" show="0"/>
    <field name="frame.protocols" showname="Protocols in frame: eth:ethertype:vlan:ethertype:arp" size="0" pos="0" show="eth:ethertype:vlan:ethertype:arp"/>
    <field name="frame.coloring_rule.name" showname="Coloring Rule Name: ARP" size="0" pos="0" show="ARP"/>
    <field name="frame.coloring_rule.string" showname="Coloring Rule String: arp" size="0" pos="0" show="arp"/>
  </proto>
  <proto name="eth" showname="Ethernet II, Src: Private_66:68:00 (00:50:79:66:68:00), Dst: Broadcast (ff:ff:ff:ff:ff:ff)" size="14" pos="0">
    <field name="eth.dst" showname="Destination: Broadcast (ff:ff:ff:ff:ff:ff)" size="6" pos="0" show="ff:ff:ff:ff:ff:ff" value="ffffffffffff">
      <field name="eth.dst_resolved" showname="Destination (resolved): Broadcast" hide="yes" size="6" pos="0" show="Broadcast" value="ffffffffffff"/>
      <field name="eth.addr" showname="Address: Broadcast (ff:ff:ff:ff:ff:ff)" size="6" pos="0" show="ff:ff:ff:ff:ff:ff" value="ffffffffffff"/>
      <field name="eth.addr_resolved" showname="Address (resolved): Broadcast" hide="yes" size="6" pos="0" show="Broadcast" value="ffffffffffff"/>
      <field name="eth.lg" showname=".... ..1. .... .... .... .... = LG bit: Locally administered address (this is NOT the factory default)" size="3" pos="0" show="1" value="1" unmaskedvalue="ffffff"/>
      <field name="eth.ig" showname=".... ...1 .... .... .... .... = IG bit: Group address (multicast/broadcast)" size="3" pos="0" show="1" value="1" unmaskedvalue="ffffff"/>
    </field>
    <field name="eth.src" showname="Source: Private_66:68:00 (00:50:79:66:68:00)" size="6" pos="6" show="00:50:79:66:68:00" value="005079666800">
      <field name="eth.src_resolved" showname="Source (resolved): Private_66:68:00" hide="yes" size="6" pos="6" show="Private_66:68:00" value="005079666800"/>
      <field name="eth.addr" showname="Address: Private_66:68:00 (00:50:79:66:68:00)" size="6" pos="6" show="00:50:79:66:68:00" value="005079666800"/>
      <field name="eth.addr_resolved" showname="Address (resolved): Private_66:68:00" hide="yes" size="6" pos="6" show="Private_66:68:00" value="005079666800"/>
      <field name="eth.lg" showname=".... ..0. .... .... .... .... = LG bit: Globally unique address (factory default)" size="3" pos="6" show="0" value="0" unmaskedvalue="005079"/>
      <field name="eth.ig" showname=".... ...0 .... .... .... .... = IG bit: Individual address (unicast)" size="3" pos="6" show="0" value="0" unmaskedvalue="005079"/>
    </field>
    <field name="eth.type" showname="Type: 802.1Q Virtual LAN (0x8100)" size="2" pos="12" show="0x00008100" value="8100"/>
  </proto>
  <proto name="vlan" showname="802.1Q Virtual LAN, PRI: 0, CFI: 0, ID: 100" size="4" pos="14">
    <field name="vlan.priority" showname="000. .... .... .... = Priority: Best Effort (default) (0)" size="2" pos="14" show="0" value="0" unmaskedvalue="0064"/>
    <field name="vlan.cfi" showname="...0 .... .... .... = CFI: Canonical (0)" size="2" pos="14" show="0" value="0" unmaskedvalue="0064"/>
    <field name="vlan.id" showname=".... 0000 0110 0100 = ID: 100" size="2" pos="14" show="100" value="64" unmaskedvalue="0064"/>
    <field name="vlan.etype" showname="Type: ARP (0x0806)" size="2" pos="16" show="0x00000806" value="0806"/>
    <field name="eth.padding" showname="Padding: 0000000000000000000000000000" size="14" pos="46" show="00:00:00:00:00:00:00:00:00:00:00:00:00:00" value="0000000000000000000000000000"/>
    <field name="vlan.trailer" showname="Trailer: 0000000000000000" size="8" pos="60" show="00:00:00:00:00:00:00:00" value="0000000000000000"/>
  </proto>
  <proto name="arp" showname="Address Resolution Protocol (request/gratuitous ARP)" size="28" pos="18">
    <field name="arp.hw.type" showname="Hardware type: Ethernet (1)" size="2" pos="18" show="1" value="0001"/>
    <field name="arp.proto.type" showname="Protocol type: IPv4 (0x0800)" size="2" pos="20" show="0x00000800" value="0800"/>
    <field name="arp.hw.size" showname="Hardware size: 6" size="1" pos="22" show="6" value="06"/>
    <field name="arp.proto.size" showname="Protocol size: 4" size="1" pos="23" show="4" value="04"/>
    <field name="arp.opcode" showname="Opcode: request (1)" size="2" pos="24" show="1" value="0001"/>
    <field name="arp.isgratuitous" showname="Is gratuitous: True" size="0" pos="18" show="1"/>
    <field name="arp.src.hw_mac" showname="Sender MAC address: Private_66:68:00 (00:50:79:66:68:00)" size="6" pos="26" show="00:50:79:66:68:00" value="005079666800"/>
    <field name="arp.src.proto_ipv4" showname="Sender IP address: 192.168.100.2" size="4" pos="32" show="192.168.100.2" value="c0a86402"/>
    <field name="arp.dst.hw_mac" showname="Target MAC address: Broadcast (ff:ff:ff:ff:ff:ff)" size="6" pos="36" show="ff:ff:ff:ff:ff:ff" value="ffffffffffff"/>
    <field name="arp.dst.proto_ipv4" showname="Target IP address: 192.168.100.2" size="4" pos="42" show="192.168.100.2" value="c0a86402"/>
  </proto>
</packet>

<packet>
  <proto name="geninfo" pos="0" showname="General information" size="68">
    <field name="num" pos="0" show="229" showname="Number" value="e5" size="68"/>
    <field name="len" pos="0" show="68" showname="Frame Length" value="44" size="68"/>
    <field name="caplen" pos="0" show="68" showname="Captured Length" value="44" size="68"/>
    <field name="timestamp" pos="0" show="Jan 29, 2020 04:32:49.508738000 India Standard Time" showname="Captured Time" value="1580252569.508738000" size="68"/>
  </proto>
  <proto name="frame" showname="Frame 229: 68 bytes on wire (544 bits), 68 bytes captured (544 bits) on interface 0" size="68" pos="0">
    <field name="frame.interface_id" showname="Interface id: 0 (-)" size="0" pos="0" show="0"/>
    <field name="frame.encap_type" showname="Encapsulation type: Ethernet (1)" size="0" pos="0" show="1"/>
    <field name="frame.time" showname="Arrival Time: Jan 29, 2020 04:32:49.508738000 India Standard Time" size="0" pos="0" show="Jan 29, 2020 04:32:49.508738000 India Standard Time"/>
    <field name="frame.offset_shift" showname="Time shift for this packet: 0.000000000 seconds" size="0" pos="0" show="0.000000000"/>
    <field name="frame.time_epoch" showname="Epoch Time: 1580252569.508738000 seconds" size="0" pos="0" show="1580252569.508738000"/>
    <field name="frame.time_delta" showname="Time delta from previous captured frame: 1.001378000 seconds" size="0" pos="0" show="1.001378000"/>
    <field name="frame.time_delta_displayed" showname="Time delta from previous displayed frame: 1.001378000 seconds" size="0" pos="0" show="1.001378000"/>
    <field name="frame.time_relative" showname="Time since reference or first frame: 98.107402000 seconds" size="0" pos="0" show="98.107402000"/>
    <field name="frame.number" showname="Frame Number: 229" size="0" pos="0" show="229"/>
    <field name="frame.len" showname="Frame Length: 68 bytes (544 bits)" size="0" pos="0" show="68"/>
    <field name="frame.cap_len" showname="Capture Length: 68 bytes (544 bits)" size="0" pos="0" show="68"/>
    <field name="frame.marked" showname="Frame is marked: False" size="0" pos="0" show="0"/>
    <field name="frame.ignored" showname="Frame is ignored: False" size="0" pos="0" show="0"/>
    <field name="frame.protocols" showname="Protocols in frame: eth:ethertype:vlan:ethertype:arp" size="0" pos="0" show="eth:ethertype:vlan:ethertype:arp"/>
    <field name="frame.coloring_rule.name" showname="Coloring Rule Name: ARP" size="0" pos="0" show="ARP"/>
    <field name="frame.coloring_rule.string" showname="Coloring Rule String: arp" size="0" pos="0" show="arp"/>
  </proto>
  <proto name="eth" showname="Ethernet II, Src: Private_66:68:00 (00:50:79:66:68:00), Dst: Broadcast (ff:ff:ff:ff:ff:ff)" size="14" pos="0">
    <field name="eth.dst" showname="Destination: Broadcast (ff:ff:ff:ff:ff:ff)" size="6" pos="0" show="ff:ff:ff:ff:ff:ff" value="ffffffffffff">
      <field name="eth.dst_resolved" showname="Destination (resolved): Broadcast" hide="yes" size="6" pos="0" show="Broadcast" value="ffffffffffff"/>
      <field name="eth.addr" showname="Address: Broadcast (ff:ff:ff:ff:ff:ff)" size="6" pos="0" show="ff:ff:ff:ff:ff:ff" value="ffffffffffff"/>
      <field name="eth.addr_resolved" showname="Address (resolved): Broadcast" hide="yes" size="6" pos="0" show="Broadcast" value="ffffffffffff"/>
      <field name="eth.lg" showname=".... ..1. .... .... .... .... = LG bit: Locally administered address (this is NOT the factory default)" size="3" pos="0" show="1" value="1" unmaskedvalue="ffffff"/>
      <field name="eth.ig" showname=".... ...1 .... .... .... .... = IG bit: Group address (multicast/broadcast)" size="3" pos="0" show="1" value="1" unmaskedvalue="ffffff"/>
    </field>
    <field name="eth.src" showname="Source: Private_66:68:00 (00:50:79:66:68:00)" size="6" pos="6" show="00:50:79:66:68:00" value="005079666800">
      <field name="eth.src_resolved" showname="Source (resolved): Private_66:68:00" hide="yes" size="6" pos="6" show="Private_66:68:00" value="005079666800"/>
      <field name="eth.addr" showname="Address: Private_66:68:00 (00:50:79:66:68:00)" size="6" pos="6" show="00:50:79:66:68:00" value="005079666800"/>
      <field name="eth.addr_resolved" showname="Address (resolved): Private_66:68:00" hide="yes" size="6" pos="6" show="Private_66:68:00" value="005079666800"/>
      <field name="eth.lg" showname=".... ..0. .... .... .... .... = LG bit: Globally unique address (factory default)" size="3" pos="6" show="0" value="0" unmaskedvalue="005079"/>
      <field name="eth.ig" showname=".... ...0 .... .... .... .... = IG bit: Individual address (unicast)" size="3" pos="6" show="0" value="0" unmaskedvalue="005079"/>
    </field>
    <field name="eth.type" showname="Type: 802.1Q Virtual LAN (0x8100)" size="2" pos="12" show="0x00008100" value="8100"/>
  </proto>
  <proto name="vlan" showname="802.1Q Virtual LAN, PRI: 0, CFI: 0, ID: 100" size="4" pos="14">
    <field name="vlan.priority" showname="000. .... .... .... = Priority: Best Effort (default) (0)" size="2" pos="14" show="0" value="0" unmaskedvalue="0064"/>
    <field name="vlan.cfi" showname="...0 .... .... .... = CFI: Canonical (0)" size="2" pos="14" show="0" value="0" unmaskedvalue="0064"/>
    <field name="vlan.id" showname=".... 0000 0110 0100 = ID: 100" size="2" pos="14" show="100" value="64" unmaskedvalue="0064"/>
    <field name="vlan.etype" showname="Type: ARP (0x0806)" size="2" pos="16" show="0x00000806" value="0806"/>
    <field name="eth.padding" showname="Padding: 0000000000000000000000000000" size="14" pos="46" show="00:00:00:00:00:00:00:00:00:00:00:00:00:00" value="0000000000000000000000000000"/>
    <field name="vlan.trailer" showname="Trailer: 0000000000000000" size="8" pos="60" show="00:00:00:00:00:00:00:00" value="0000000000000000"/>
  </proto>
  <proto name="arp" showname="Address Resolution Protocol (request/gratuitous ARP)" size="28" pos="18">
    <field name="arp.hw.type" showname="Hardware type: Ethernet (1)" size="2" pos="18" show="1" value="0001"/>
    <field name="arp.proto.type" showname="Protocol type: IPv4 (0x0800)" size="2" pos="20" show="0x00000800" value="0800"/>
    <field name="arp.hw.size" showname="Hardware size: 6" size="1" pos="22" show="6" value="06"/>
    <field name="arp.proto.size" showname="Protocol size: 4" size="1" pos="23" show="4" value="04"/>
    <field name="arp.opcode" showname="Opcode: request (1)" size="2" pos="24" show="1" value="0001"/>
    <field name="arp.isgratuitous" showname="Is gratuitous: True" size="0" pos="18" show="1"/>
    <field name="arp.src.hw_mac" showname="Sender MAC address: Private_66:68:00 (00:50:79:66:68:00)" size="6" pos="26" show="00:50:79:66:68:00" value="005079666800"/>
    <field name="arp.src.proto_ipv4" showname="Sender IP address: 192.168.100.2" size="4" pos="32" show="192.168.100.2" value="c0a86402"/>
    <field name="arp.dst.hw_mac" showname="Target MAC address: Broadcast (ff:ff:ff:ff:ff:ff)" size="6" pos="36" show="ff:ff:ff:ff:ff:ff" value="ffffffffffff"/>
    <field name="arp.dst.proto_ipv4" showname="Target IP address: 192.168.100.2" size="4" pos="42" show="192.168.100.2" value="c0a86402"/>
  </proto>
</packet>

<packet>
  <proto name="geninfo" pos="0" showname="General information" size="68">
    <field name="num" pos="0" show="234" showname="Number" value="ea" size="68"/>
    <field name="len" pos="0" show="68" showname="Frame Length" value="44" size="68"/>
    <field name="caplen" pos="0" show="68" showname="Captured Length" value="44" size="68"/>
    <field name="timestamp" pos="0" show="Jan 29, 2020 04:32:50.510053000 India Standard Time" showname="Captured Time" value="1580252570.510053000" size="68"/>
  </proto>
  <proto name="frame" showname="Frame 234: 68 bytes on wire (544 bits), 68 bytes captured (544 bits) on interface 0" size="68" pos="0">
    <field name="frame.interface_id" showname="Interface id: 0 (-)" size="0" pos="0" show="0"/>
    <field name="frame.encap_type" showname="Encapsulation type: Ethernet (1)" size="0" pos="0" show="1"/>
    <field name="frame.time" showname="Arrival Time: Jan 29, 2020 04:32:50.510053000 India Standard Time" size="0" pos="0" show="Jan 29, 2020 04:32:50.510053000 India Standard Time"/>
    <field name="frame.offset_shift" showname="Time shift for this packet: 0.000000000 seconds" size="0" pos="0" show="0.000000000"/>
    <field name="frame.time_epoch" showname="Epoch Time: 1580252570.510053000 seconds" size="0" pos="0" show="1580252570.510053000"/>
    <field name="frame.time_delta" showname="Time delta from previous captured frame: 0.697724000 seconds" size="0" pos="0" show="0.697724000"/>
    <field name="frame.time_delta_displayed" showname="Time delta from previous displayed frame: 1.001315000 seconds" size="0" pos="0" show="1.001315000"/>
    <field name="frame.time_relative" showname="Time since reference or first frame: 99.108717000 seconds" size="0" pos="0" show="99.108717000"/>
    <field name="frame.number" showname="Frame Number: 234" size="0" pos="0" show="234"/>
    <field name="frame.len" showname="Frame Length: 68 bytes (544 bits)" size="0" pos="0" show="68"/>
    <field name="frame.cap_len" showname="Capture Length: 68 bytes (544 bits)" size="0" pos="0" show="68"/>
    <field name="frame.marked" showname="Frame is marked: False" size="0" pos="0" show="0"/>
    <field name="frame.ignored" showname="Frame is ignored: False" size="0" pos="0" show="0"/>
    <field name="frame.protocols" showname="Protocols in frame: eth:ethertype:vlan:ethertype:arp" size="0" pos="0" show="eth:ethertype:vlan:ethertype:arp"/>
    <field name="frame.coloring_rule.name" showname="Coloring Rule Name: ARP" size="0" pos="0" show="ARP"/>
    <field name="frame.coloring_rule.string" showname="Coloring Rule String: arp" size="0" pos="0" show="arp"/>
  </proto>
  <proto name="eth" showname="Ethernet II, Src: Private_66:68:00 (00:50:79:66:68:00), Dst: Broadcast (ff:ff:ff:ff:ff:ff)" size="14" pos="0">
    <field name="eth.dst" showname="Destination: Broadcast (ff:ff:ff:ff:ff:ff)" size="6" pos="0" show="ff:ff:ff:ff:ff:ff" value="ffffffffffff">
      <field name="eth.dst_resolved" showname="Destination (resolved): Broadcast" hide="yes" size="6" pos="0" show="Broadcast" value="ffffffffffff"/>
      <field name="eth.addr" showname="Address: Broadcast (ff:ff:ff:ff:ff:ff)" size="6" pos="0" show="ff:ff:ff:ff:ff:ff" value="ffffffffffff"/>
      <field name="eth.addr_resolved" showname="Address (resolved): Broadcast" hide="yes" size="6" pos="0" show="Broadcast" value="ffffffffffff"/>
      <field name="eth.lg" showname=".... ..1. .... .... .... .... = LG bit: Locally administered address (this is NOT the factory default)" size="3" pos="0" show="1" value="1" unmaskedvalue="ffffff"/>
      <field name="eth.ig" showname=".... ...1 .... .... .... .... = IG bit: Group address (multicast/broadcast)" size="3" pos="0" show="1" value="1" unmaskedvalue="ffffff"/>
    </field>
    <field name="eth.src" showname="Source: Private_66:68:00 (00:50:79:66:68:00)" size="6" pos="6" show="00:50:79:66:68:00" value="005079666800">
      <field name="eth.src_resolved" showname="Source (resolved): Private_66:68:00" hide="yes" size="6" pos="6" show="Private_66:68:00" value="005079666800"/>
      <field name="eth.addr" showname="Address: Private_66:68:00 (00:50:79:66:68:00)" size="6" pos="6" show="00:50:79:66:68:00" value="005079666800"/>
      <field name="eth.addr_resolved" showname="Address (resolved): Private_66:68:00" hide="yes" size="6" pos="6" show="Private_66:68:00" value="005079666800"/>
      <field name="eth.lg" showname=".... ..0. .... .... .... .... = LG bit: Globally unique address (factory default)" size="3" pos="6" show="0" value="0" unmaskedvalue="005079"/>
      <field name="eth.ig" showname=".... ...0 .... .... .... .... = IG bit: Individual address (unicast)" size="3" pos="6" show="0" value="0" unmaskedvalue="005079"/>
    </field>
    <field name="eth.type" showname="Type: 802.1Q Virtual LAN (0x8100)" size="2" pos="12" show="0x00008100" value="8100"/>
  </proto>
  <proto name="vlan" showname="802.1Q Virtual LAN, PRI: 0, CFI: 0, ID: 100" size="4" pos="14">
    <field name="vlan.priority" showname="000. .... .... .... = Priority: Best Effort (default) (0)" size="2" pos="14" show="0" value="0" unmaskedvalue="0064"/>
    <field name="vlan.cfi" showname="...0 .... .... .... = CFI: Canonical (0)" size="2" pos="14" show="0" value="0" unmaskedvalue="0064"/>
    <field name="vlan.id" showname=".... 0000 0110 0100 = ID: 100" size="2" pos="14" show="100" value="64" unmaskedvalue="0064"/>
    <field name="vlan.etype" showname="Type: ARP (0x0806)" size="2" pos="16" show="0x00000806" value="0806"/>
    <field name="eth.padding" showname="Padding: 0000000000000000000000000000" size="14" pos="46" show="00:00:00:00:00:00:00:00:00:00:00:00:00:00" value="0000000000000000000000000000"/>
    <field name="vlan.trailer" showname="Trailer: 0000000000000000" size="8" pos="60" show="00:00:00:00:00:00:00:00" value="0000000000000000"/>
  </proto>
  <proto name="arp" showname="Address Resolution Protocol (request/gratuitous ARP)" size="28" pos="18">
    <field name="arp.hw.type" showname="Hardware type: Ethernet (1)" size="2" pos="18" show="1" value="0001"/>
    <field name="arp.proto.type" showname="Protocol type: IPv4 (0x0800)" size="2" pos="20" show="0x00000800" value="0800"/>
    <field name="arp.hw.size" showname="Hardware size: 6" size="1" pos="22" show="6" value="06"/>
    <field name="arp.proto.size" showname="Protocol size: 4" size="1" pos="23" show="4" value="04"/>
    <field name="arp.opcode" showname="Opcode: request (1)" size="2" pos="24" show="1" value="0001"/>
    <field name="arp.isgratuitous" showname="Is gratuitous: True" size="0" pos="18" show="1"/>
    <field name="arp.src.hw_mac" showname="Sender MAC address: Private_66:68:00 (00:50:79:66:68:00)" size="6" pos="26" show="00:50:79:66:68:00" value="005079666800"/>
    <field name="arp.src.proto_ipv4" showname="Sender IP address: 192.168.100.2" size="4" pos="32" show="192.168.100.2" value="c0a86402"/>
    <field name="arp.dst.hw_mac" showname="Target MAC address: Broadcast (ff:ff:ff:ff:ff:ff)" size="6" pos="36" show="ff:ff:ff:ff:ff:ff" value="ffffffffffff"/>
    <field name="arp.dst.proto_ipv4" showname="Target IP address: 192.168.100.2" size="4" pos="42" show="192.168.100.2" value="c0a86402"/>
  </proto>
</packet>

<packet>
  <proto name="geninfo" pos="0" showname="General information" size="410">
    <field name="num" pos="0" show="1961" showname="Number" value="7a9" size="410"/>
    <field name="len" pos="0" show="410" showname="Frame Length" value="19a" size="410"/>
    <field name="caplen" pos="0" show="410" showname="Captured Length" value="19a" size="410"/>
    <field name="timestamp" pos="0" show="Jan 29, 2020 04:45:39.597737000 India Standard Time" showname="Captured Time" value="1580253339.597737000" size="410"/>
  </proto>
  <proto name="frame" showname="Frame 1961: 410 bytes on wire (3280 bits), 410 bytes captured (3280 bits) on interface 0" size="410" pos="0">
    <field name="frame.interface_id" showname="Interface id: 0 (-)" size="0" pos="0" show="0"/>
    <field name="frame.encap_type" showname="Encapsulation type: Ethernet (1)" size="0" pos="0" show="1"/>
    <field name="frame.time" showname="Arrival Time: Jan 29, 2020 04:45:39.597737000 India Standard Time" size="0" pos="0" show="Jan 29, 2020 04:45:39.597737000 India Standard Time"/>
    <field name="frame.offset_shift" showname="Time shift for this packet: 0.000000000 seconds" size="0" pos="0" show="0.000000000"/>
    <field name="frame.time_epoch" showname="Epoch Time: 1580253339.597737000 seconds" size="0" pos="0" show="1580253339.597737000"/>
    <field name="frame.time_delta" showname="Time delta from previous captured frame: 1.603244000 seconds" size="0" pos="0" show="1.603244000"/>
    <field name="frame.time_delta_displayed" showname="Time delta from previous displayed frame: 769.087684000 seconds" size="0" pos="0" show="769.087684000"/>
    <field name="frame.time_relative" showname="Time since reference or first frame: 868.196401000 seconds" size="0" pos="0" show="868.196401000"/>
    <field name="frame.number" showname="Frame Number: 1961" size="0" pos="0" show="1961"/>
    <field name="frame.len" showname="Frame Length: 410 bytes (3280 bits)" size="0" pos="0" show="410"/>
    <field name="frame.cap_len" showname="Capture Length: 410 bytes (3280 bits)" size="0" pos="0" show="410"/>
    <field name="frame.marked" showname="Frame is marked: False" size="0" pos="0" show="0"/>
    <field name="frame.ignored" showname="Frame is ignored: False" size="0" pos="0" show="0"/>
    <field name="frame.protocols" showname="Protocols in frame: eth:ethertype:vlan:ethertype:ip:udp:DHCP" size="0" pos="0" show="eth:ethertype:vlan:ethertype:ip:udp:DHCP"/>
    <field name="frame.coloring_rule.name" showname="Coloring Rule Name: UDP" size="0" pos="0" show="UDP"/>
    <field name="frame.coloring_rule.string" showname="Coloring Rule String: udp" size="0" pos="0" show="udp"/>
  </proto>
  <proto name="eth" showname="Ethernet II, Src: Private_66:68:00 (00:50:79:66:68:00), Dst: Broadcast (ff:ff:ff:ff:ff:ff)" size="14" pos="0">
    <field name="eth.dst" showname="Destination: Broadcast (ff:ff:ff:ff:ff:ff)" size="6" pos="0" show="ff:ff:ff:ff:ff:ff" value="ffffffffffff">
      <field name="eth.dst_resolved" showname="Destination (resolved): Broadcast" hide="yes" size="6" pos="0" show="Broadcast" value="ffffffffffff"/>
      <field name="eth.addr" showname="Address: Broadcast (ff:ff:ff:ff:ff:ff)" size="6" pos="0" show="ff:ff:ff:ff:ff:ff" value="ffffffffffff"/>
      <field name="eth.addr_resolved" showname="Address (resolved): Broadcast" hide="yes" size="6" pos="0" show="Broadcast" value="ffffffffffff"/>
      <field name="eth.lg" showname=".... ..1. .... .... .... .... = LG bit: Locally administered address (this is NOT the factory default)" size="3" pos="0" show="1" value="1" unmaskedvalue="ffffff"/>
      <field name="eth.ig" showname=".... ...1 .... .... .... .... = IG bit: Group address (multicast/broadcast)" size="3" pos="0" show="1" value="1" unmaskedvalue="ffffff"/>
    </field>
    <field name="eth.src" showname="Source: Private_66:68:00 (00:50:79:66:68:00)" size="6" pos="6" show="00:50:79:66:68:00" value="005079666800">
      <field name="eth.src_resolved" showname="Source (resolved): Private_66:68:00" hide="yes" size="6" pos="6" show="Private_66:68:00" value="005079666800"/>
      <field name="eth.addr" showname="Address: Private_66:68:00 (00:50:79:66:68:00)" size="6" pos="6" show="00:50:79:66:68:00" value="005079666800"/>
      <field name="eth.addr_resolved" showname="Address (resolved): Private_66:68:00" hide="yes" size="6" pos="6" show="Private_66:68:00" value="005079666800"/>
      <field name="eth.lg" showname=".... ..0. .... .... .... .... = LG bit: Globally unique address (factory default)" size="3" pos="6" show="0" value="0" unmaskedvalue="005079"/>
      <field name="eth.ig" showname=".... ...0 .... .... .... .... = IG bit: Individual address (unicast)" size="3" pos="6" show="0" value="0" unmaskedvalue="005079"/>
    </field>
    <field name="eth.type" showname="Type: 802.1Q Virtual LAN (0x8100)" size="2" pos="12" show="0x00008100" value="8100"/>
  </proto>
  <proto name="vlan" showname="802.1Q Virtual LAN, PRI: 0, CFI: 0, ID: 100" size="4" pos="14">
    <field name="vlan.priority" showname="000. .... .... .... = Priority: Best Effort (default) (0)" size="2" pos="14" show="0" value="0" unmaskedvalue="0064"/>
    <field name="vlan.cfi" showname="...0 .... .... .... = CFI: Canonical (0)" size="2" pos="14" show="0" value="0" unmaskedvalue="0064"/>
    <field name="vlan.id" showname=".... 0000 0110 0100 = ID: 100" size="2" pos="14" show="100" value="64" unmaskedvalue="0064"/>
    <field name="vlan.etype" showname="Type: IPv4 (0x0800)" size="2" pos="16" show="0x00000800" value="0800"/>
  </proto>
  <proto name="ip" showname="Internet Protocol Version 4, Src: 0.0.0.0, Dst: 255.255.255.255" size="20" pos="18">
    <field name="ip.version" showname="0100 .... = Version: 4" size="1" pos="18" show="4" value="4" unmaskedvalue="45"/>
    <field name="ip.hdr_len" showname=".... 0101 = Header Length: 20 bytes (5)" size="1" pos="18" show="20" value="45"/>
    <field name="ip.dsfield" showname="Differentiated Services Field: 0x10 (DSCP: Unknown, ECN: Not-ECT)" size="1" pos="19" show="0x00000010" value="10">
      <field name="ip.dsfield.dscp" showname="0001 00.. = Differentiated Services Codepoint: Unknown (4)" size="1" pos="19" show="4" value="4" unmaskedvalue="10"/>
      <field name="ip.dsfield.ecn" showname=".... ..00 = Explicit Congestion Notification: Not ECN-Capable Transport (0)" size="1" pos="19" show="0" value="0" unmaskedvalue="10"/>
    </field>
    <field name="ip.len" showname="Total Length: 392" size="2" pos="20" show="392" value="0188"/>
    <field name="ip.id" showname="Identification: 0x0000 (0)" size="2" pos="22" show="0x00000000" value="0000"/>
    <field name="ip.flags" showname="Flags: 0x00" size="1" pos="24" show="0x00000000" value="00">
      <field name="ip.flags.rb" showname="0... .... = Reserved bit: Not set" size="1" pos="24" show="0" value="00"/>
      <field name="ip.flags.df" showname=".0.. .... = Don&#x27;t fragment: Not set" size="1" pos="24" show="0" value="00"/>
      <field name="ip.flags.mf" showname="..0. .... = More fragments: Not set" size="1" pos="24" show="0" value="00"/>
    </field>
    <field name="ip.frag_offset" showname="Fragment offset: 0" size="2" pos="24" show="0" value="0000"/>
    <field name="ip.ttl" showname="Time to live: 16" size="1" pos="26" show="16" value="10"/>
    <field name="ip.proto" showname="Protocol: UDP (17)" size="1" pos="27" show="17" value="11"/>
    <field name="ip.checksum" showname="Header checksum: 0xa956 [validation disabled]" size="2" pos="28" show="0x0000a956" value="a956"/>
    <field name="ip.checksum.status" showname="Header checksum status: Unverified" size="0" pos="28" show="2"/>
    <field name="ip.src" showname="Source: 0.0.0.0" size="4" pos="30" show="0.0.0.0" value="00000000"/>
    <field name="ip.addr" showname="Source or Destination Address: 0.0.0.0" hide="yes" size="4" pos="30" show="0.0.0.0" value="00000000"/>
    <field name="ip.src_host" showname="Source Host: 0.0.0.0" hide="yes" size="4" pos="30" show="0.0.0.0" value="00000000"/>
    <field name="ip.host" showname="Source or Destination Host: 0.0.0.0" hide="yes" size="4" pos="30" show="0.0.0.0" value="00000000"/>
    <field name="ip.dst" showname="Destination: 255.255.255.255" size="4" pos="34" show="255.255.255.255" value="ffffffff"/>
    <field name="ip.addr" showname="Source or Destination Address: 255.255.255.255" hide="yes" size="4" pos="34" show="255.255.255.255" value="ffffffff"/>
    <field name="ip.dst_host" showname="Destination Host: 255.255.255.255" hide="yes" size="4" pos="34" show="255.255.255.255" value="ffffffff"/>
    <field name="ip.host" showname="Source or Destination Host: 255.255.255.255" hide="yes" size="4" pos="34" show="255.255.255.255" value="ffffffff"/>
    <field name="" show="Source GeoIP: Unknown" size="4" pos="30" value="00000000"/>
    <field name="" show="Destination GeoIP: Unknown" size="4" pos="34" value="ffffffff"/>
  </proto>
  <proto name="udp" showname="User Datagram Protocol, Src Port: 68, Dst Port: 67" size="8" pos="38">
    <field name="udp.srcport" showname="Source Port: 68" size="2" pos="38" show="68" value="0044"/>
    <field name="udp.dstport" showname="Destination Port: 67" size="2" pos="40" show="67" value="0043"/>
    <field name="udp.port" showname="Source or Destination Port: 68" hide="yes" size="2" pos="38" show="68" value="0044"/>
    <field name="udp.port" showname="Source or Destination Port: 67" hide="yes" size="2" pos="40" show="67" value="0043"/>
    <field name="udp.length" showname="Length: 372" size="2" pos="42" show="372" value="0174"/>
    <field name="udp.checksum" showname="Checksum: 0xbbf3 [unverified]" size="2" pos="44" show="0x0000bbf3" value="bbf3"/>
    <field name="udp.checksum.status" showname="Checksum Status: Unverified" size="0" pos="44" show="2"/>
    <field name="udp.stream" showname="Stream index: 0" size="0" pos="46" show="0"/>
  </proto>
  <proto name="DHCP" showname="DHCP Protocol (Discover)" size="364" pos="46">
    <field name="DHCP.type" showname="Message type: Boot Request (1)" size="1" pos="46" show="1" value="01"/>
    <field name="DHCP.hw.type" showname="Hardware type: Ethernet (0x01)" size="1" pos="47" show="0x00000001" value="01"/>
    <field name="DHCP.hw.len" showname="Hardware address length: 6" size="1" pos="48" show="6" value="06"/>
    <field name="DHCP.hops" showname="Hops: 0" size="1" pos="49" show="0" value="00"/>
    <field name="DHCP.id" showname="Transaction ID: 0xc9432067" size="4" pos="50" show="0xc9432067" value="c9432067"/>
    <field name="DHCP.secs" showname="Seconds elapsed: 0" size="2" pos="54" show="0" value="0000"/>
    <field name="DHCP.flags" showname="DHCP flags: 0x0000 (Unicast)" size="2" pos="56" show="0x00000000" value="0000">
      <field name="DHCP.flags.bc" showname="0... .... .... .... = Broadcast flag: Unicast" size="2" pos="56" show="0" value="0" unmaskedvalue="0000"/>
      <field name="DHCP.flags.reserved" showname=".000 0000 0000 0000 = Reserved flags: 0x0000" size="2" pos="56" show="0x00000000" value="0" unmaskedvalue="0000"/>
    </field>
    <field name="DHCP.ip.client" showname="Client IP address: 0.0.0.0" size="4" pos="58" show="0.0.0.0" value="00000000"/>
    <field name="DHCP.ip.your" showname="Your (client) IP address: 0.0.0.0" size="4" pos="62" show="0.0.0.0" value="00000000"/>
    <field name="DHCP.ip.server" showname="Next server IP address: 0.0.0.0" size="4" pos="66" show="0.0.0.0" value="00000000"/>
    <field name="DHCP.ip.relay" showname="Relay agent IP address: 0.0.0.0" size="4" pos="70" show="0.0.0.0" value="00000000"/>
    <field name="DHCP.hw.mac_addr" showname="Client MAC address: Private_66:68:00 (00:50:79:66:68:00)" size="6" pos="74" show="00:50:79:66:68:00" value="005079666800"/>
    <field name="DHCP.hw.addr_padding" showname="Client hardware address padding: 00000000000000000000" size="10" pos="80" show="00:00:00:00:00:00:00:00:00:00" value="00000000000000000000"/>
    <field name="DHCP.server" showname="Server host name not given" size="64" pos="90" show="" value="00000000000000000000000000000000000000000000000000000000000000000000000000000000000000000000000000000000000000000000000000000000"/>
    <field name="DHCP.file" showname="Boot file name not given" size="128" pos="154" show="" value="0000000000000000000000000000000000000000000000000000000000000000000000000000000000000000000000000000000000000000000000000000000000000000000000000000000000000000000000000000000000000000000000000000000000000000000000000000000000000000000000000000000000000000"/>
    <field name="DHCP.dhcp" showname="Frame is DHCP: True" hide="yes" size="0" pos="46" show="1"/>
    <field name="DHCP.cookie" showname="Magic cookie: DHCP" size="4" pos="282" show="99.130.83.99" value="63825363"/>
    <field name="DHCP.option.type" showname="Option: (53) DHCP Message Type (Discover)" size="3" pos="286" show="53" value="350101">
      <field name="DHCP.option.length" showname="Length: 1" size="1" pos="287" show="1" value="01"/>
      <field name="DHCP.option.value" showname="Value: 01" hide="yes" size="1" pos="288" show="01" value="01"/>
      <field name="DHCP.option.dhcp" showname="DHCP: Discover (1)" size="1" pos="288" show="1" value="01"/>
    </field>
    <field name="DHCP.option.type" showname="Option: (12) Host Name" size="9" pos="289" show="12" value="0c07565043532d3131">
      <field name="DHCP.option.length" showname="Length: 7" size="1" pos="290" show="7" value="07"/>
      <field name="DHCP.option.value" showname="Value: 565043532d3131" hide="yes" size="7" pos="291" show="56:50:43:53:2d:31:31" value="565043532d3131"/>
      <field name="DHCP.option.hostname" showname="Host Name: VPCS-11" size="7" pos="291" show="VPCS-11" value="565043532d3131"/>
    </field>
    <field name="DHCP.option.type" showname="Option: (61) Client identifier" size="9" pos="298" show="61" value="3d0701005079666800">
      <field name="DHCP.option.length" showname="Length: 7" size="1" pos="299" show="7" value="07"/>
      <field name="DHCP.option.value" showname="Value: 01005079666800" hide="yes" size="7" pos="300" show="01:00:50:79:66:68:00" value="01005079666800"/>
      <field name="DHCP.hw.type" showname="Hardware type: Ethernet (0x01)" size="1" pos="300" show="0x00000001" value="01"/>
      <field name="DHCP.hw.mac_addr" showname="Client MAC address: Private_66:68:00 (00:50:79:66:68:00)" size="6" pos="301" show="00:50:79:66:68:00" value="005079666800"/>
    </field>
    <field name="DHCP.option.type" showname="Option: (50) Requested IP Address" size="6" pos="307" show="50" value="3204c0a86402">
      <field name="DHCP.option.length" showname="Length: 4" size="1" pos="308" show="4" value="04"/>
      <field name="DHCP.option.value" showname="Value: c0a86402" hide="yes" size="4" pos="309" show="c0:a8:64:02" value="c0a86402"/>
      <field name="DHCP.option.requested_ip_address" showname="Requested IP Address: 192.168.100.2" size="4" pos="309" show="192.168.100.2" value="c0a86402"/>
    </field>
    <field name="DHCP.option.type" showname="Option: (255) End" size="1" pos="313" show="0" value="ff">
      <field name="DHCP.option.end" showname="Option End: 255" size="1" pos="313" show="255" value="ff"/>
    </field>
    <field name="DHCP.option.padding" showname="Padding: 000000000000000000000000000000000000000000000000..." size="96" pos="314" show="00:00:00:00:00:00:00:00:00:00:00:00:00:00:00:00:00:00:00:00:00:00:00:00:00:00:00:00:00:00:00:00:00:00:00:00:00:00:00:00:00:00:00:00:00:00:00:00:00:00:00:00:00:00:00:00:00:00:00:00:00:00:00:00:00:00:00:00:00:00:00:00:00:00:00:00:00:00:00:00:00:00:00:00:00:00:00:00:00:00:00:00:00:00:00:00" value="000000000000000000000000000000000000000000000000000000000000000000000000000000000000000000000000000000000000000000000000000000000000000000000000000000000000000000000000000000000000000000000000"/>
  </proto>
</packet>

<packet>
  <proto name="geninfo" pos="0" showname="General information" size="346">
    <field name="num" pos="0" show="1962" showname="Number" value="7aa" size="346"/>
    <field name="len" pos="0" show="346" showname="Frame Length" value="15a" size="346"/>
    <field name="caplen" pos="0" show="346" showname="Captured Length" value="15a" size="346"/>
    <field name="timestamp" pos="0" show="Jan 29, 2020 04:45:39.600045000 India Standard Time" showname="Captured Time" value="1580253339.600045000" size="346"/>
  </proto>
  <proto name="frame" showname="Frame 1962: 346 bytes on wire (2768 bits), 346 bytes captured (2768 bits) on interface 0" size="346" pos="0">
    <field name="frame.interface_id" showname="Interface id: 0 (-)" size="0" pos="0" show="0"/>
    <field name="frame.encap_type" showname="Encapsulation type: Ethernet (1)" size="0" pos="0" show="1"/>
    <field name="frame.time" showname="Arrival Time: Jan 29, 2020 04:45:39.600045000 India Standard Time" size="0" pos="0" show="Jan 29, 2020 04:45:39.600045000 India Standard Time"/>
    <field name="frame.offset_shift" showname="Time shift for this packet: 0.000000000 seconds" size="0" pos="0" show="0.000000000"/>
    <field name="frame.time_epoch" showname="Epoch Time: 1580253339.600045000 seconds" size="0" pos="0" show="1580253339.600045000"/>
    <field name="frame.time_delta" showname="Time delta from previous captured frame: 0.002308000 seconds" size="0" pos="0" show="0.002308000"/>
    <field name="frame.time_delta_displayed" showname="Time delta from previous displayed frame: 0.002308000 seconds" size="0" pos="0" show="0.002308000"/>
    <field name="frame.time_relative" showname="Time since reference or first frame: 868.198709000 seconds" size="0" pos="0" show="868.198709000"/>
    <field name="frame.number" showname="Frame Number: 1962" size="0" pos="0" show="1962"/>
    <field name="frame.len" showname="Frame Length: 346 bytes (2768 bits)" size="0" pos="0" show="346"/>
    <field name="frame.cap_len" showname="Capture Length: 346 bytes (2768 bits)" size="0" pos="0" show="346"/>
    <field name="frame.marked" showname="Frame is marked: False" size="0" pos="0" show="0"/>
    <field name="frame.ignored" showname="Frame is ignored: False" size="0" pos="0" show="0"/>
    <field name="frame.protocols" showname="Protocols in frame: eth:ethertype:vlan:ethertype:ip:udp:DHCP" size="0" pos="0" show="eth:ethertype:vlan:ethertype:ip:udp:DHCP"/>
    <field name="frame.coloring_rule.name" showname="Coloring Rule Name: UDP" size="0" pos="0" show="UDP"/>
    <field name="frame.coloring_rule.string" showname="Coloring Rule String: udp" size="0" pos="0" show="udp"/>
  </proto>
  <proto name="eth" showname="Ethernet II, Src: aa:bb:cc:00:01:00 (aa:bb:cc:00:01:00), Dst: Private_66:68:00 (00:50:79:66:68:00)" size="14" pos="0">
    <field name="eth.dst" showname="Destination: Private_66:68:00 (00:50:79:66:68:00)" size="6" pos="0" show="00:50:79:66:68:00" value="005079666800">
      <field name="eth.dst_resolved" showname="Destination (resolved): Private_66:68:00" hide="yes" size="6" pos="0" show="Private_66:68:00" value="005079666800"/>
      <field name="eth.addr" showname="Address: Private_66:68:00 (00:50:79:66:68:00)" size="6" pos="0" show="00:50:79:66:68:00" value="005079666800"/>
      <field name="eth.addr_resolved" showname="Address (resolved): Private_66:68:00" hide="yes" size="6" pos="0" show="Private_66:68:00" value="005079666800"/>
      <field name="eth.lg" showname=".... ..0. .... .... .... .... = LG bit: Globally unique address (factory default)" size="3" pos="0" show="0" value="0" unmaskedvalue="005079"/>
      <field name="eth.ig" showname=".... ...0 .... .... .... .... = IG bit: Individual address (unicast)" size="3" pos="0" show="0" value="0" unmaskedvalue="005079"/>
    </field>
    <field name="eth.src" showname="Source: aa:bb:cc:00:01:00 (aa:bb:cc:00:01:00)" size="6" pos="6" show="aa:bb:cc:00:01:00" value="aabbcc000100">
      <field name="eth.src_resolved" showname="Source (resolved): aa:bb:cc:00:01:00" hide="yes" size="6" pos="6" show="aa:bb:cc:00:01:00" value="aabbcc000100"/>
      <field name="eth.addr" showname="Address: aa:bb:cc:00:01:00 (aa:bb:cc:00:01:00)" size="6" pos="6" show="aa:bb:cc:00:01:00" value="aabbcc000100"/>
      <field name="eth.addr_resolved" showname="Address (resolved): aa:bb:cc:00:01:00" hide="yes" size="6" pos="6" show="aa:bb:cc:00:01:00" value="aabbcc000100"/>
      <field name="eth.lg" showname=".... ..1. .... .... .... .... = LG bit: Locally administered address (this is NOT the factory default)" size="3" pos="6" show="1" value="1" unmaskedvalue="aabbcc"/>
      <field name="eth.ig" showname=".... ...0 .... .... .... .... = IG bit: Individual address (unicast)" size="3" pos="6" show="0" value="0" unmaskedvalue="aabbcc"/>
    </field>
    <field name="eth.type" showname="Type: 802.1Q Virtual LAN (0x8100)" size="2" pos="12" show="0x00008100" value="8100"/>
  </proto>
  <proto name="vlan" showname="802.1Q Virtual LAN, PRI: 0, CFI: 0, ID: 100" size="4" pos="14">
    <field name="vlan.priority" showname="000. .... .... .... = Priority: Best Effort (default) (0)" size="2" pos="14" show="0" value="0" unmaskedvalue="0064"/>
    <field name="vlan.cfi" showname="...0 .... .... .... = CFI: Canonical (0)" size="2" pos="14" show="0" value="0" unmaskedvalue="0064"/>
    <field name="vlan.id" showname=".... 0000 0110 0100 = ID: 100" size="2" pos="14" show="100" value="64" unmaskedvalue="0064"/>
    <field name="vlan.etype" showname="Type: IPv4 (0x0800)" size="2" pos="16" show="0x00000800" value="0800"/>
  </proto>
  <proto name="ip" showname="Internet Protocol Version 4, Src: 192.168.100.1, Dst: 192.168.100.2" size="20" pos="18">
    <field name="ip.version" showname="0100 .... = Version: 4" size="1" pos="18" show="4" value="4" unmaskedvalue="45"/>
    <field name="ip.hdr_len" showname=".... 0101 = Header Length: 20 bytes (5)" size="1" pos="18" show="20" value="45"/>
    <field name="ip.dsfield" showname="Differentiated Services Field: 0x00 (DSCP: CS0, ECN: Not-ECT)" size="1" pos="19" show="0x00000000" value="00">
      <field name="ip.dsfield.dscp" showname="0000 00.. = Differentiated Services Codepoint: Default (0)" size="1" pos="19" show="0" value="0" unmaskedvalue="00"/>
      <field name="ip.dsfield.ecn" showname=".... ..00 = Explicit Congestion Notification: Not ECN-Capable Transport (0)" size="1" pos="19" show="0" value="0" unmaskedvalue="00"/>
    </field>
    <field name="ip.len" showname="Total Length: 328" size="2" pos="20" show="328" value="0148"/>
    <field name="ip.id" showname="Identification: 0x0002 (2)" size="2" pos="22" show="0x00000002" value="0002"/>
    <field name="ip.flags" showname="Flags: 0x00" size="1" pos="24" show="0x00000000" value="00">
      <field name="ip.flags.rb" showname="0... .... = Reserved bit: Not set" size="1" pos="24" show="0" value="00"/>
      <field name="ip.flags.df" showname=".0.. .... = Don&#x27;t fragment: Not set" size="1" pos="24" show="0" value="00"/>
      <field name="ip.flags.mf" showname="..0. .... = More fragments: Not set" size="1" pos="24" show="0" value="00"/>
    </field>
    <field name="ip.frag_offset" showname="Fragment offset: 0" size="2" pos="24" show="0" value="0000"/>
    <field name="ip.ttl" showname="Time to live: 255" size="1" pos="26" show="255" value="ff"/>
    <field name="ip.proto" showname="Protocol: UDP (17)" size="1" pos="27" show="17" value="11"/>
    <field name="ip.checksum" showname="Header checksum: 0x714e [validation disabled]" size="2" pos="28" show="0x0000714e" value="714e"/>
    <field name="ip.checksum.status" showname="Header checksum status: Unverified" size="0" pos="28" show="2"/>
    <field name="ip.src" showname="Source: 192.168.100.1" size="4" pos="30" show="192.168.100.1" value="c0a86401"/>
    <field name="ip.addr" showname="Source or Destination Address: 192.168.100.1" hide="yes" size="4" pos="30" show="192.168.100.1" value="c0a86401"/>
    <field name="ip.src_host" showname="Source Host: 192.168.100.1" hide="yes" size="4" pos="30" show="192.168.100.1" value="c0a86401"/>
    <field name="ip.host" showname="Source or Destination Host: 192.168.100.1" hide="yes" size="4" pos="30" show="192.168.100.1" value="c0a86401"/>
    <field name="ip.dst" showname="Destination: 192.168.100.2" size="4" pos="34" show="192.168.100.2" value="c0a86402"/>
    <field name="ip.addr" showname="Source or Destination Address: 192.168.100.2" hide="yes" size="4" pos="34" show="192.168.100.2" value="c0a86402"/>
    <field name="ip.dst_host" showname="Destination Host: 192.168.100.2" hide="yes" size="4" pos="34" show="192.168.100.2" value="c0a86402"/>
    <field name="ip.host" showname="Source or Destination Host: 192.168.100.2" hide="yes" size="4" pos="34" show="192.168.100.2" value="c0a86402"/>
    <field name="" show="Source GeoIP: Unknown" size="4" pos="30" value="c0a86401"/>
    <field name="" show="Destination GeoIP: Unknown" size="4" pos="34" value="c0a86402"/>
  </proto>
  <proto name="udp" showname="User Datagram Protocol, Src Port: 67, Dst Port: 68" size="8" pos="38">
    <field name="udp.srcport" showname="Source Port: 67" size="2" pos="38" show="67" value="0043"/>
    <field name="udp.dstport" showname="Destination Port: 68" size="2" pos="40" show="68" value="0044"/>
    <field name="udp.port" showname="Source or Destination Port: 67" hide="yes" size="2" pos="38" show="67" value="0043"/>
    <field name="udp.port" showname="Source or Destination Port: 68" hide="yes" size="2" pos="40" show="68" value="0044"/>
    <field name="udp.length" showname="Length: 308" size="2" pos="42" show="308" value="0134"/>
    <field name="udp.checksum" showname="Checksum: 0xf065 [unverified]" size="2" pos="44" show="0x0000f065" value="f065"/>
    <field name="udp.checksum.status" showname="Checksum Status: Unverified" size="0" pos="44" show="2"/>
    <field name="udp.stream" showname="Stream index: 1" size="0" pos="46" show="1"/>
  </proto>
  <proto name="DHCP" showname="DHCP Protocol (Offer)" size="300" pos="46">
    <field name="DHCP.type" showname="Message type: Boot Reply (2)" size="1" pos="46" show="2" value="02"/>
    <field name="DHCP.hw.type" showname="Hardware type: Ethernet (0x01)" size="1" pos="47" show="0x00000001" value="01"/>
    <field name="DHCP.hw.len" showname="Hardware address length: 6" size="1" pos="48" show="6" value="06"/>
    <field name="DHCP.hops" showname="Hops: 0" size="1" pos="49" show="0" value="00"/>
    <field name="DHCP.id" showname="Transaction ID: 0xc9432067" size="4" pos="50" show="0xc9432067" value="c9432067"/>
    <field name="DHCP.secs" showname="Seconds elapsed: 0" size="2" pos="54" show="0" value="0000"/>
    <field name="DHCP.flags" showname="DHCP flags: 0x0000 (Unicast)" size="2" pos="56" show="0x00000000" value="0000">
      <field name="DHCP.flags.bc" showname="0... .... .... .... = Broadcast flag: Unicast" size="2" pos="56" show="0" value="0" unmaskedvalue="0000"/>
      <field name="DHCP.flags.reserved" showname=".000 0000 0000 0000 = Reserved flags: 0x0000" size="2" pos="56" show="0x00000000" value="0" unmaskedvalue="0000"/>
    </field>
    <field name="DHCP.ip.client" showname="Client IP address: 0.0.0.0" size="4" pos="58" show="0.0.0.0" value="00000000"/>
    <field name="DHCP.ip.your" showname="Your (client) IP address: 192.168.100.2" size="4" pos="62" show="192.168.100.2" value="c0a86402"/>
    <field name="DHCP.ip.server" showname="Next server IP address: 0.0.0.0" size="4" pos="66" show="0.0.0.0" value="00000000"/>
    <field name="DHCP.ip.relay" showname="Relay agent IP address: 0.0.0.0" size="4" pos="70" show="0.0.0.0" value="00000000"/>
    <field name="DHCP.hw.mac_addr" showname="Client MAC address: Private_66:68:00 (00:50:79:66:68:00)" size="6" pos="74" show="00:50:79:66:68:00" value="005079666800"/>
    <field name="DHCP.hw.addr_padding" showname="Client hardware address padding: 00000000000000000000" size="10" pos="80" show="00:00:00:00:00:00:00:00:00:00" value="00000000000000000000"/>
    <field name="DHCP.server" showname="Server host name not given" size="64" pos="90" show="" value="00000000000000000000000000000000000000000000000000000000000000000000000000000000000000000000000000000000000000000000000000000000"/>
    <field name="DHCP.file" showname="Boot file name not given" size="128" pos="154" show="" value="0000000000000000000000000000000000000000000000000000000000000000000000000000000000000000000000000000000000000000000000000000000000000000000000000000000000000000000000000000000000000000000000000000000000000000000000000000000000000000000000000000000000000000"/>
    <field name="DHCP.dhcp" showname="Frame is DHCP: True" hide="yes" size="0" pos="46" show="1"/>
    <field name="DHCP.cookie" showname="Magic cookie: DHCP" size="4" pos="282" show="99.130.83.99" value="63825363"/>
    <field name="DHCP.option.type" showname="Option: (53) DHCP Message Type (Offer)" size="3" pos="286" show="53" value="350102">
      <field name="DHCP.option.length" showname="Length: 1" size="1" pos="287" show="1" value="01"/>
      <field name="DHCP.option.value" showname="Value: 02" hide="yes" size="1" pos="288" show="02" value="02"/>
      <field name="DHCP.option.dhcp" showname="DHCP: Offer (2)" size="1" pos="288" show="2" value="02"/>
    </field>
    <field name="DHCP.option.type" showname="Option: (54) DHCP Server Identifier" size="6" pos="289" show="54" value="3604c0a86401">
      <field name="DHCP.option.length" showname="Length: 4" size="1" pos="290" show="4" value="04"/>
      <field name="DHCP.option.value" showname="Value: c0a86401" hide="yes" size="4" pos="291" show="c0:a8:64:01" value="c0a86401"/>
      <field name="DHCP.option.dhcp_server_id" showname="DHCP Server Identifier: 192.168.100.1" size="4" pos="291" show="192.168.100.1" value="c0a86401"/>
    </field>
    <field name="DHCP.option.type" showname="Option: (51) IP Address Lease Time" size="6" pos="295" show="51" value="330400014e7c">
      <field name="DHCP.option.length" showname="Length: 4" size="1" pos="296" show="4" value="04"/>
      <field name="DHCP.option.value" showname="Value: 00014e7c" hide="yes" size="4" pos="297" show="00:01:4e:7c" value="00014e7c"/>
      <field name="DHCP.option.ip_address_lease_time" showname="IP Address Lease Time: (85628s) 23 hours, 47 minutes, 8 seconds" size="4" pos="297" show="85628" value="00014e7c"/>
    </field>
    <field name="DHCP.option.type" showname="Option: (58) Renewal Time Value" size="6" pos="301" show="58" value="3a040000a73e">
      <field name="DHCP.option.length" showname="Length: 4" size="1" pos="302" show="4" value="04"/>
      <field name="DHCP.option.value" showname="Value: 0000a73e" hide="yes" size="4" pos="303" show="00:00:a7:3e" value="0000a73e"/>
      <field name="DHCP.option.renewal_time_value" showname="Renewal Time Value: (42814s) 11 hours, 53 minutes, 34 seconds" size="4" pos="303" show="42814" value="0000a73e"/>
    </field>
    <field name="DHCP.option.type" showname="Option: (59) Rebinding Time Value" size="6" pos="307" show="59" value="3b04000124a9">
      <field name="DHCP.option.length" showname="Length: 4" size="1" pos="308" show="4" value="04"/>
      <field name="DHCP.option.value" showname="Value: 000124a9" hide="yes" size="4" pos="309" show="00:01:24:a9" value="000124a9"/>
      <field name="DHCP.option.rebinding_time_value" showname="Rebinding Time Value: (74921s) 20 hours, 48 minutes, 41 seconds" size="4" pos="309" show="74921" value="000124a9"/>
    </field>
    <field name="DHCP.option.type" showname="Option: (1) Subnet Mask" size="6" pos="313" show="1" value="0104ffffff00">
      <field name="DHCP.option.length" showname="Length: 4" size="1" pos="314" show="4" value="04"/>
      <field name="DHCP.option.value" showname="Value: ffffff00" hide="yes" size="4" pos="315" show="ff:ff:ff:00" value="ffffff00"/>
      <field name="DHCP.option.subnet_mask" showname="Subnet Mask: 255.255.255.0" size="4" pos="315" show="255.255.255.0" value="ffffff00"/>
    </field>
    <field name="DHCP.option.type" showname="Option: (6) Domain Name Server" size="6" pos="319" show="6" value="060404020202">
      <field name="DHCP.option.length" showname="Length: 4" size="1" pos="320" show="4" value="04"/>
      <field name="DHCP.option.value" showname="Value: 04020202" hide="yes" size="4" pos="321" show="04:02:02:02" value="04020202"/>
      <field name="DHCP.option.domain_name_server" showname="Domain Name Server: 4.2.2.2" size="4" pos="321" show="4.2.2.2" value="04020202"/>
    </field>
    <field name="DHCP.option.type" showname="Option: (3) Router" size="6" pos="325" show="3" value="0304c0a86401">
      <field name="DHCP.option.length" showname="Length: 4" size="1" pos="326" show="4" value="04"/>
      <field name="DHCP.option.value" showname="Value: c0a86401" hide="yes" size="4" pos="327" show="c0:a8:64:01" value="c0a86401"/>
      <field name="DHCP.option.router" showname="Router: 192.168.100.1" size="4" pos="327" show="192.168.100.1" value="c0a86401"/>
    </field>
    <field name="DHCP.option.type" showname="Option: (255) End" size="1" pos="331" show="0" value="ff">
      <field name="DHCP.option.end" showname="Option End: 255" size="1" pos="331" show="255" value="ff"/>
    </field>
    <field name="DHCP.option.padding" showname="Padding: 0000000000000000000000000000" size="14" pos="332" show="00:00:00:00:00:00:00:00:00:00:00:00:00:00" value="0000000000000000000000000000"/>
  </proto>
</packet>

<packet>
  <proto name="geninfo" pos="0" showname="General information" size="410">
    <field name="num" pos="0" show="1967" showname="Number" value="7af" size="410"/>
    <field name="len" pos="0" show="410" showname="Frame Length" value="19a" size="410"/>
    <field name="caplen" pos="0" show="410" showname="Captured Length" value="19a" size="410"/>
    <field name="timestamp" pos="0" show="Jan 29, 2020 04:45:40.597431000 India Standard Time" showname="Captured Time" value="1580253340.597431000" size="410"/>
  </proto>
  <proto name="frame" showname="Frame 1967: 410 bytes on wire (3280 bits), 410 bytes captured (3280 bits) on interface 0" size="410" pos="0">
    <field name="frame.interface_id" showname="Interface id: 0 (-)" size="0" pos="0" show="0"/>
    <field name="frame.encap_type" showname="Encapsulation type: Ethernet (1)" size="0" pos="0" show="1"/>
    <field name="frame.time" showname="Arrival Time: Jan 29, 2020 04:45:40.597431000 India Standard Time" size="0" pos="0" show="Jan 29, 2020 04:45:40.597431000 India Standard Time"/>
    <field name="frame.offset_shift" showname="Time shift for this packet: 0.000000000 seconds" size="0" pos="0" show="0.000000000"/>
    <field name="frame.time_epoch" showname="Epoch Time: 1580253340.597431000 seconds" size="0" pos="0" show="1580253340.597431000"/>
    <field name="frame.time_delta" showname="Time delta from previous captured frame: 0.601301000 seconds" size="0" pos="0" show="0.601301000"/>
    <field name="frame.time_delta_displayed" showname="Time delta from previous displayed frame: 0.997386000 seconds" size="0" pos="0" show="0.997386000"/>
    <field name="frame.time_relative" showname="Time since reference or first frame: 869.196095000 seconds" size="0" pos="0" show="869.196095000"/>
    <field name="frame.number" showname="Frame Number: 1967" size="0" pos="0" show="1967"/>
    <field name="frame.len" showname="Frame Length: 410 bytes (3280 bits)" size="0" pos="0" show="410"/>
    <field name="frame.cap_len" showname="Capture Length: 410 bytes (3280 bits)" size="0" pos="0" show="410"/>
    <field name="frame.marked" showname="Frame is marked: False" size="0" pos="0" show="0"/>
    <field name="frame.ignored" showname="Frame is ignored: False" size="0" pos="0" show="0"/>
    <field name="frame.protocols" showname="Protocols in frame: eth:ethertype:vlan:ethertype:ip:udp:DHCP" size="0" pos="0" show="eth:ethertype:vlan:ethertype:ip:udp:DHCP"/>
    <field name="frame.coloring_rule.name" showname="Coloring Rule Name: UDP" size="0" pos="0" show="UDP"/>
    <field name="frame.coloring_rule.string" showname="Coloring Rule String: udp" size="0" pos="0" show="udp"/>
  </proto>
  <proto name="eth" showname="Ethernet II, Src: Private_66:68:00 (00:50:79:66:68:00), Dst: aa:bb:cc:00:01:00 (aa:bb:cc:00:01:00)" size="14" pos="0">
    <field name="eth.dst" showname="Destination: aa:bb:cc:00:01:00 (aa:bb:cc:00:01:00)" size="6" pos="0" show="aa:bb:cc:00:01:00" value="aabbcc000100">
      <field name="eth.dst_resolved" showname="Destination (resolved): aa:bb:cc:00:01:00" hide="yes" size="6" pos="0" show="aa:bb:cc:00:01:00" value="aabbcc000100"/>
      <field name="eth.addr" showname="Address: aa:bb:cc:00:01:00 (aa:bb:cc:00:01:00)" size="6" pos="0" show="aa:bb:cc:00:01:00" value="aabbcc000100"/>
      <field name="eth.addr_resolved" showname="Address (resolved): aa:bb:cc:00:01:00" hide="yes" size="6" pos="0" show="aa:bb:cc:00:01:00" value="aabbcc000100"/>
      <field name="eth.lg" showname=".... ..1. .... .... .... .... = LG bit: Locally administered address (this is NOT the factory default)" size="3" pos="0" show="1" value="1" unmaskedvalue="aabbcc"/>
      <field name="eth.ig" showname=".... ...0 .... .... .... .... = IG bit: Individual address (unicast)" size="3" pos="0" show="0" value="0" unmaskedvalue="aabbcc"/>
    </field>
    <field name="eth.src" showname="Source: Private_66:68:00 (00:50:79:66:68:00)" size="6" pos="6" show="00:50:79:66:68:00" value="005079666800">
      <field name="eth.src_resolved" showname="Source (resolved): Private_66:68:00" hide="yes" size="6" pos="6" show="Private_66:68:00" value="005079666800"/>
      <field name="eth.addr" showname="Address: Private_66:68:00 (00:50:79:66:68:00)" size="6" pos="6" show="00:50:79:66:68:00" value="005079666800"/>
      <field name="eth.addr_resolved" showname="Address (resolved): Private_66:68:00" hide="yes" size="6" pos="6" show="Private_66:68:00" value="005079666800"/>
      <field name="eth.lg" showname=".... ..0. .... .... .... .... = LG bit: Globally unique address (factory default)" size="3" pos="6" show="0" value="0" unmaskedvalue="005079"/>
      <field name="eth.ig" showname=".... ...0 .... .... .... .... = IG bit: Individual address (unicast)" size="3" pos="6" show="0" value="0" unmaskedvalue="005079"/>
    </field>
    <field name="eth.type" showname="Type: 802.1Q Virtual LAN (0x8100)" size="2" pos="12" show="0x00008100" value="8100"/>
  </proto>
  <proto name="vlan" showname="802.1Q Virtual LAN, PRI: 0, CFI: 0, ID: 100" size="4" pos="14">
    <field name="vlan.priority" showname="000. .... .... .... = Priority: Best Effort (default) (0)" size="2" pos="14" show="0" value="0" unmaskedvalue="0064"/>
    <field name="vlan.cfi" showname="...0 .... .... .... = CFI: Canonical (0)" size="2" pos="14" show="0" value="0" unmaskedvalue="0064"/>
    <field name="vlan.id" showname=".... 0000 0110 0100 = ID: 100" size="2" pos="14" show="100" value="64" unmaskedvalue="0064"/>
    <field name="vlan.etype" showname="Type: IPv4 (0x0800)" size="2" pos="16" show="0x00000800" value="0800"/>
  </proto>
  <proto name="ip" showname="Internet Protocol Version 4, Src: 0.0.0.0, Dst: 255.255.255.255" size="20" pos="18">
    <field name="ip.version" showname="0100 .... = Version: 4" size="1" pos="18" show="4" value="4" unmaskedvalue="45"/>
    <field name="ip.hdr_len" showname=".... 0101 = Header Length: 20 bytes (5)" size="1" pos="18" show="20" value="45"/>
    <field name="ip.dsfield" showname="Differentiated Services Field: 0x10 (DSCP: Unknown, ECN: Not-ECT)" size="1" pos="19" show="0x00000010" value="10">
      <field name="ip.dsfield.dscp" showname="0001 00.. = Differentiated Services Codepoint: Unknown (4)" size="1" pos="19" show="4" value="4" unmaskedvalue="10"/>
      <field name="ip.dsfield.ecn" showname=".... ..00 = Explicit Congestion Notification: Not ECN-Capable Transport (0)" size="1" pos="19" show="0" value="0" unmaskedvalue="10"/>
    </field>
    <field name="ip.len" showname="Total Length: 392" size="2" pos="20" show="392" value="0188"/>
    <field name="ip.id" showname="Identification: 0x0000 (0)" size="2" pos="22" show="0x00000000" value="0000"/>
    <field name="ip.flags" showname="Flags: 0x00" size="1" pos="24" show="0x00000000" value="00">
      <field name="ip.flags.rb" showname="0... .... = Reserved bit: Not set" size="1" pos="24" show="0" value="00"/>
      <field name="ip.flags.df" showname=".0.. .... = Don&#x27;t fragment: Not set" size="1" pos="24" show="0" value="00"/>
      <field name="ip.flags.mf" showname="..0. .... = More fragments: Not set" size="1" pos="24" show="0" value="00"/>
    </field>
    <field name="ip.frag_offset" showname="Fragment offset: 0" size="2" pos="24" show="0" value="0000"/>
    <field name="ip.ttl" showname="Time to live: 16" size="1" pos="26" show="16" value="10"/>
    <field name="ip.proto" showname="Protocol: UDP (17)" size="1" pos="27" show="17" value="11"/>
    <field name="ip.checksum" showname="Header checksum: 0xa956 [validation disabled]" size="2" pos="28" show="0x0000a956" value="a956"/>
    <field name="ip.checksum.status" showname="Header checksum status: Unverified" size="0" pos="28" show="2"/>
    <field name="ip.src" showname="Source: 0.0.0.0" size="4" pos="30" show="0.0.0.0" value="00000000"/>
    <field name="ip.addr" showname="Source or Destination Address: 0.0.0.0" hide="yes" size="4" pos="30" show="0.0.0.0" value="00000000"/>
    <field name="ip.src_host" showname="Source Host: 0.0.0.0" hide="yes" size="4" pos="30" show="0.0.0.0" value="00000000"/>
    <field name="ip.host" showname="Source or Destination Host: 0.0.0.0" hide="yes" size="4" pos="30" show="0.0.0.0" value="00000000"/>
    <field name="ip.dst" showname="Destination: 255.255.255.255" size="4" pos="34" show="255.255.255.255" value="ffffffff"/>
    <field name="ip.addr" showname="Source or Destination Address: 255.255.255.255" hide="yes" size="4" pos="34" show="255.255.255.255" value="ffffffff"/>
    <field name="ip.dst_host" showname="Destination Host: 255.255.255.255" hide="yes" size="4" pos="34" show="255.255.255.255" value="ffffffff"/>
    <field name="ip.host" showname="Source or Destination Host: 255.255.255.255" hide="yes" size="4" pos="34" show="255.255.255.255" value="ffffffff"/>
    <field name="" show="Source GeoIP: Unknown" size="4" pos="30" value="00000000"/>
    <field name="" show="Destination GeoIP: Unknown" size="4" pos="34" value="ffffffff"/>
  </proto>
  <proto name="udp" showname="User Datagram Protocol, Src Port: 68, Dst Port: 67" size="8" pos="38">
    <field name="udp.srcport" showname="Source Port: 68" size="2" pos="38" show="68" value="0044"/>
    <field name="udp.dstport" showname="Destination Port: 67" size="2" pos="40" show="67" value="0043"/>
    <field name="udp.port" showname="Source or Destination Port: 68" hide="yes" size="2" pos="38" show="68" value="0044"/>
    <field name="udp.port" showname="Source or Destination Port: 67" hide="yes" size="2" pos="40" show="67" value="0043"/>
    <field name="udp.length" showname="Length: 372" size="2" pos="42" show="372" value="0174"/>
    <field name="udp.checksum" showname="Checksum: 0xb4cb [unverified]" size="2" pos="44" show="0x0000b4cb" value="b4cb"/>
    <field name="udp.checksum.status" showname="Checksum Status: Unverified" size="0" pos="44" show="2"/>
    <field name="udp.stream" showname="Stream index: 0" size="0" pos="46" show="0"/>
  </proto>
  <proto name="DHCP" showname="DHCP Protocol (Request)" size="364" pos="46">
    <field name="DHCP.type" showname="Message type: Boot Request (1)" size="1" pos="46" show="1" value="01"/>
    <field name="DHCP.hw.type" showname="Hardware type: Ethernet (0x01)" size="1" pos="47" show="0x00000001" value="01"/>
    <field name="DHCP.hw.len" showname="Hardware address length: 6" size="1" pos="48" show="6" value="06"/>
    <field name="DHCP.hops" showname="Hops: 0" size="1" pos="49" show="0" value="00"/>
    <field name="DHCP.id" showname="Transaction ID: 0xc9432067" size="4" pos="50" show="0xc9432067" value="c9432067"/>
    <field name="DHCP.secs" showname="Seconds elapsed: 0" size="2" pos="54" show="0" value="0000"/>
    <field name="DHCP.flags" showname="DHCP flags: 0x0000 (Unicast)" size="2" pos="56" show="0x00000000" value="0000">
      <field name="DHCP.flags.bc" showname="0... .... .... .... = Broadcast flag: Unicast" size="2" pos="56" show="0" value="0" unmaskedvalue="0000"/>
      <field name="DHCP.flags.reserved" showname=".000 0000 0000 0000 = Reserved flags: 0x0000" size="2" pos="56" show="0x00000000" value="0" unmaskedvalue="0000"/>
    </field>
    <field name="DHCP.ip.client" showname="Client IP address: 192.168.100.2" size="4" pos="58" show="192.168.100.2" value="c0a86402"/>
    <field name="DHCP.ip.your" showname="Your (client) IP address: 0.0.0.0" size="4" pos="62" show="0.0.0.0" value="00000000"/>
    <field name="DHCP.ip.server" showname="Next server IP address: 0.0.0.0" size="4" pos="66" show="0.0.0.0" value="00000000"/>
    <field name="DHCP.ip.relay" showname="Relay agent IP address: 0.0.0.0" size="4" pos="70" show="0.0.0.0" value="00000000"/>
    <field name="DHCP.hw.mac_addr" showname="Client MAC address: Private_66:68:00 (00:50:79:66:68:00)" size="6" pos="74" show="00:50:79:66:68:00" value="005079666800"/>
    <field name="DHCP.hw.addr_padding" showname="Client hardware address padding: 00000000000000000000" size="10" pos="80" show="00:00:00:00:00:00:00:00:00:00" value="00000000000000000000"/>
    <field name="DHCP.server" showname="Server host name not given" size="64" pos="90" show="" value="00000000000000000000000000000000000000000000000000000000000000000000000000000000000000000000000000000000000000000000000000000000"/>
    <field name="DHCP.file" showname="Boot file name not given" size="128" pos="154" show="" value="0000000000000000000000000000000000000000000000000000000000000000000000000000000000000000000000000000000000000000000000000000000000000000000000000000000000000000000000000000000000000000000000000000000000000000000000000000000000000000000000000000000000000000"/>
    <field name="DHCP.dhcp" showname="Frame is DHCP: True" hide="yes" size="0" pos="46" show="1"/>
    <field name="DHCP.cookie" showname="Magic cookie: DHCP" size="4" pos="282" show="99.130.83.99" value="63825363"/>
    <field name="DHCP.option.type" showname="Option: (53) DHCP Message Type (Request)" size="3" pos="286" show="53" value="350103">
      <field name="DHCP.option.length" showname="Length: 1" size="1" pos="287" show="1" value="01"/>
      <field name="DHCP.option.value" showname="Value: 03" hide="yes" size="1" pos="288" show="03" value="03"/>
      <field name="DHCP.option.dhcp" showname="DHCP: Request (3)" size="1" pos="288" show="3" value="03"/>
    </field>
    <field name="DHCP.option.type" showname="Option: (54) DHCP Server Identifier" size="6" pos="289" show="54" value="3604c0a86401">
      <field name="DHCP.option.length" showname="Length: 4" size="1" pos="290" show="4" value="04"/>
      <field name="DHCP.option.value" showname="Value: c0a86401" hide="yes" size="4" pos="291" show="c0:a8:64:01" value="c0a86401"/>
      <field name="DHCP.option.dhcp_server_id" showname="DHCP Server Identifier: 192.168.100.1" size="4" pos="291" show="192.168.100.1" value="c0a86401"/>
    </field>
    <field name="DHCP.option.type" showname="Option: (50) Requested IP Address" size="6" pos="295" show="50" value="3204c0a86402">
      <field name="DHCP.option.length" showname="Length: 4" size="1" pos="296" show="4" value="04"/>
      <field name="DHCP.option.value" showname="Value: c0a86402" hide="yes" size="4" pos="297" show="c0:a8:64:02" value="c0a86402"/>
      <field name="DHCP.option.requested_ip_address" showname="Requested IP Address: 192.168.100.2" size="4" pos="297" show="192.168.100.2" value="c0a86402"/>
    </field>
    <field name="DHCP.option.type" showname="Option: (61) Client identifier" size="9" pos="301" show="61" value="3d0701005079666800">
      <field name="DHCP.option.length" showname="Length: 7" size="1" pos="302" show="7" value="07"/>
      <field name="DHCP.option.value" showname="Value: 01005079666800" hide="yes" size="7" pos="303" show="01:00:50:79:66:68:00" value="01005079666800"/>
      <field name="DHCP.hw.type" showname="Hardware type: Ethernet (0x01)" size="1" pos="303" show="0x00000001" value="01"/>
      <field name="DHCP.hw.mac_addr" showname="Client MAC address: Private_66:68:00 (00:50:79:66:68:00)" size="6" pos="304" show="00:50:79:66:68:00" value="005079666800"/>
    </field>
    <field name="DHCP.option.type" showname="Option: (12) Host Name" size="9" pos="310" show="12" value="0c07565043532d3131">
      <field name="DHCP.option.length" showname="Length: 7" size="1" pos="311" show="7" value="07"/>
      <field name="DHCP.option.value" showname="Value: 565043532d3131" hide="yes" size="7" pos="312" show="56:50:43:53:2d:31:31" value="565043532d3131"/>
      <field name="DHCP.option.hostname" showname="Host Name: VPCS-11" size="7" pos="312" show="VPCS-11" value="565043532d3131"/>
    </field>
    <field name="DHCP.option.type" showname="Option: (55) Parameter Request List" size="6" pos="319" show="55" value="37040103060f">
      <field name="DHCP.option.length" showname="Length: 4" size="1" pos="320" show="4" value="04"/>
      <field name="DHCP.option.value" showname="Value: 0103060f" hide="yes" size="4" pos="321" show="01:03:06:0f" value="0103060f"/>
      <field name="DHCP.option.request_list_item" showname="Parameter Request List Item: (1) Subnet Mask" size="1" pos="321" show="1" value="01"/>
      <field name="DHCP.option.request_list_item" showname="Parameter Request List Item: (3) Router" size="1" pos="322" show="3" value="03"/>
      <field name="DHCP.option.request_list_item" showname="Parameter Request List Item: (6) Domain Name Server" size="1" pos="323" show="6" value="06"/>
      <field name="DHCP.option.request_list_item" showname="Parameter Request List Item: (15) Domain Name" size="1" pos="324" show="15" value="0f"/>
    </field>
    <field name="DHCP.option.type" showname="Option: (255) End" size="1" pos="325" show="0" value="ff">
      <field name="DHCP.option.end" showname="Option End: 255" size="1" pos="325" show="255" value="ff"/>
    </field>
    <field name="DHCP.option.padding" showname="Padding: 000000000000000000000000000000000000000000000000..." size="84" pos="326" show="00:00:00:00:00:00:00:00:00:00:00:00:00:00:00:00:00:00:00:00:00:00:00:00:00:00:00:00:00:00:00:00:00:00:00:00:00:00:00:00:00:00:00:00:00:00:00:00:00:00:00:00:00:00:00:00:00:00:00:00:00:00:00:00:00:00:00:00:00:00:00:00:00:00:00:00:00:00:00:00:00:00:00:00" value="000000000000000000000000000000000000000000000000000000000000000000000000000000000000000000000000000000000000000000000000000000000000000000000000000000000000000000000000"/>
  </proto>
</packet>

<packet>
  <proto name="geninfo" pos="0" showname="General information" size="346">
    <field name="num" pos="0" show="1968" showname="Number" value="7b0" size="346"/>
    <field name="len" pos="0" show="346" showname="Frame Length" value="15a" size="346"/>
    <field name="caplen" pos="0" show="346" showname="Captured Length" value="15a" size="346"/>
    <field name="timestamp" pos="0" show="Jan 29, 2020 04:45:40.602899000 India Standard Time" showname="Captured Time" value="1580253340.602899000" size="346"/>
  </proto>
  <proto name="frame" showname="Frame 1968: 346 bytes on wire (2768 bits), 346 bytes captured (2768 bits) on interface 0" size="346" pos="0">
    <field name="frame.interface_id" showname="Interface id: 0 (-)" size="0" pos="0" show="0"/>
    <field name="frame.encap_type" showname="Encapsulation type: Ethernet (1)" size="0" pos="0" show="1"/>
    <field name="frame.time" showname="Arrival Time: Jan 29, 2020 04:45:40.602899000 India Standard Time" size="0" pos="0" show="Jan 29, 2020 04:45:40.602899000 India Standard Time"/>
    <field name="frame.offset_shift" showname="Time shift for this packet: 0.000000000 seconds" size="0" pos="0" show="0.000000000"/>
    <field name="frame.time_epoch" showname="Epoch Time: 1580253340.602899000 seconds" size="0" pos="0" show="1580253340.602899000"/>
    <field name="frame.time_delta" showname="Time delta from previous captured frame: 0.005468000 seconds" size="0" pos="0" show="0.005468000"/>
    <field name="frame.time_delta_displayed" showname="Time delta from previous displayed frame: 0.005468000 seconds" size="0" pos="0" show="0.005468000"/>
    <field name="frame.time_relative" showname="Time since reference or first frame: 869.201563000 seconds" size="0" pos="0" show="869.201563000"/>
    <field name="frame.number" showname="Frame Number: 1968" size="0" pos="0" show="1968"/>
    <field name="frame.len" showname="Frame Length: 346 bytes (2768 bits)" size="0" pos="0" show="346"/>
    <field name="frame.cap_len" showname="Capture Length: 346 bytes (2768 bits)" size="0" pos="0" show="346"/>
    <field name="frame.marked" showname="Frame is marked: False" size="0" pos="0" show="0"/>
    <field name="frame.ignored" showname="Frame is ignored: False" size="0" pos="0" show="0"/>
    <field name="frame.protocols" showname="Protocols in frame: eth:ethertype:vlan:ethertype:ip:udp:DHCP" size="0" pos="0" show="eth:ethertype:vlan:ethertype:ip:udp:DHCP"/>
    <field name="frame.coloring_rule.name" showname="Coloring Rule Name: UDP" size="0" pos="0" show="UDP"/>
    <field name="frame.coloring_rule.string" showname="Coloring Rule String: udp" size="0" pos="0" show="udp"/>
  </proto>
  <proto name="eth" showname="Ethernet II, Src: aa:bb:cc:00:01:00 (aa:bb:cc:00:01:00), Dst: Private_66:68:00 (00:50:79:66:68:00)" size="14" pos="0">
    <field name="eth.dst" showname="Destination: Private_66:68:00 (00:50:79:66:68:00)" size="6" pos="0" show="00:50:79:66:68:00" value="005079666800">
      <field name="eth.dst_resolved" showname="Destination (resolved): Private_66:68:00" hide="yes" size="6" pos="0" show="Private_66:68:00" value="005079666800"/>
      <field name="eth.addr" showname="Address: Private_66:68:00 (00:50:79:66:68:00)" size="6" pos="0" show="00:50:79:66:68:00" value="005079666800"/>
      <field name="eth.addr_resolved" showname="Address (resolved): Private_66:68:00" hide="yes" size="6" pos="0" show="Private_66:68:00" value="005079666800"/>
      <field name="eth.lg" showname=".... ..0. .... .... .... .... = LG bit: Globally unique address (factory default)" size="3" pos="0" show="0" value="0" unmaskedvalue="005079"/>
      <field name="eth.ig" showname=".... ...0 .... .... .... .... = IG bit: Individual address (unicast)" size="3" pos="0" show="0" value="0" unmaskedvalue="005079"/>
    </field>
    <field name="eth.src" showname="Source: aa:bb:cc:00:01:00 (aa:bb:cc:00:01:00)" size="6" pos="6" show="aa:bb:cc:00:01:00" value="aabbcc000100">
      <field name="eth.src_resolved" showname="Source (resolved): aa:bb:cc:00:01:00" hide="yes" size="6" pos="6" show="aa:bb:cc:00:01:00" value="aabbcc000100"/>
      <field name="eth.addr" showname="Address: aa:bb:cc:00:01:00 (aa:bb:cc:00:01:00)" size="6" pos="6" show="aa:bb:cc:00:01:00" value="aabbcc000100"/>
      <field name="eth.addr_resolved" showname="Address (resolved): aa:bb:cc:00:01:00" hide="yes" size="6" pos="6" show="aa:bb:cc:00:01:00" value="aabbcc000100"/>
      <field name="eth.lg" showname=".... ..1. .... .... .... .... = LG bit: Locally administered address (this is NOT the factory default)" size="3" pos="6" show="1" value="1" unmaskedvalue="aabbcc"/>
      <field name="eth.ig" showname=".... ...0 .... .... .... .... = IG bit: Individual address (unicast)" size="3" pos="6" show="0" value="0" unmaskedvalue="aabbcc"/>
    </field>
    <field name="eth.type" showname="Type: 802.1Q Virtual LAN (0x8100)" size="2" pos="12" show="0x00008100" value="8100"/>
  </proto>
  <proto name="vlan" showname="802.1Q Virtual LAN, PRI: 0, CFI: 0, ID: 100" size="4" pos="14">
    <field name="vlan.priority" showname="000. .... .... .... = Priority: Best Effort (default) (0)" size="2" pos="14" show="0" value="0" unmaskedvalue="0064"/>
    <field name="vlan.cfi" showname="...0 .... .... .... = CFI: Canonical (0)" size="2" pos="14" show="0" value="0" unmaskedvalue="0064"/>
    <field name="vlan.id" showname=".... 0000 0110 0100 = ID: 100" size="2" pos="14" show="100" value="64" unmaskedvalue="0064"/>
    <field name="vlan.etype" showname="Type: IPv4 (0x0800)" size="2" pos="16" show="0x00000800" value="0800"/>
  </proto>
  <proto name="ip" showname="Internet Protocol Version 4, Src: 192.168.100.1, Dst: 192.168.100.2" size="20" pos="18">
    <field name="ip.version" showname="0100 .... = Version: 4" size="1" pos="18" show="4" value="4" unmaskedvalue="45"/>
    <field name="ip.hdr_len" showname=".... 0101 = Header Length: 20 bytes (5)" size="1" pos="18" show="20" value="45"/>
    <field name="ip.dsfield" showname="Differentiated Services Field: 0x00 (DSCP: CS0, ECN: Not-ECT)" size="1" pos="19" show="0x00000000" value="00">
      <field name="ip.dsfield.dscp" showname="0000 00.. = Differentiated Services Codepoint: Default (0)" size="1" pos="19" show="0" value="0" unmaskedvalue="00"/>
      <field name="ip.dsfield.ecn" showname=".... ..00 = Explicit Congestion Notification: Not ECN-Capable Transport (0)" size="1" pos="19" show="0" value="0" unmaskedvalue="00"/>
    </field>
    <field name="ip.len" showname="Total Length: 328" size="2" pos="20" show="328" value="0148"/>
    <field name="ip.id" showname="Identification: 0x0003 (3)" size="2" pos="22" show="0x00000003" value="0003"/>
    <field name="ip.flags" showname="Flags: 0x00" size="1" pos="24" show="0x00000000" value="00">
      <field name="ip.flags.rb" showname="0... .... = Reserved bit: Not set" size="1" pos="24" show="0" value="00"/>
      <field name="ip.flags.df" showname=".0.. .... = Don&#x27;t fragment: Not set" size="1" pos="24" show="0" value="00"/>
      <field name="ip.flags.mf" showname="..0. .... = More fragments: Not set" size="1" pos="24" show="0" value="00"/>
    </field>
    <field name="ip.frag_offset" showname="Fragment offset: 0" size="2" pos="24" show="0" value="0000"/>
    <field name="ip.ttl" showname="Time to live: 255" size="1" pos="26" show="255" value="ff"/>
    <field name="ip.proto" showname="Protocol: UDP (17)" size="1" pos="27" show="17" value="11"/>
    <field name="ip.checksum" showname="Header checksum: 0x714d [validation disabled]" size="2" pos="28" show="0x0000714d" value="714d"/>
    <field name="ip.checksum.status" showname="Header checksum status: Unverified" size="0" pos="28" show="2"/>
    <field name="ip.src" showname="Source: 192.168.100.1" size="4" pos="30" show="192.168.100.1" value="c0a86401"/>
    <field name="ip.addr" showname="Source or Destination Address: 192.168.100.1" hide="yes" size="4" pos="30" show="192.168.100.1" value="c0a86401"/>
    <field name="ip.src_host" showname="Source Host: 192.168.100.1" hide="yes" size="4" pos="30" show="192.168.100.1" value="c0a86401"/>
    <field name="ip.host" showname="Source or Destination Host: 192.168.100.1" hide="yes" size="4" pos="30" show="192.168.100.1" value="c0a86401"/>
    <field name="ip.dst" showname="Destination: 192.168.100.2" size="4" pos="34" show="192.168.100.2" value="c0a86402"/>
    <field name="ip.addr" showname="Source or Destination Address: 192.168.100.2" hide="yes" size="4" pos="34" show="192.168.100.2" value="c0a86402"/>
    <field name="ip.dst_host" showname="Destination Host: 192.168.100.2" hide="yes" size="4" pos="34" show="192.168.100.2" value="c0a86402"/>
    <field name="ip.host" showname="Source or Destination Host: 192.168.100.2" hide="yes" size="4" pos="34" show="192.168.100.2" value="c0a86402"/>
    <field name="" show="Source GeoIP: Unknown" size="4" pos="30" value="c0a86401"/>
    <field name="" show="Destination GeoIP: Unknown" size="4" pos="34" value="c0a86402"/>
  </proto>
  <proto name="udp" showname="User Datagram Protocol, Src Port: 67, Dst Port: 68" size="8" pos="38">
    <field name="udp.srcport" showname="Source Port: 67" size="2" pos="38" show="67" value="0043"/>
    <field name="udp.dstport" showname="Destination Port: 68" size="2" pos="40" show="68" value="0044"/>
    <field name="udp.port" showname="Source or Destination Port: 67" hide="yes" size="2" pos="38" show="67" value="0043"/>
    <field name="udp.port" showname="Source or Destination Port: 68" hide="yes" size="2" pos="40" show="68" value="0044"/>
    <field name="udp.length" showname="Length: 308" size="2" pos="42" show="308" value="0134"/>
    <field name="udp.checksum" showname="Checksum: 0x9bb3 [unverified]" size="2" pos="44" show="0x00009bb3" value="9bb3"/>
    <field name="udp.checksum.status" showname="Checksum Status: Unverified" size="0" pos="44" show="2"/>
    <field name="udp.stream" showname="Stream index: 1" size="0" pos="46" show="1"/>
  </proto>
  <proto name="DHCP" showname="DHCP Protocol (ACK)" size="300" pos="46">
    <field name="DHCP.type" showname="Message type: Boot Reply (2)" size="1" pos="46" show="2" value="02"/>
    <field name="DHCP.hw.type" showname="Hardware type: Ethernet (0x01)" size="1" pos="47" show="0x00000001" value="01"/>
    <field name="DHCP.hw.len" showname="Hardware address length: 6" size="1" pos="48" show="6" value="06"/>
    <field name="DHCP.hops" showname="Hops: 0" size="1" pos="49" show="0" value="00"/>
    <field name="DHCP.id" showname="Transaction ID: 0xc9432067" size="4" pos="50" show="0xc9432067" value="c9432067"/>
    <field name="DHCP.secs" showname="Seconds elapsed: 0" size="2" pos="54" show="0" value="0000"/>
    <field name="DHCP.flags" showname="DHCP flags: 0x0000 (Unicast)" size="2" pos="56" show="0x00000000" value="0000">
      <field name="DHCP.flags.bc" showname="0... .... .... .... = Broadcast flag: Unicast" size="2" pos="56" show="0" value="0" unmaskedvalue="0000"/>
      <field name="DHCP.flags.reserved" showname=".000 0000 0000 0000 = Reserved flags: 0x0000" size="2" pos="56" show="0x00000000" value="0" unmaskedvalue="0000"/>
    </field>
    <field name="DHCP.ip.client" showname="Client IP address: 192.168.100.2" size="4" pos="58" show="192.168.100.2" value="c0a86402"/>
    <field name="DHCP.ip.your" showname="Your (client) IP address: 192.168.100.2" size="4" pos="62" show="192.168.100.2" value="c0a86402"/>
    <field name="DHCP.ip.server" showname="Next server IP address: 0.0.0.0" size="4" pos="66" show="0.0.0.0" value="00000000"/>
    <field name="DHCP.ip.relay" showname="Relay agent IP address: 0.0.0.0" size="4" pos="70" show="0.0.0.0" value="00000000"/>
    <field name="DHCP.hw.mac_addr" showname="Client MAC address: Private_66:68:00 (00:50:79:66:68:00)" size="6" pos="74" show="00:50:79:66:68:00" value="005079666800"/>
    <field name="DHCP.hw.addr_padding" showname="Client hardware address padding: 00000000000000000000" size="10" pos="80" show="00:00:00:00:00:00:00:00:00:00" value="00000000000000000000"/>
    <field name="DHCP.server" showname="Server host name not given" size="64" pos="90" show="" value="00000000000000000000000000000000000000000000000000000000000000000000000000000000000000000000000000000000000000000000000000000000"/>
    <field name="DHCP.file" showname="Boot file name not given" size="128" pos="154" show="" value="0000000000000000000000000000000000000000000000000000000000000000000000000000000000000000000000000000000000000000000000000000000000000000000000000000000000000000000000000000000000000000000000000000000000000000000000000000000000000000000000000000000000000000"/>
    <field name="DHCP.dhcp" showname="Frame is DHCP: True" hide="yes" size="0" pos="46" show="1"/>
    <field name="DHCP.cookie" showname="Magic cookie: DHCP" size="4" pos="282" show="99.130.83.99" value="63825363"/>
    <field name="DHCP.option.type" showname="Option: (53) DHCP Message Type (ACK)" size="3" pos="286" show="53" value="350105">
      <field name="DHCP.option.length" showname="Length: 1" size="1" pos="287" show="1" value="01"/>
      <field name="DHCP.option.value" showname="Value: 05" hide="yes" size="1" pos="288" show="05" value="05"/>
      <field name="DHCP.option.dhcp" showname="DHCP: ACK (5)" size="1" pos="288" show="5" value="05"/>
    </field>
    <field name="DHCP.option.type" showname="Option: (54) DHCP Server Identifier" size="6" pos="289" show="54" value="3604c0a86401">
      <field name="DHCP.option.length" showname="Length: 4" size="1" pos="290" show="4" value="04"/>
      <field name="DHCP.option.value" showname="Value: c0a86401" hide="yes" size="4" pos="291" show="c0:a8:64:01" value="c0a86401"/>
      <field name="DHCP.option.dhcp_server_id" showname="DHCP Server Identifier: 192.168.100.1" size="4" pos="291" show="192.168.100.1" value="c0a86401"/>
    </field>
    <field name="DHCP.option.type" showname="Option: (51) IP Address Lease Time" size="6" pos="295" show="51" value="330400015180">
      <field name="DHCP.option.length" showname="Length: 4" size="1" pos="296" show="4" value="04"/>
      <field name="DHCP.option.value" showname="Value: 00015180" hide="yes" size="4" pos="297" show="00:01:51:80" value="00015180"/>
      <field name="DHCP.option.ip_address_lease_time" showname="IP Address Lease Time: (86400s) 1 day" size="4" pos="297" show="86400" value="00015180"/>
    </field>
    <field name="DHCP.option.type" showname="Option: (58) Renewal Time Value" size="6" pos="301" show="58" value="3a040000a8c0">
      <field name="DHCP.option.length" showname="Length: 4" size="1" pos="302" show="4" value="04"/>
      <field name="DHCP.option.value" showname="Value: 0000a8c0" hide="yes" size="4" pos="303" show="00:00:a8:c0" value="0000a8c0"/>
      <field name="DHCP.option.renewal_time_value" showname="Renewal Time Value: (43200s) 12 hours" size="4" pos="303" show="43200" value="0000a8c0"/>
    </field>
    <field name="DHCP.option.type" showname="Option: (59) Rebinding Time Value" size="6" pos="307" show="59" value="3b0400012750">
      <field name="DHCP.option.length" showname="Length: 4" size="1" pos="308" show="4" value="04"/>
      <field name="DHCP.option.value" showname="Value: 00012750" hide="yes" size="4" pos="309" show="00:01:27:50" value="00012750"/>
      <field name="DHCP.option.rebinding_time_value" showname="Rebinding Time Value: (75600s) 21 hours" size="4" pos="309" show="75600" value="00012750"/>
    </field>
    <field name="DHCP.option.type" showname="Option: (1) Subnet Mask" size="6" pos="313" show="1" value="0104ffffff00">
      <field name="DHCP.option.length" showname="Length: 4" size="1" pos="314" show="4" value="04"/>
      <field name="DHCP.option.value" showname="Value: ffffff00" hide="yes" size="4" pos="315" show="ff:ff:ff:00" value="ffffff00"/>
      <field name="DHCP.option.subnet_mask" showname="Subnet Mask: 255.255.255.0" size="4" pos="315" show="255.255.255.0" value="ffffff00"/>
    </field>
    <field name="DHCP.option.type" showname="Option: (6) Domain Name Server" size="6" pos="319" show="6" value="060404020202">
      <field name="DHCP.option.length" showname="Length: 4" size="1" pos="320" show="4" value="04"/>
      <field name="DHCP.option.value" showname="Value: 04020202" hide="yes" size="4" pos="321" show="04:02:02:02" value="04020202"/>
      <field name="DHCP.option.domain_name_server" showname="Domain Name Server: 4.2.2.2" size="4" pos="321" show="4.2.2.2" value="04020202"/>
    </field>
    <field name="DHCP.option.type" showname="Option: (3) Router" size="6" pos="325" show="3" value="0304c0a86401">
      <field name="DHCP.option.length" showname="Length: 4" size="1" pos="326" show="4" value="04"/>
      <field name="DHCP.option.value" showname="Value: c0a86401" hide="yes" size="4" pos="327" show="c0:a8:64:01" value="c0a86401"/>
      <field name="DHCP.option.router" showname="Router: 192.168.100.1" size="4" pos="327" show="192.168.100.1" value="c0a86401"/>
    </field>
    <field name="DHCP.option.type" showname="Option: (255) End" size="1" pos="331" show="0" value="ff">
      <field name="DHCP.option.end" showname="Option End: 255" size="1" pos="331" show="255" value="ff"/>
    </field>
    <field name="DHCP.option.padding" showname="Padding: 0000000000000000000000000000" size="14" pos="332" show="00:00:00:00:00:00:00:00:00:00:00:00:00:00" value="0000000000000000000000000000"/>
  </proto>
</packet>

<packet>
  <proto name="geninfo" pos="0" showname="General information" size="68">
    <field name="num" pos="0" show="1969" showname="Number" value="7b1" size="68"/>
    <field name="len" pos="0" show="68" showname="Frame Length" value="44" size="68"/>
    <field name="caplen" pos="0" show="68" showname="Captured Length" value="44" size="68"/>
    <field name="timestamp" pos="0" show="Jan 29, 2020 04:45:41.596486000 India Standard Time" showname="Captured Time" value="1580253341.596486000" size="68"/>
  </proto>
  <proto name="frame" showname="Frame 1969: 68 bytes on wire (544 bits), 68 bytes captured (544 bits) on interface 0" size="68" pos="0">
    <field name="frame.interface_id" showname="Interface id: 0 (-)" size="0" pos="0" show="0"/>
    <field name="frame.encap_type" showname="Encapsulation type: Ethernet (1)" size="0" pos="0" show="1"/>
    <field name="frame.time" showname="Arrival Time: Jan 29, 2020 04:45:41.596486000 India Standard Time" size="0" pos="0" show="Jan 29, 2020 04:45:41.596486000 India Standard Time"/>
    <field name="frame.offset_shift" showname="Time shift for this packet: 0.000000000 seconds" size="0" pos="0" show="0.000000000"/>
    <field name="frame.time_epoch" showname="Epoch Time: 1580253341.596486000 seconds" size="0" pos="0" show="1580253341.596486000"/>
    <field name="frame.time_delta" showname="Time delta from previous captured frame: 0.993587000 seconds" size="0" pos="0" show="0.993587000"/>
    <field name="frame.time_delta_displayed" showname="Time delta from previous displayed frame: 0.993587000 seconds" size="0" pos="0" show="0.993587000"/>
    <field name="frame.time_relative" showname="Time since reference or first frame: 870.195150000 seconds" size="0" pos="0" show="870.195150000"/>
    <field name="frame.number" showname="Frame Number: 1969" size="0" pos="0" show="1969"/>
    <field name="frame.len" showname="Frame Length: 68 bytes (544 bits)" size="0" pos="0" show="68"/>
    <field name="frame.cap_len" showname="Capture Length: 68 bytes (544 bits)" size="0" pos="0" show="68"/>
    <field name="frame.marked" showname="Frame is marked: False" size="0" pos="0" show="0"/>
    <field name="frame.ignored" showname="Frame is ignored: False" size="0" pos="0" show="0"/>
    <field name="frame.protocols" showname="Protocols in frame: eth:ethertype:vlan:ethertype:arp" size="0" pos="0" show="eth:ethertype:vlan:ethertype:arp"/>
    <field name="frame.coloring_rule.name" showname="Coloring Rule Name: ARP" size="0" pos="0" show="ARP"/>
    <field name="frame.coloring_rule.string" showname="Coloring Rule String: arp" size="0" pos="0" show="arp"/>
  </proto>
  <proto name="eth" showname="Ethernet II, Src: Private_66:68:00 (00:50:79:66:68:00), Dst: Broadcast (ff:ff:ff:ff:ff:ff)" size="14" pos="0">
    <field name="eth.dst" showname="Destination: Broadcast (ff:ff:ff:ff:ff:ff)" size="6" pos="0" show="ff:ff:ff:ff:ff:ff" value="ffffffffffff">
      <field name="eth.dst_resolved" showname="Destination (resolved): Broadcast" hide="yes" size="6" pos="0" show="Broadcast" value="ffffffffffff"/>
      <field name="eth.addr" showname="Address: Broadcast (ff:ff:ff:ff:ff:ff)" size="6" pos="0" show="ff:ff:ff:ff:ff:ff" value="ffffffffffff"/>
      <field name="eth.addr_resolved" showname="Address (resolved): Broadcast" hide="yes" size="6" pos="0" show="Broadcast" value="ffffffffffff"/>
      <field name="eth.lg" showname=".... ..1. .... .... .... .... = LG bit: Locally administered address (this is NOT the factory default)" size="3" pos="0" show="1" value="1" unmaskedvalue="ffffff"/>
      <field name="eth.ig" showname=".... ...1 .... .... .... .... = IG bit: Group address (multicast/broadcast)" size="3" pos="0" show="1" value="1" unmaskedvalue="ffffff"/>
    </field>
    <field name="eth.src" showname="Source: Private_66:68:00 (00:50:79:66:68:00)" size="6" pos="6" show="00:50:79:66:68:00" value="005079666800">
      <field name="eth.src_resolved" showname="Source (resolved): Private_66:68:00" hide="yes" size="6" pos="6" show="Private_66:68:00" value="005079666800"/>
      <field name="eth.addr" showname="Address: Private_66:68:00 (00:50:79:66:68:00)" size="6" pos="6" show="00:50:79:66:68:00" value="005079666800"/>
      <field name="eth.addr_resolved" showname="Address (resolved): Private_66:68:00" hide="yes" size="6" pos="6" show="Private_66:68:00" value="005079666800"/>
      <field name="eth.lg" showname=".... ..0. .... .... .... .... = LG bit: Globally unique address (factory default)" size="3" pos="6" show="0" value="0" unmaskedvalue="005079"/>
      <field name="eth.ig" showname=".... ...0 .... .... .... .... = IG bit: Individual address (unicast)" size="3" pos="6" show="0" value="0" unmaskedvalue="005079"/>
    </field>
    <field name="eth.type" showname="Type: 802.1Q Virtual LAN (0x8100)" size="2" pos="12" show="0x00008100" value="8100"/>
  </proto>
  <proto name="vlan" showname="802.1Q Virtual LAN, PRI: 0, CFI: 0, ID: 100" size="4" pos="14">
    <field name="vlan.priority" showname="000. .... .... .... = Priority: Best Effort (default) (0)" size="2" pos="14" show="0" value="0" unmaskedvalue="0064"/>
    <field name="vlan.cfi" showname="...0 .... .... .... = CFI: Canonical (0)" size="2" pos="14" show="0" value="0" unmaskedvalue="0064"/>
    <field name="vlan.id" showname=".... 0000 0110 0100 = ID: 100" size="2" pos="14" show="100" value="64" unmaskedvalue="0064"/>
    <field name="vlan.etype" showname="Type: ARP (0x0806)" size="2" pos="16" show="0x00000806" value="0806"/>
    <field name="eth.padding" showname="Padding: 0000000000000000000000000000" size="14" pos="46" show="00:00:00:00:00:00:00:00:00:00:00:00:00:00" value="0000000000000000000000000000"/>
    <field name="vlan.trailer" showname="Trailer: 0000000000000000" size="8" pos="60" show="00:00:00:00:00:00:00:00" value="0000000000000000"/>
  </proto>
  <proto name="arp" showname="Address Resolution Protocol (request/gratuitous ARP)" size="28" pos="18">
    <field name="arp.hw.type" showname="Hardware type: Ethernet (1)" size="2" pos="18" show="1" value="0001"/>
    <field name="arp.proto.type" showname="Protocol type: IPv4 (0x0800)" size="2" pos="20" show="0x00000800" value="0800"/>
    <field name="arp.hw.size" showname="Hardware size: 6" size="1" pos="22" show="6" value="06"/>
    <field name="arp.proto.size" showname="Protocol size: 4" size="1" pos="23" show="4" value="04"/>
    <field name="arp.opcode" showname="Opcode: request (1)" size="2" pos="24" show="1" value="0001"/>
    <field name="arp.isgratuitous" showname="Is gratuitous: True" size="0" pos="18" show="1"/>
    <field name="arp.src.hw_mac" showname="Sender MAC address: Private_66:68:00 (00:50:79:66:68:00)" size="6" pos="26" show="00:50:79:66:68:00" value="005079666800"/>
    <field name="arp.src.proto_ipv4" showname="Sender IP address: 192.168.100.2" size="4" pos="32" show="192.168.100.2" value="c0a86402"/>
    <field name="arp.dst.hw_mac" showname="Target MAC address: Broadcast (ff:ff:ff:ff:ff:ff)" size="6" pos="36" show="ff:ff:ff:ff:ff:ff" value="ffffffffffff"/>
    <field name="arp.dst.proto_ipv4" showname="Target IP address: 192.168.100.2" size="4" pos="42" show="192.168.100.2" value="c0a86402"/>
  </proto>
</packet>

<packet>
  <proto name="geninfo" pos="0" showname="General information" size="68">
    <field name="num" pos="0" show="1974" showname="Number" value="7b6" size="68"/>
    <field name="len" pos="0" show="68" showname="Frame Length" value="44" size="68"/>
    <field name="caplen" pos="0" show="68" showname="Captured Length" value="44" size="68"/>
    <field name="timestamp" pos="0" show="Jan 29, 2020 04:45:42.597389000 India Standard Time" showname="Captured Time" value="1580253342.597389000" size="68"/>
  </proto>
  <proto name="frame" showname="Frame 1974: 68 bytes on wire (544 bits), 68 bytes captured (544 bits) on interface 0" size="68" pos="0">
    <field name="frame.interface_id" showname="Interface id: 0 (-)" size="0" pos="0" show="0"/>
    <field name="frame.encap_type" showname="Encapsulation type: Ethernet (1)" size="0" pos="0" show="1"/>
    <field name="frame.time" showname="Arrival Time: Jan 29, 2020 04:45:42.597389000 India Standard Time" size="0" pos="0" show="Jan 29, 2020 04:45:42.597389000 India Standard Time"/>
    <field name="frame.offset_shift" showname="Time shift for this packet: 0.000000000 seconds" size="0" pos="0" show="0.000000000"/>
    <field name="frame.time_epoch" showname="Epoch Time: 1580253342.597389000 seconds" size="0" pos="0" show="1580253342.597389000"/>
    <field name="frame.time_delta" showname="Time delta from previous captured frame: 0.595446000 seconds" size="0" pos="0" show="0.595446000"/>
    <field name="frame.time_delta_displayed" showname="Time delta from previous displayed frame: 1.000903000 seconds" size="0" pos="0" show="1.000903000"/>
    <field name="frame.time_relative" showname="Time since reference or first frame: 871.196053000 seconds" size="0" pos="0" show="871.196053000"/>
    <field name="frame.number" showname="Frame Number: 1974" size="0" pos="0" show="1974"/>
    <field name="frame.len" showname="Frame Length: 68 bytes (544 bits)" size="0" pos="0" show="68"/>
    <field name="frame.cap_len" showname="Capture Length: 68 bytes (544 bits)" size="0" pos="0" show="68"/>
    <field name="frame.marked" showname="Frame is marked: False" size="0" pos="0" show="0"/>
    <field name="frame.ignored" showname="Frame is ignored: False" size="0" pos="0" show="0"/>
    <field name="frame.protocols" showname="Protocols in frame: eth:ethertype:vlan:ethertype:arp" size="0" pos="0" show="eth:ethertype:vlan:ethertype:arp"/>
    <field name="frame.coloring_rule.name" showname="Coloring Rule Name: ARP" size="0" pos="0" show="ARP"/>
    <field name="frame.coloring_rule.string" showname="Coloring Rule String: arp" size="0" pos="0" show="arp"/>
  </proto>
  <proto name="eth" showname="Ethernet II, Src: Private_66:68:00 (00:50:79:66:68:00), Dst: Broadcast (ff:ff:ff:ff:ff:ff)" size="14" pos="0">
    <field name="eth.dst" showname="Destination: Broadcast (ff:ff:ff:ff:ff:ff)" size="6" pos="0" show="ff:ff:ff:ff:ff:ff" value="ffffffffffff">
      <field name="eth.dst_resolved" showname="Destination (resolved): Broadcast" hide="yes" size="6" pos="0" show="Broadcast" value="ffffffffffff"/>
      <field name="eth.addr" showname="Address: Broadcast (ff:ff:ff:ff:ff:ff)" size="6" pos="0" show="ff:ff:ff:ff:ff:ff" value="ffffffffffff"/>
      <field name="eth.addr_resolved" showname="Address (resolved): Broadcast" hide="yes" size="6" pos="0" show="Broadcast" value="ffffffffffff"/>
      <field name="eth.lg" showname=".... ..1. .... .... .... .... = LG bit: Locally administered address (this is NOT the factory default)" size="3" pos="0" show="1" value="1" unmaskedvalue="ffffff"/>
      <field name="eth.ig" showname=".... ...1 .... .... .... .... = IG bit: Group address (multicast/broadcast)" size="3" pos="0" show="1" value="1" unmaskedvalue="ffffff"/>
    </field>
    <field name="eth.src" showname="Source: Private_66:68:00 (00:50:79:66:68:00)" size="6" pos="6" show="00:50:79:66:68:00" value="005079666800">
      <field name="eth.src_resolved" showname="Source (resolved): Private_66:68:00" hide="yes" size="6" pos="6" show="Private_66:68:00" value="005079666800"/>
      <field name="eth.addr" showname="Address: Private_66:68:00 (00:50:79:66:68:00)" size="6" pos="6" show="00:50:79:66:68:00" value="005079666800"/>
      <field name="eth.addr_resolved" showname="Address (resolved): Private_66:68:00" hide="yes" size="6" pos="6" show="Private_66:68:00" value="005079666800"/>
      <field name="eth.lg" showname=".... ..0. .... .... .... .... = LG bit: Globally unique address (factory default)" size="3" pos="6" show="0" value="0" unmaskedvalue="005079"/>
      <field name="eth.ig" showname=".... ...0 .... .... .... .... = IG bit: Individual address (unicast)" size="3" pos="6" show="0" value="0" unmaskedvalue="005079"/>
    </field>
    <field name="eth.type" showname="Type: 802.1Q Virtual LAN (0x8100)" size="2" pos="12" show="0x00008100" value="8100"/>
  </proto>
  <proto name="vlan" showname="802.1Q Virtual LAN, PRI: 0, CFI: 0, ID: 100" size="4" pos="14">
    <field name="vlan.priority" showname="000. .... .... .... = Priority: Best Effort (default) (0)" size="2" pos="14" show="0" value="0" unmaskedvalue="0064"/>
    <field name="vlan.cfi" showname="...0 .... .... .... = CFI: Canonical (0)" size="2" pos="14" show="0" value="0" unmaskedvalue="0064"/>
    <field name="vlan.id" showname=".... 0000 0110 0100 = ID: 100" size="2" pos="14" show="100" value="64" unmaskedvalue="0064"/>
    <field name="vlan.etype" showname="Type: ARP (0x0806)" size="2" pos="16" show="0x00000806" value="0806"/>
    <field name="eth.padding" showname="Padding: 0000000000000000000000000000" size="14" pos="46" show="00:00:00:00:00:00:00:00:00:00:00:00:00:00" value="0000000000000000000000000000"/>
    <field name="vlan.trailer" showname="Trailer: 0000000000000000" size="8" pos="60" show="00:00:00:00:00:00:00:00" value="0000000000000000"/>
  </proto>
  <proto name="arp" showname="Address Resolution Protocol (request/gratuitous ARP)" size="28" pos="18">
    <field name="arp.hw.type" showname="Hardware type: Ethernet (1)" size="2" pos="18" show="1" value="0001"/>
    <field name="arp.proto.type" showname="Protocol type: IPv4 (0x0800)" size="2" pos="20" show="0x00000800" value="0800"/>
    <field name="arp.hw.size" showname="Hardware size: 6" size="1" pos="22" show="6" value="06"/>
    <field name="arp.proto.size" showname="Protocol size: 4" size="1" pos="23" show="4" value="04"/>
    <field name="arp.opcode" showname="Opcode: request (1)" size="2" pos="24" show="1" value="0001"/>
    <field name="arp.isgratuitous" showname="Is gratuitous: True" size="0" pos="18" show="1"/>
    <field name="arp.src.hw_mac" showname="Sender MAC address: Private_66:68:00 (00:50:79:66:68:00)" size="6" pos="26" show="00:50:79:66:68:00" value="005079666800"/>
    <field name="arp.src.proto_ipv4" showname="Sender IP address: 192.168.100.2" size="4" pos="32" show="192.168.100.2" value="c0a86402"/>
    <field name="arp.dst.hw_mac" showname="Target MAC address: Broadcast (ff:ff:ff:ff:ff:ff)" size="6" pos="36" show="ff:ff:ff:ff:ff:ff" value="ffffffffffff"/>
    <field name="arp.dst.proto_ipv4" showname="Target IP address: 192.168.100.2" size="4" pos="42" show="192.168.100.2" value="c0a86402"/>
  </proto>
</packet>

<packet>
  <proto name="geninfo" pos="0" showname="General information" size="68">
    <field name="num" pos="0" show="1975" showname="Number" value="7b7" size="68"/>
    <field name="len" pos="0" show="68" showname="Frame Length" value="44" size="68"/>
    <field name="caplen" pos="0" show="68" showname="Captured Length" value="44" size="68"/>
    <field name="timestamp" pos="0" show="Jan 29, 2020 04:45:43.607223000 India Standard Time" showname="Captured Time" value="1580253343.607223000" size="68"/>
  </proto>
  <proto name="frame" showname="Frame 1975: 68 bytes on wire (544 bits), 68 bytes captured (544 bits) on interface 0" size="68" pos="0">
    <field name="frame.interface_id" showname="Interface id: 0 (-)" size="0" pos="0" show="0"/>
    <field name="frame.encap_type" showname="Encapsulation type: Ethernet (1)" size="0" pos="0" show="1"/>
    <field name="frame.time" showname="Arrival Time: Jan 29, 2020 04:45:43.607223000 India Standard Time" size="0" pos="0" show="Jan 29, 2020 04:45:43.607223000 India Standard Time"/>
    <field name="frame.offset_shift" showname="Time shift for this packet: 0.000000000 seconds" size="0" pos="0" show="0.000000000"/>
    <field name="frame.time_epoch" showname="Epoch Time: 1580253343.607223000 seconds" size="0" pos="0" show="1580253343.607223000"/>
    <field name="frame.time_delta" showname="Time delta from previous captured frame: 1.009834000 seconds" size="0" pos="0" show="1.009834000"/>
    <field name="frame.time_delta_displayed" showname="Time delta from previous displayed frame: 1.009834000 seconds" size="0" pos="0" show="1.009834000"/>
    <field name="frame.time_relative" showname="Time since reference or first frame: 872.205887000 seconds" size="0" pos="0" show="872.205887000"/>
    <field name="frame.number" showname="Frame Number: 1975" size="0" pos="0" show="1975"/>
    <field name="frame.len" showname="Frame Length: 68 bytes (544 bits)" size="0" pos="0" show="68"/>
    <field name="frame.cap_len" showname="Capture Length: 68 bytes (544 bits)" size="0" pos="0" show="68"/>
    <field name="frame.marked" showname="Frame is marked: False" size="0" pos="0" show="0"/>
    <field name="frame.ignored" showname="Frame is ignored: False" size="0" pos="0" show="0"/>
    <field name="frame.protocols" showname="Protocols in frame: eth:ethertype:vlan:ethertype:arp" size="0" pos="0" show="eth:ethertype:vlan:ethertype:arp"/>
    <field name="frame.coloring_rule.name" showname="Coloring Rule Name: ARP" size="0" pos="0" show="ARP"/>
    <field name="frame.coloring_rule.string" showname="Coloring Rule String: arp" size="0" pos="0" show="arp"/>
  </proto>
  <proto name="eth" showname="Ethernet II, Src: Private_66:68:00 (00:50:79:66:68:00), Dst: Broadcast (ff:ff:ff:ff:ff:ff)" size="14" pos="0">
    <field name="eth.dst" showname="Destination: Broadcast (ff:ff:ff:ff:ff:ff)" size="6" pos="0" show="ff:ff:ff:ff:ff:ff" value="ffffffffffff">
      <field name="eth.dst_resolved" showname="Destination (resolved): Broadcast" hide="yes" size="6" pos="0" show="Broadcast" value="ffffffffffff"/>
      <field name="eth.addr" showname="Address: Broadcast (ff:ff:ff:ff:ff:ff)" size="6" pos="0" show="ff:ff:ff:ff:ff:ff" value="ffffffffffff"/>
      <field name="eth.addr_resolved" showname="Address (resolved): Broadcast" hide="yes" size="6" pos="0" show="Broadcast" value="ffffffffffff"/>
      <field name="eth.lg" showname=".... ..1. .... .... .... .... = LG bit: Locally administered address (this is NOT the factory default)" size="3" pos="0" show="1" value="1" unmaskedvalue="ffffff"/>
      <field name="eth.ig" showname=".... ...1 .... .... .... .... = IG bit: Group address (multicast/broadcast)" size="3" pos="0" show="1" value="1" unmaskedvalue="ffffff"/>
    </field>
    <field name="eth.src" showname="Source: Private_66:68:00 (00:50:79:66:68:00)" size="6" pos="6" show="00:50:79:66:68:00" value="005079666800">
      <field name="eth.src_resolved" showname="Source (resolved): Private_66:68:00" hide="yes" size="6" pos="6" show="Private_66:68:00" value="005079666800"/>
      <field name="eth.addr" showname="Address: Private_66:68:00 (00:50:79:66:68:00)" size="6" pos="6" show="00:50:79:66:68:00" value="005079666800"/>
      <field name="eth.addr_resolved" showname="Address (resolved): Private_66:68:00" hide="yes" size="6" pos="6" show="Private_66:68:00" value="005079666800"/>
      <field name="eth.lg" showname=".... ..0. .... .... .... .... = LG bit: Globally unique address (factory default)" size="3" pos="6" show="0" value="0" unmaskedvalue="005079"/>
      <field name="eth.ig" showname=".... ...0 .... .... .... .... = IG bit: Individual address (unicast)" size="3" pos="6" show="0" value="0" unmaskedvalue="005079"/>
    </field>
    <field name="eth.type" showname="Type: 802.1Q Virtual LAN (0x8100)" size="2" pos="12" show="0x00008100" value="8100"/>
  </proto>
  <proto name="vlan" showname="802.1Q Virtual LAN, PRI: 0, CFI: 0, ID: 100" size="4" pos="14">
    <field name="vlan.priority" showname="000. .... .... .... = Priority: Best Effort (default) (0)" size="2" pos="14" show="0" value="0" unmaskedvalue="0064"/>
    <field name="vlan.cfi" showname="...0 .... .... .... = CFI: Canonical (0)" size="2" pos="14" show="0" value="0" unmaskedvalue="0064"/>
    <field name="vlan.id" showname=".... 0000 0110 0100 = ID: 100" size="2" pos="14" show="100" value="64" unmaskedvalue="0064"/>
    <field name="vlan.etype" showname="Type: ARP (0x0806)" size="2" pos="16" show="0x00000806" value="0806"/>
    <field name="eth.padding" showname="Padding: 0000000000000000000000000000" size="14" pos="46" show="00:00:00:00:00:00:00:00:00:00:00:00:00:00" value="0000000000000000000000000000"/>
    <field name="vlan.trailer" showname="Trailer: 0000000000000000" size="8" pos="60" show="00:00:00:00:00:00:00:00" value="0000000000000000"/>
  </proto>
  <proto name="arp" showname="Address Resolution Protocol (request/gratuitous ARP)" size="28" pos="18">
    <field name="arp.hw.type" showname="Hardware type: Ethernet (1)" size="2" pos="18" show="1" value="0001"/>
    <field name="arp.proto.type" showname="Protocol type: IPv4 (0x0800)" size="2" pos="20" show="0x00000800" value="0800"/>
    <field name="arp.hw.size" showname="Hardware size: 6" size="1" pos="22" show="6" value="06"/>
    <field name="arp.proto.size" showname="Protocol size: 4" size="1" pos="23" show="4" value="04"/>
    <field name="arp.opcode" showname="Opcode: request (1)" size="2" pos="24" show="1" value="0001"/>
    <field name="arp.isgratuitous" showname="Is gratuitous: True" size="0" pos="18" show="1"/>
    <field name="arp.src.hw_mac" showname="Sender MAC address: Private_66:68:00 (00:50:79:66:68:00)" size="6" pos="26" show="00:50:79:66:68:00" value="005079666800"/>
    <field name="arp.src.proto_ipv4" showname="Sender IP address: 192.168.100.2" size="4" pos="32" show="192.168.100.2" value="c0a86402"/>
    <field name="arp.dst.hw_mac" showname="Target MAC address: Broadcast (ff:ff:ff:ff:ff:ff)" size="6" pos="36" show="ff:ff:ff:ff:ff:ff" value="ffffffffffff"/>
    <field name="arp.dst.proto_ipv4" showname="Target IP address: 192.168.100.2" size="4" pos="42" show="192.168.100.2" value="c0a86402"/>
  </proto>
</packet>

<packet>
  <proto name="geninfo" pos="0" showname="General information" size="410">
    <field name="num" pos="0" show="2413" showname="Number" value="96d" size="410"/>
    <field name="len" pos="0" show="410" showname="Frame Length" value="19a" size="410"/>
    <field name="caplen" pos="0" show="410" showname="Captured Length" value="19a" size="410"/>
    <field name="timestamp" pos="0" show="Jan 29, 2020 04:48:57.480754000 India Standard Time" showname="Captured Time" value="1580253537.480754000" size="410"/>
  </proto>
  <proto name="frame" showname="Frame 2413: 410 bytes on wire (3280 bits), 410 bytes captured (3280 bits) on interface 0" size="410" pos="0">
    <field name="frame.interface_id" showname="Interface id: 0 (-)" size="0" pos="0" show="0"/>
    <field name="frame.encap_type" showname="Encapsulation type: Ethernet (1)" size="0" pos="0" show="1"/>
    <field name="frame.time" showname="Arrival Time: Jan 29, 2020 04:48:57.480754000 India Standard Time" size="0" pos="0" show="Jan 29, 2020 04:48:57.480754000 India Standard Time"/>
    <field name="frame.offset_shift" showname="Time shift for this packet: 0.000000000 seconds" size="0" pos="0" show="0.000000000"/>
    <field name="frame.time_epoch" showname="Epoch Time: 1580253537.480754000 seconds" size="0" pos="0" show="1580253537.480754000"/>
    <field name="frame.time_delta" showname="Time delta from previous captured frame: 0.984398000 seconds" size="0" pos="0" show="0.984398000"/>
    <field name="frame.time_delta_displayed" showname="Time delta from previous displayed frame: 193.873531000 seconds" size="0" pos="0" show="193.873531000"/>
    <field name="frame.time_relative" showname="Time since reference or first frame: 1066.079418000 seconds" size="0" pos="0" show="1066.079418000"/>
    <field name="frame.number" showname="Frame Number: 2413" size="0" pos="0" show="2413"/>
    <field name="frame.len" showname="Frame Length: 410 bytes (3280 bits)" size="0" pos="0" show="410"/>
    <field name="frame.cap_len" showname="Capture Length: 410 bytes (3280 bits)" size="0" pos="0" show="410"/>
    <field name="frame.marked" showname="Frame is marked: False" size="0" pos="0" show="0"/>
    <field name="frame.ignored" showname="Frame is ignored: False" size="0" pos="0" show="0"/>
    <field name="frame.protocols" showname="Protocols in frame: eth:ethertype:vlan:ethertype:ip:udp:DHCP" size="0" pos="0" show="eth:ethertype:vlan:ethertype:ip:udp:DHCP"/>
    <field name="frame.coloring_rule.name" showname="Coloring Rule Name: UDP" size="0" pos="0" show="UDP"/>
    <field name="frame.coloring_rule.string" showname="Coloring Rule String: udp" size="0" pos="0" show="udp"/>
  </proto>
  <proto name="eth" showname="Ethernet II, Src: Private_66:68:00 (00:50:79:66:68:00), Dst: aa:bb:cc:00:01:00 (aa:bb:cc:00:01:00)" size="14" pos="0">
    <field name="eth.dst" showname="Destination: aa:bb:cc:00:01:00 (aa:bb:cc:00:01:00)" size="6" pos="0" show="aa:bb:cc:00:01:00" value="aabbcc000100">
      <field name="eth.dst_resolved" showname="Destination (resolved): aa:bb:cc:00:01:00" hide="yes" size="6" pos="0" show="aa:bb:cc:00:01:00" value="aabbcc000100"/>
      <field name="eth.addr" showname="Address: aa:bb:cc:00:01:00 (aa:bb:cc:00:01:00)" size="6" pos="0" show="aa:bb:cc:00:01:00" value="aabbcc000100"/>
      <field name="eth.addr_resolved" showname="Address (resolved): aa:bb:cc:00:01:00" hide="yes" size="6" pos="0" show="aa:bb:cc:00:01:00" value="aabbcc000100"/>
      <field name="eth.lg" showname=".... ..1. .... .... .... .... = LG bit: Locally administered address (this is NOT the factory default)" size="3" pos="0" show="1" value="1" unmaskedvalue="aabbcc"/>
      <field name="eth.ig" showname=".... ...0 .... .... .... .... = IG bit: Individual address (unicast)" size="3" pos="0" show="0" value="0" unmaskedvalue="aabbcc"/>
    </field>
    <field name="eth.src" showname="Source: Private_66:68:00 (00:50:79:66:68:00)" size="6" pos="6" show="00:50:79:66:68:00" value="005079666800">
      <field name="eth.src_resolved" showname="Source (resolved): Private_66:68:00" hide="yes" size="6" pos="6" show="Private_66:68:00" value="005079666800"/>
      <field name="eth.addr" showname="Address: Private_66:68:00 (00:50:79:66:68:00)" size="6" pos="6" show="00:50:79:66:68:00" value="005079666800"/>
      <field name="eth.addr_resolved" showname="Address (resolved): Private_66:68:00" hide="yes" size="6" pos="6" show="Private_66:68:00" value="005079666800"/>
      <field name="eth.lg" showname=".... ..0. .... .... .... .... = LG bit: Globally unique address (factory default)" size="3" pos="6" show="0" value="0" unmaskedvalue="005079"/>
      <field name="eth.ig" showname=".... ...0 .... .... .... .... = IG bit: Individual address (unicast)" size="3" pos="6" show="0" value="0" unmaskedvalue="005079"/>
    </field>
    <field name="eth.type" showname="Type: 802.1Q Virtual LAN (0x8100)" size="2" pos="12" show="0x00008100" value="8100"/>
  </proto>
  <proto name="vlan" showname="802.1Q Virtual LAN, PRI: 0, CFI: 0, ID: 100" size="4" pos="14">
    <field name="vlan.priority" showname="000. .... .... .... = Priority: Best Effort (default) (0)" size="2" pos="14" show="0" value="0" unmaskedvalue="0064"/>
    <field name="vlan.cfi" showname="...0 .... .... .... = CFI: Canonical (0)" size="2" pos="14" show="0" value="0" unmaskedvalue="0064"/>
    <field name="vlan.id" showname=".... 0000 0110 0100 = ID: 100" size="2" pos="14" show="100" value="64" unmaskedvalue="0064"/>
    <field name="vlan.etype" showname="Type: IPv4 (0x0800)" size="2" pos="16" show="0x00000800" value="0800"/>
  </proto>
  <proto name="ip" showname="Internet Protocol Version 4, Src: 192.168.100.2, Dst: 192.168.100.1" size="20" pos="18">
    <field name="ip.version" showname="0100 .... = Version: 4" size="1" pos="18" show="4" value="4" unmaskedvalue="45"/>
    <field name="ip.hdr_len" showname=".... 0101 = Header Length: 20 bytes (5)" size="1" pos="18" show="20" value="45"/>
    <field name="ip.dsfield" showname="Differentiated Services Field: 0x10 (DSCP: Unknown, ECN: Not-ECT)" size="1" pos="19" show="0x00000010" value="10">
      <field name="ip.dsfield.dscp" showname="0001 00.. = Differentiated Services Codepoint: Unknown (4)" size="1" pos="19" show="4" value="4" unmaskedvalue="10"/>
      <field name="ip.dsfield.ecn" showname=".... ..00 = Explicit Congestion Notification: Not ECN-Capable Transport (0)" size="1" pos="19" show="0" value="0" unmaskedvalue="10"/>
    </field>
    <field name="ip.len" showname="Total Length: 392" size="2" pos="20" show="392" value="0188"/>
    <field name="ip.id" showname="Identification: 0x0000 (0)" size="2" pos="22" show="0x00000000" value="0000"/>
    <field name="ip.flags" showname="Flags: 0x00" size="1" pos="24" show="0x00000000" value="00">
      <field name="ip.flags.rb" showname="0... .... = Reserved bit: Not set" size="1" pos="24" show="0" value="00"/>
      <field name="ip.flags.df" showname=".0.. .... = Don&#x27;t fragment: Not set" size="1" pos="24" show="0" value="00"/>
      <field name="ip.flags.mf" showname="..0. .... = More fragments: Not set" size="1" pos="24" show="0" value="00"/>
    </field>
    <field name="ip.frag_offset" showname="Fragment offset: 0" size="2" pos="24" show="0" value="0000"/>
    <field name="ip.ttl" showname="Time to live: 16" size="1" pos="26" show="16" value="10"/>
    <field name="ip.proto" showname="Protocol: UDP (17)" size="1" pos="27" show="17" value="11"/>
    <field name="ip.checksum" showname="Header checksum: 0x6001 [validation disabled]" size="2" pos="28" show="0x00006001" value="6001"/>
    <field name="ip.checksum.status" showname="Header checksum status: Unverified" size="0" pos="28" show="2"/>
    <field name="ip.src" showname="Source: 192.168.100.2" size="4" pos="30" show="192.168.100.2" value="c0a86402"/>
    <field name="ip.addr" showname="Source or Destination Address: 192.168.100.2" hide="yes" size="4" pos="30" show="192.168.100.2" value="c0a86402"/>
    <field name="ip.src_host" showname="Source Host: 192.168.100.2" hide="yes" size="4" pos="30" show="192.168.100.2" value="c0a86402"/>
    <field name="ip.host" showname="Source or Destination Host: 192.168.100.2" hide="yes" size="4" pos="30" show="192.168.100.2" value="c0a86402"/>
    <field name="ip.dst" showname="Destination: 192.168.100.1" size="4" pos="34" show="192.168.100.1" value="c0a86401"/>
    <field name="ip.addr" showname="Source or Destination Address: 192.168.100.1" hide="yes" size="4" pos="34" show="192.168.100.1" value="c0a86401"/>
    <field name="ip.dst_host" showname="Destination Host: 192.168.100.1" hide="yes" size="4" pos="34" show="192.168.100.1" value="c0a86401"/>
    <field name="ip.host" showname="Source or Destination Host: 192.168.100.1" hide="yes" size="4" pos="34" show="192.168.100.1" value="c0a86401"/>
    <field name="" show="Source GeoIP: Unknown" size="4" pos="30" value="c0a86402"/>
    <field name="" show="Destination GeoIP: Unknown" size="4" pos="34" value="c0a86401"/>
  </proto>
  <proto name="udp" showname="User Datagram Protocol, Src Port: 68, Dst Port: 67" size="8" pos="38">
    <field name="udp.srcport" showname="Source Port: 68" size="2" pos="38" show="68" value="0044"/>
    <field name="udp.dstport" showname="Destination Port: 67" size="2" pos="40" show="67" value="0043"/>
    <field name="udp.port" showname="Source or Destination Port: 68" hide="yes" size="2" pos="38" show="68" value="0044"/>
    <field name="udp.port" showname="Source or Destination Port: 67" hide="yes" size="2" pos="40" show="67" value="0043"/>
    <field name="udp.length" showname="Length: 372" size="2" pos="42" show="372" value="0174"/>
    <field name="udp.checksum" showname="Checksum: 0xfdb9 [unverified]" size="2" pos="44" show="0x0000fdb9" value="fdb9"/>
    <field name="udp.checksum.status" showname="Checksum Status: Unverified" size="0" pos="44" show="2"/>
    <field name="udp.stream" showname="Stream index: 1" size="0" pos="46" show="1"/>
  </proto>
  <proto name="DHCP" showname="DHCP Protocol (Release)" size="364" pos="46">
    <field name="DHCP.type" showname="Message type: Boot Request (1)" size="1" pos="46" show="1" value="01"/>
    <field name="DHCP.hw.type" showname="Hardware type: Ethernet (0x01)" size="1" pos="47" show="0x00000001" value="01"/>
    <field name="DHCP.hw.len" showname="Hardware address length: 6" size="1" pos="48" show="6" value="06"/>
    <field name="DHCP.hops" showname="Hops: 0" size="1" pos="49" show="0" value="00"/>
    <field name="DHCP.id" showname="Transaction ID: 0x00000000" size="4" pos="50" show="0x00000000" value="00000000"/>
    <field name="DHCP.secs" showname="Seconds elapsed: 32849" size="2" pos="54" show="32849" value="8051"/>
    <field name="DHCP.flags" showname="DHCP flags: 0x0000 (Unicast)" size="2" pos="56" show="0x00000000" value="0000">
      <field name="DHCP.flags.bc" showname="0... .... .... .... = Broadcast flag: Unicast" size="2" pos="56" show="0" value="0" unmaskedvalue="0000"/>
      <field name="DHCP.flags.reserved" showname=".000 0000 0000 0000 = Reserved flags: 0x0000" size="2" pos="56" show="0x00000000" value="0" unmaskedvalue="0000"/>
    </field>
    <field name="DHCP.ip.client" showname="Client IP address: 192.168.100.2" size="4" pos="58" show="192.168.100.2" value="c0a86402"/>
    <field name="DHCP.ip.your" showname="Your (client) IP address: 0.0.0.0" size="4" pos="62" show="0.0.0.0" value="00000000"/>
    <field name="DHCP.ip.server" showname="Next server IP address: 0.0.0.0" size="4" pos="66" show="0.0.0.0" value="00000000"/>
    <field name="DHCP.ip.relay" showname="Relay agent IP address: 0.0.0.0" size="4" pos="70" show="0.0.0.0" value="00000000"/>
    <field name="DHCP.hw.mac_addr" showname="Client MAC address: Private_66:68:00 (00:50:79:66:68:00)" size="6" pos="74" show="00:50:79:66:68:00" value="005079666800"/>
    <field name="DHCP.hw.addr_padding" showname="Client hardware address padding: 00000000000000000000" size="10" pos="80" show="00:00:00:00:00:00:00:00:00:00" value="00000000000000000000"/>
    <field name="DHCP.server" showname="Server host name not given" size="64" pos="90" show="" value="00000000000000000000000000000000000000000000000000000000000000000000000000000000000000000000000000000000000000000000000000000000"/>
    <field name="DHCP.file" showname="Boot file name not given" size="128" pos="154" show="" value="0000000000000000000000000000000000000000000000000000000000000000000000000000000000000000000000000000000000000000000000000000000000000000000000000000000000000000000000000000000000000000000000000000000000000000000000000000000000000000000000000000000000000000"/>
    <field name="DHCP.dhcp" showname="Frame is DHCP: True" hide="yes" size="0" pos="46" show="1"/>
    <field name="DHCP.cookie" showname="Magic cookie: DHCP" size="4" pos="282" show="99.130.83.99" value="63825363"/>
    <field name="DHCP.option.type" showname="Option: (53) DHCP Message Type (Release)" size="3" pos="286" show="53" value="350107">
      <field name="DHCP.option.length" showname="Length: 1" size="1" pos="287" show="1" value="01"/>
      <field name="DHCP.option.value" showname="Value: 07" hide="yes" size="1" pos="288" show="07" value="07"/>
      <field name="DHCP.option.dhcp" showname="DHCP: Release (7)" size="1" pos="288" show="7" value="07"/>
    </field>
    <field name="DHCP.option.type" showname="Option: (55) Parameter Request List" size="4" pos="289" show="55" value="37020103">
      <field name="DHCP.option.length" showname="Length: 2" size="1" pos="290" show="2" value="02"/>
      <field name="DHCP.option.value" showname="Value: 0103" hide="yes" size="2" pos="291" show="01:03" value="0103"/>
      <field name="DHCP.option.request_list_item" showname="Parameter Request List Item: (1) Subnet Mask" size="1" pos="291" show="1" value="01"/>
      <field name="DHCP.option.request_list_item" showname="Parameter Request List Item: (3) Router" size="1" pos="292" show="3" value="03"/>
    </field>
    <field name="DHCP.option.type" showname="Option: (54) DHCP Server Identifier" size="6" pos="293" show="54" value="3604c0a86401">
      <field name="DHCP.option.length" showname="Length: 4" size="1" pos="294" show="4" value="04"/>
      <field name="DHCP.option.value" showname="Value: c0a86401" hide="yes" size="4" pos="295" show="c0:a8:64:01" value="c0a86401"/>
      <field name="DHCP.option.dhcp_server_id" showname="DHCP Server Identifier: 192.168.100.1" size="4" pos="295" show="192.168.100.1" value="c0a86401"/>
    </field>
    <field name="DHCP.option.type" showname="Option: (50) Requested IP Address" size="6" pos="299" show="50" value="3204c0a86402">
      <field name="DHCP.option.length" showname="Length: 4" size="1" pos="300" show="4" value="04"/>
      <field name="DHCP.option.value" showname="Value: c0a86402" hide="yes" size="4" pos="301" show="c0:a8:64:02" value="c0a86402"/>
      <field name="DHCP.option.requested_ip_address" showname="Requested IP Address: 192.168.100.2" size="4" pos="301" show="192.168.100.2" value="c0a86402"/>
    </field>
    <field name="DHCP.option.type" showname="Option: (12) Host Name" size="9" pos="305" show="12" value="0c07565043532d3131">
      <field name="DHCP.option.length" showname="Length: 7" size="1" pos="306" show="7" value="07"/>
      <field name="DHCP.option.value" showname="Value: 565043532d3131" hide="yes" size="7" pos="307" show="56:50:43:53:2d:31:31" value="565043532d3131"/>
      <field name="DHCP.option.hostname" showname="Host Name: VPCS-11" size="7" pos="307" show="VPCS-11" value="565043532d3131"/>
    </field>
    <field name="DHCP.option.type" showname="Option: (61) Client identifier" size="9" pos="314" show="61" value="3d0701005079666800">
      <field name="DHCP.option.length" showname="Length: 7" size="1" pos="315" show="7" value="07"/>
      <field name="DHCP.option.value" showname="Value: 01005079666800" hide="yes" size="7" pos="316" show="01:00:50:79:66:68:00" value="01005079666800"/>
      <field name="DHCP.hw.type" showname="Hardware type: Ethernet (0x01)" size="1" pos="316" show="0x00000001" value="01"/>
      <field name="DHCP.hw.mac_addr" showname="Client MAC address: Private_66:68:00 (00:50:79:66:68:00)" size="6" pos="317" show="00:50:79:66:68:00" value="005079666800"/>
    </field>
    <field name="DHCP.option.type" showname="Option: (255) End" size="1" pos="323" show="0" value="ff">
      <field name="DHCP.option.end" showname="Option End: 255" size="1" pos="323" show="255" value="ff"/>
    </field>
    <field name="DHCP.option.padding" showname="Padding: 000000000000000000000000000000000000000000000000..." size="86" pos="324" show="00:00:00:00:00:00:00:00:00:00:00:00:00:00:00:00:00:00:00:00:00:00:00:00:00:00:00:00:00:00:00:00:00:00:00:00:00:00:00:00:00:00:00:00:00:00:00:00:00:00:00:00:00:00:00:00:00:00:00:00:00:00:00:00:00:00:00:00:00:00:00:00:00:00:00:00:00:00:00:00:00:00:00:00:00:00" value="0000000000000000000000000000000000000000000000000000000000000000000000000000000000000000000000000000000000000000000000000000000000000000000000000000000000000000000000000000"/>
  </proto>
</packet>

</pdml>
