<?xml version="1.0"?>
<?xml-stylesheet type="text/xsl" href="pdml2html.xsl"?>
<!-- You can find pdml2html.xsl in C:\Program Files\Wireshark or at https://code.wireshark.org/review/gitweb?p=wireshark.git;a=blob_plain;f=pdml2html.xsl. -->
<pdml version="0" creator="wireshark/2.2.5" time="Thu Jan 09 10:04:43 2020" capture_file="C:\Users\ANJAN\AppData\Local\Temp\wireshark_-_20200109100131_a05956.pcapng">
<packet>
  <proto name="geninfo" pos="0" showname="General information" size="111">
    <field name="num" pos="0" show="10" showname="Number" value="a" size="111"/>
    <field name="len" pos="0" show="111" showname="Frame Length" value="6f" size="111"/>
    <field name="caplen" pos="0" show="111" showname="Captured Length" value="6f" size="111"/>
    <field name="timestamp" pos="0" show="Jan  6, 2020 16:16:02.795927000 India Standard Time" showname="Captured Time" value="1578307562.795927000" size="111"/>
  </proto>
  <proto name="frame" showname="Frame 10: 111 bytes on wire (888 bits), 111 bytes captured (888 bits) on interface 0" size="111" pos="0">
    <field name="frame.interface_id" showname="Interface id: 0 (-)" size="0" pos="0" show="0"/>
    <field name="frame.encap_type" showname="Encapsulation type: Ethernet (1)" size="0" pos="0" show="1"/>
    <field name="frame.time" showname="Arrival Time: Jan  6, 2020 16:16:02.795927000 India Standard Time" size="0" pos="0" show="Jan  6, 2020 16:16:02.795927000 India Standard Time"/>
    <field name="frame.offset_shift" showname="Time shift for this packet: 0.000000000 seconds" size="0" pos="0" show="0.000000000"/>
    <field name="frame.time_epoch" showname="Epoch Time: 1578307562.795927000 seconds" size="0" pos="0" show="1578307562.795927000"/>
    <field name="frame.time_delta" showname="Time delta from previous captured frame: 0.005438000 seconds" size="0" pos="0" show="0.005438000"/>
    <field name="frame.time_delta_displayed" showname="Time delta from previous displayed frame: 0.000000000 seconds" size="0" pos="0" show="0.000000000"/>
    <field name="frame.time_relative" showname="Time since reference or first frame: 6.428479000 seconds" size="0" pos="0" show="6.428479000"/>
    <field name="frame.number" showname="Frame Number: 10" size="0" pos="0" show="10"/>
    <field name="frame.len" showname="Frame Length: 111 bytes (888 bits)" size="0" pos="0" show="111"/>
    <field name="frame.cap_len" showname="Capture Length: 111 bytes (888 bits)" size="0" pos="0" show="111"/>
    <field name="frame.marked" showname="Frame is marked: False" size="0" pos="0" show="0"/>
    <field name="frame.ignored" showname="Frame is ignored: False" size="0" pos="0" show="0"/>
    <field name="frame.protocols" showname="Protocols in frame: eth:ethertype:ip:tcp:bgp" size="0" pos="0" show="eth:ethertype:ip:tcp:bgp"/>
    <field name="frame.coloring_rule.name" showname="Coloring Rule Name: BGP" size="0" pos="0" show="BGP"/>
    <field name="frame.coloring_rule.string" showname="Coloring Rule String: bgp || tcp" size="0" pos="0" show="bgp || tcp"/>
  </proto>
  <proto name="eth" showname="Ethernet II, Src: aa:bb:cc:00:02:00 (aa:bb:cc:00:02:00), Dst: aa:bb:cc:00:01:00 (aa:bb:cc:00:01:00)" size="14" pos="0">
    <field name="eth.dst" showname="Destination: aa:bb:cc:00:01:00 (aa:bb:cc:00:01:00)" size="6" pos="0" show="aa:bb:cc:00:01:00" value="aabbcc000100">
      <field name="eth.dst_resolved" showname="Destination (resolved): aa:bb:cc:00:01:00" hide="yes" size="6" pos="0" show="aa:bb:cc:00:01:00" value="aabbcc000100"/>
      <field name="eth.addr" showname="Address: aa:bb:cc:00:01:00 (aa:bb:cc:00:01:00)" size="6" pos="0" show="aa:bb:cc:00:01:00" value="aabbcc000100"/>
      <field name="eth.addr_resolved" showname="Address (resolved): aa:bb:cc:00:01:00" hide="yes" size="6" pos="0" show="aa:bb:cc:00:01:00" value="aabbcc000100"/>
      <field name="eth.lg" showname=".... ..1. .... .... .... .... = LG bit: Locally administered address (this is NOT the factory default)" size="3" pos="0" show="1" value="1" unmaskedvalue="aabbcc"/>
      <field name="eth.ig" showname=".... ...0 .... .... .... .... = IG bit: Individual address (unicast)" size="3" pos="0" show="0" value="0" unmaskedvalue="aabbcc"/>
    </field>
    <field name="eth.src" showname="Source: aa:bb:cc:00:02:00 (aa:bb:cc:00:02:00)" size="6" pos="6" show="aa:bb:cc:00:02:00" value="aabbcc000200">
      <field name="eth.src_resolved" showname="Source (resolved): aa:bb:cc:00:02:00" hide="yes" size="6" pos="6" show="aa:bb:cc:00:02:00" value="aabbcc000200"/>
      <field name="eth.addr" showname="Address: aa:bb:cc:00:02:00 (aa:bb:cc:00:02:00)" size="6" pos="6" show="aa:bb:cc:00:02:00" value="aabbcc000200"/>
      <field name="eth.addr_resolved" showname="Address (resolved): aa:bb:cc:00:02:00" hide="yes" size="6" pos="6" show="aa:bb:cc:00:02:00" value="aabbcc000200"/>
      <field name="eth.lg" showname=".... ..1. .... .... .... .... = LG bit: Locally administered address (this is NOT the factory default)" size="3" pos="6" show="1" value="1" unmaskedvalue="aabbcc"/>
      <field name="eth.ig" showname=".... ...0 .... .... .... .... = IG bit: Individual address (unicast)" size="3" pos="6" show="0" value="0" unmaskedvalue="aabbcc"/>
    </field>
    <field name="eth.type" showname="Type: IPv4 (0x0800)" size="2" pos="12" show="0x00000800" value="0800"/>
  </proto>
  <proto name="ip" showname="Internet Protocol Version 4, Src: 12.0.0.2, Dst: 12.0.0.1" size="20" pos="14">
    <field name="ip.version" showname="0100 .... = Version: 4" size="1" pos="14" show="4" value="4" unmaskedvalue="45"/>
    <field name="ip.hdr_len" showname=".... 0101 = Header Length: 20 bytes (5)" size="1" pos="14" show="20" value="45"/>
    <field name="ip.dsfield" showname="Differentiated Services Field: 0xc0 (DSCP: CS6, ECN: Not-ECT)" size="1" pos="15" show="0x000000c0" value="c0">
      <field name="ip.dsfield.dscp" showname="1100 00.. = Differentiated Services Codepoint: Class Selector 6 (48)" size="1" pos="15" show="48" value="30" unmaskedvalue="c0"/>
      <field name="ip.dsfield.ecn" showname=".... ..00 = Explicit Congestion Notification: Not ECN-Capable Transport (0)" size="1" pos="15" show="0" value="0" unmaskedvalue="c0"/>
    </field>
    <field name="ip.len" showname="Total Length: 97" size="2" pos="16" show="97" value="0061"/>
    <field name="ip.id" showname="Identification: 0xae79 (44665)" size="2" pos="18" show="0x0000ae79" value="ae79"/>
    <field name="ip.flags" showname="Flags: 0x02 (Don&#x27;t Fragment)" size="1" pos="20" show="0x00000002" value="40">
      <field name="ip.flags.rb" showname="0... .... = Reserved bit: Not set" size="1" pos="20" show="0" value="40"/>
      <field name="ip.flags.df" showname=".1.. .... = Don&#x27;t fragment: Set" size="1" pos="20" show="1" value="40"/>
      <field name="ip.flags.mf" showname="..0. .... = More fragments: Not set" size="1" pos="20" show="0" value="40"/>
    </field>
    <field name="ip.frag_offset" showname="Fragment offset: 0" size="2" pos="20" show="0" value="4000"/>
    <field name="ip.ttl" showname="Time to live: 1" size="1" pos="22" show="1" value="01">
      <field name="_ws.expert" showname="Expert Info (Note/Sequence): &quot;Time To Live&quot; only 1" size="0" pos="22">
        <field name="ip.ttl.too_small" showname="&quot;Time To Live&quot; only 1" size="0" pos="0" show="" value=""/>
        <field name="_ws.expert.message" showname="Message: &quot;Time To Live&quot; only 1" hide="yes" size="0" pos="0" show="&quot;Time To Live&quot; only 1"/>
        <field name="_ws.expert.severity" showname="Severity level: Note" size="0" pos="0" show="4194304"/>
        <field name="_ws.expert.group" showname="Group: Sequence" size="0" pos="0" show="33554432"/>
      </field>
    </field>
    <field name="ip.proto" showname="Protocol: TCP (6)" size="1" pos="23" show="6" value="06"/>
    <field name="ip.checksum" showname="Header checksum: 0xb25b [validation disabled]" size="2" pos="24" show="0x0000b25b" value="b25b"/>
    <field name="ip.checksum.status" showname="Header checksum status: Unverified" size="0" pos="24" show="2"/>
    <field name="ip.src" showname="Source: 12.0.0.2" size="4" pos="26" show="12.0.0.2" value="0c000002"/>
    <field name="ip.addr" showname="Source or Destination Address: 12.0.0.2" hide="yes" size="4" pos="26" show="12.0.0.2" value="0c000002"/>
    <field name="ip.src_host" showname="Source Host: 12.0.0.2" hide="yes" size="4" pos="26" show="12.0.0.2" value="0c000002"/>
    <field name="ip.host" showname="Source or Destination Host: 12.0.0.2" hide="yes" size="4" pos="26" show="12.0.0.2" value="0c000002"/>
    <field name="ip.dst" showname="Destination: 12.0.0.1" size="4" pos="30" show="12.0.0.1" value="0c000001"/>
    <field name="ip.addr" showname="Source or Destination Address: 12.0.0.1" hide="yes" size="4" pos="30" show="12.0.0.1" value="0c000001"/>
    <field name="ip.dst_host" showname="Destination Host: 12.0.0.1" hide="yes" size="4" pos="30" show="12.0.0.1" value="0c000001"/>
    <field name="ip.host" showname="Source or Destination Host: 12.0.0.1" hide="yes" size="4" pos="30" show="12.0.0.1" value="0c000001"/>
    <field name="" show="Source GeoIP: Unknown" size="4" pos="26" value="0c000002"/>
    <field name="" show="Destination GeoIP: Unknown" size="4" pos="30" value="0c000001"/>
  </proto>
  <proto name="tcp" showname="Transmission Control Protocol, Src Port: 25919, Dst Port: 179, Seq: 1, Ack: 1, Len: 57" size="20" pos="34">
    <field name="tcp.srcport" showname="Source Port: 25919" size="2" pos="34" show="25919" value="653f"/>
    <field name="tcp.dstport" showname="Destination Port: 179" size="2" pos="36" show="179" value="00b3"/>
    <field name="tcp.port" showname="Source or Destination Port: 25919" hide="yes" size="2" pos="34" show="25919" value="653f"/>
    <field name="tcp.port" showname="Source or Destination Port: 179" hide="yes" size="2" pos="36" show="179" value="00b3"/>
    <field name="tcp.stream" showname="Stream index: 2" size="0" pos="34" show="2"/>
    <field name="tcp.len" showname="TCP Segment Len: 57" size="1" pos="46" show="57" value="50"/>
    <field name="tcp.seq" showname="Sequence number: 1    (relative sequence number)" size="4" pos="38" show="1" value="964684ab"/>
    <field name="tcp.nxtseq" showname="Next sequence number: 58    (relative sequence number)" size="0" pos="34" show="58"/>
    <field name="tcp.ack" showname="Acknowledgment number: 1    (relative ack number)" size="4" pos="42" show="1" value="4a097adb"/>
    <field name="tcp.hdr_len" showname="Header Length: 20 bytes" size="1" pos="46" show="20" value="50"/>
    <field name="tcp.flags" showname="Flags: 0x018 (PSH, ACK)" size="2" pos="46" show="0x00000018" value="18" unmaskedvalue="5018">
      <field name="tcp.flags.res" showname="000. .... .... = Reserved: Not set" size="1" pos="46" show="0" value="0" unmaskedvalue="50"/>
      <field name="tcp.flags.ns" showname="...0 .... .... = Nonce: Not set" size="1" pos="46" show="0" value="0" unmaskedvalue="50"/>
      <field name="tcp.flags.cwr" showname=".... 0... .... = Congestion Window Reduced (CWR): Not set" size="1" pos="47" show="0" value="0" unmaskedvalue="18"/>
      <field name="tcp.flags.ecn" showname=".... .0.. .... = ECN-Echo: Not set" size="1" pos="47" show="0" value="0" unmaskedvalue="18"/>
      <field name="tcp.flags.urg" showname=".... ..0. .... = Urgent: Not set" size="1" pos="47" show="0" value="0" unmaskedvalue="18"/>
      <field name="tcp.flags.ack" showname=".... ...1 .... = Acknowledgment: Set" size="1" pos="47" show="1" value="1" unmaskedvalue="18"/>
      <field name="tcp.flags.push" showname=".... .... 1... = Push: Set" size="1" pos="47" show="1" value="1" unmaskedvalue="18"/>
      <field name="tcp.flags.reset" showname=".... .... .0.. = Reset: Not set" size="1" pos="47" show="0" value="0" unmaskedvalue="18"/>
      <field name="tcp.flags.syn" showname=".... .... ..0. = Syn: Not set" size="1" pos="47" show="0" value="0" unmaskedvalue="18"/>
      <field name="tcp.flags.fin" showname=".... .... ...0 = Fin: Not set" size="1" pos="47" show="0" value="0" unmaskedvalue="18"/>
      <field name="tcp.flags.str" showname="TCP Flags: \xc2\xb7\xc2\xb7\xc2\xb7\xc2\xb7\xc2\xb7\xc2\xb7\xc2\xb7AP\xc2\xb7\xc2\xb7\xc2\xb7" size="2" pos="46" show="\xc2\xb7\xc2\xb7\xc2\xb7\xc2\xb7\xc2\xb7\xc2\xb7\xc2\xb7AP\xc2\xb7\xc2\xb7\xc2\xb7" value="5018"/>
    </field>
    <field name="tcp.window_size_value" showname="Window size value: 16384" size="2" pos="48" show="16384" value="4000"/>
    <field name="tcp.window_size" showname="Calculated window size: 16384" size="2" pos="48" show="16384" value="4000"/>
    <field name="tcp.window_size_scalefactor" showname="Window size scaling factor: -2 (no window scaling used)" size="2" pos="48" show="-2" value="4000"/>
    <field name="tcp.checksum" showname="Checksum: 0xc8be [unverified]" size="2" pos="50" show="0x0000c8be" value="c8be"/>
    <field name="tcp.checksum.status" showname="Checksum Status: Unverified" size="0" pos="50" show="2"/>
    <field name="tcp.urgent_pointer" showname="Urgent pointer: 0" size="2" pos="52" show="0" value="0000"/>
    <field name="tcp.analysis" showname="SEQ/ACK analysis" size="0" pos="34" show="" value="">
      <field name="tcp.analysis.initial_rtt" showname="iRTT: 0.001550000 seconds" size="0" pos="34" show="0.001550000"/>
      <field name="tcp.analysis.bytes_in_flight" showname="Bytes in flight: 57" size="0" pos="34" show="57"/>
      <field name="tcp.analysis.push_bytes_sent" showname="Bytes sent since last PSH flag: 57" size="0" pos="34" show="57"/>
    </field>
  </proto>
  <proto name="bgp" showname="Border Gateway Protocol - OPEN Message" size="57" pos="54">
    <field name="bgp.marker" showname="Marker: ffffffffffffffffffffffffffffffff" size="16" pos="54" show="ff:ff:ff:ff:ff:ff:ff:ff:ff:ff:ff:ff:ff:ff:ff:ff" value="ffffffffffffffffffffffffffffffff"/>
    <field name="bgp.length" showname="Length: 57" size="2" pos="70" show="57" value="0039"/>
    <field name="bgp.type" showname="Type: OPEN Message (1)" size="1" pos="72" show="1" value="01"/>
    <field name="bgp.open.version" showname="Version: 4" size="1" pos="73" show="4" value="04"/>
    <field name="bgp.open.myas" showname="My AS: 2" size="2" pos="74" show="2" value="0002"/>
    <field name="bgp.open.holdtime" showname="Hold Time: 180" size="2" pos="76" show="180" value="00b4"/>
    <field name="bgp.open.identifier" showname="BGP Identifier: 12.0.0.2" size="4" pos="78" show="12.0.0.2" value="0c000002"/>
    <field name="bgp.open.opt.len" showname="Optional Parameters Length: 28" size="1" pos="82" show="28" value="1c"/>
    <field name="bgp.open.opt" showname="Optional Parameters" size="28" pos="83" show="" value="">
      <field name="bgp.open.opt.param" showname="Optional Parameter: Capability" size="8" pos="83" show="" value="">
        <field name="bgp.open.opt.param.type" showname="Parameter Type: Capability (2)" size="1" pos="83" show="2" value="02"/>
        <field name="bgp.open.opt.param.len" showname="Parameter Length: 6" size="1" pos="84" show="6" value="06"/>
        <field name="bgp.cap" showname="Capability: Multiprotocol extensions capability" size="6" pos="85" show="" value="">
          <field name="bgp.cap.type" showname="Type: Multiprotocol extensions capability (1)" size="1" pos="85" show="1" value="01"/>
          <field name="bgp.cap.length" showname="Length: 4" size="1" pos="86" show="4" value="04"/>
          <field name="bgp.cap.mp.afi" showname="AFI: IPv4 (1)" size="2" pos="87" show="1" value="0001"/>
          <field name="bgp.cap.reserved" showname="Reserved: 00" size="1" pos="89" show="00" value="00"/>
          <field name="bgp.cap.mp.safi" showname="SAFI: Unicast (1)" size="1" pos="90" show="1" value="01"/>
        </field>
      </field>
      <field name="bgp.open.opt.param" showname="Optional Parameter: Capability" size="4" pos="91" show="" value="">
        <field name="bgp.open.opt.param.type" showname="Parameter Type: Capability (2)" size="1" pos="91" show="2" value="02"/>
        <field name="bgp.open.opt.param.len" showname="Parameter Length: 2" size="1" pos="92" show="2" value="02"/>
        <field name="bgp.cap" showname="Capability: Route refresh capability (Cisco)" size="2" pos="93" show="" value="">
          <field name="bgp.cap.type" showname="Type: Route refresh capability (Cisco) (128)" size="1" pos="93" show="128" value="80"/>
          <field name="bgp.cap.length" showname="Length: 0" size="1" pos="94" show="0" value="00"/>
        </field>
      </field>
      <field name="bgp.open.opt.param" showname="Optional Parameter: Capability" size="4" pos="95" show="" value="">
        <field name="bgp.open.opt.param.type" showname="Parameter Type: Capability (2)" size="1" pos="95" show="2" value="02"/>
        <field name="bgp.open.opt.param.len" showname="Parameter Length: 2" size="1" pos="96" show="2" value="02"/>
        <field name="bgp.cap" showname="Capability: Route refresh capability" size="2" pos="97" show="" value="">
          <field name="bgp.cap.type" showname="Type: Route refresh capability (2)" size="1" pos="97" show="2" value="02"/>
          <field name="bgp.cap.length" showname="Length: 0" size="1" pos="98" show="0" value="00"/>
        </field>
      </field>
      <field name="bgp.open.opt.param" showname="Optional Parameter: Capability" size="4" pos="99" show="" value="">
        <field name="bgp.open.opt.param.type" showname="Parameter Type: Capability (2)" size="1" pos="99" show="2" value="02"/>
        <field name="bgp.open.opt.param.len" showname="Parameter Length: 2" size="1" pos="100" show="2" value="02"/>
        <field name="bgp.cap" showname="Capability: Enhanced route refresh capability" size="2" pos="101" show="" value="">
          <field name="bgp.cap.type" showname="Type: Enhanced route refresh capability (70)" size="1" pos="101" show="70" value="46"/>
          <field name="bgp.cap.length" showname="Length: 0" size="1" pos="102" show="0" value="00"/>
        </field>
      </field>
      <field name="bgp.open.opt.param" showname="Optional Parameter: Capability" size="8" pos="103" show="" value="">
        <field name="bgp.open.opt.param.type" showname="Parameter Type: Capability (2)" size="1" pos="103" show="2" value="02"/>
        <field name="bgp.open.opt.param.len" showname="Parameter Length: 6" size="1" pos="104" show="6" value="06"/>
        <field name="bgp.cap" showname="Capability: Support for 4-octet AS number capability" size="6" pos="105" show="" value="">
          <field name="bgp.cap.type" showname="Type: Support for 4-octet AS number capability (65)" size="1" pos="105" show="65" value="41"/>
          <field name="bgp.cap.length" showname="Length: 4" size="1" pos="106" show="4" value="04"/>
          <field name="bgp.cap.4as" showname="AS Number: 2" size="4" pos="107" show="2" value="00000002"/>
        </field>
      </field>
    </field>
  </proto>
</packet>

<packet>
  <proto name="geninfo" pos="0" showname="General information" size="77">
    <field name="num" pos="0" show="12" showname="Number" value="c" size="77"/>
    <field name="len" pos="0" show="77" showname="Frame Length" value="4d" size="77"/>
    <field name="caplen" pos="0" show="77" showname="Captured Length" value="4d" size="77"/>
    <field name="timestamp" pos="0" show="Jan  6, 2020 16:16:02.796768000 India Standard Time" showname="Captured Time" value="1578307562.796768000" size="77"/>
  </proto>
  <proto name="frame" showname="Frame 12: 77 bytes on wire (616 bits), 77 bytes captured (616 bits) on interface 0" size="77" pos="0">
    <field name="frame.interface_id" showname="Interface id: 0 (-)" size="0" pos="0" show="0"/>
    <field name="frame.encap_type" showname="Encapsulation type: Ethernet (1)" size="0" pos="0" show="1"/>
    <field name="frame.time" showname="Arrival Time: Jan  6, 2020 16:16:02.796768000 India Standard Time" size="0" pos="0" show="Jan  6, 2020 16:16:02.796768000 India Standard Time"/>
    <field name="frame.offset_shift" showname="Time shift for this packet: 0.000000000 seconds" size="0" pos="0" show="0.000000000"/>
    <field name="frame.time_epoch" showname="Epoch Time: 1578307562.796768000 seconds" size="0" pos="0" show="1578307562.796768000"/>
    <field name="frame.time_delta" showname="Time delta from previous captured frame: 0.000496000 seconds" size="0" pos="0" show="0.000496000"/>
    <field name="frame.time_delta_displayed" showname="Time delta from previous displayed frame: 0.000841000 seconds" size="0" pos="0" show="0.000841000"/>
    <field name="frame.time_relative" showname="Time since reference or first frame: 6.429320000 seconds" size="0" pos="0" show="6.429320000"/>
    <field name="frame.number" showname="Frame Number: 12" size="0" pos="0" show="12"/>
    <field name="frame.len" showname="Frame Length: 77 bytes (616 bits)" size="0" pos="0" show="77"/>
    <field name="frame.cap_len" showname="Capture Length: 77 bytes (616 bits)" size="0" pos="0" show="77"/>
    <field name="frame.marked" showname="Frame is marked: False" size="0" pos="0" show="0"/>
    <field name="frame.ignored" showname="Frame is ignored: False" size="0" pos="0" show="0"/>
    <field name="frame.protocols" showname="Protocols in frame: eth:ethertype:ip:tcp:bgp" size="0" pos="0" show="eth:ethertype:ip:tcp:bgp"/>
    <field name="frame.coloring_rule.name" showname="Coloring Rule Name: BGP" size="0" pos="0" show="BGP"/>
    <field name="frame.coloring_rule.string" showname="Coloring Rule String: bgp || tcp" size="0" pos="0" show="bgp || tcp"/>
  </proto>
  <proto name="eth" showname="Ethernet II, Src: aa:bb:cc:00:01:00 (aa:bb:cc:00:01:00), Dst: aa:bb:cc:00:02:00 (aa:bb:cc:00:02:00)" size="14" pos="0">
    <field name="eth.dst" showname="Destination: aa:bb:cc:00:02:00 (aa:bb:cc:00:02:00)" size="6" pos="0" show="aa:bb:cc:00:02:00" value="aabbcc000200">
      <field name="eth.dst_resolved" showname="Destination (resolved): aa:bb:cc:00:02:00" hide="yes" size="6" pos="0" show="aa:bb:cc:00:02:00" value="aabbcc000200"/>
      <field name="eth.addr" showname="Address: aa:bb:cc:00:02:00 (aa:bb:cc:00:02:00)" size="6" pos="0" show="aa:bb:cc:00:02:00" value="aabbcc000200"/>
      <field name="eth.addr_resolved" showname="Address (resolved): aa:bb:cc:00:02:00" hide="yes" size="6" pos="0" show="aa:bb:cc:00:02:00" value="aabbcc000200"/>
      <field name="eth.lg" showname=".... ..1. .... .... .... .... = LG bit: Locally administered address (this is NOT the factory default)" size="3" pos="0" show="1" value="1" unmaskedvalue="aabbcc"/>
      <field name="eth.ig" showname=".... ...0 .... .... .... .... = IG bit: Individual address (unicast)" size="3" pos="0" show="0" value="0" unmaskedvalue="aabbcc"/>
    </field>
    <field name="eth.src" showname="Source: aa:bb:cc:00:01:00 (aa:bb:cc:00:01:00)" size="6" pos="6" show="aa:bb:cc:00:01:00" value="aabbcc000100">
      <field name="eth.src_resolved" showname="Source (resolved): aa:bb:cc:00:01:00" hide="yes" size="6" pos="6" show="aa:bb:cc:00:01:00" value="aabbcc000100"/>
      <field name="eth.addr" showname="Address: aa:bb:cc:00:01:00 (aa:bb:cc:00:01:00)" size="6" pos="6" show="aa:bb:cc:00:01:00" value="aabbcc000100"/>
      <field name="eth.addr_resolved" showname="Address (resolved): aa:bb:cc:00:01:00" hide="yes" size="6" pos="6" show="aa:bb:cc:00:01:00" value="aabbcc000100"/>
      <field name="eth.lg" showname=".... ..1. .... .... .... .... = LG bit: Locally administered address (this is NOT the factory default)" size="3" pos="6" show="1" value="1" unmaskedvalue="aabbcc"/>
      <field name="eth.ig" showname=".... ...0 .... .... .... .... = IG bit: Individual address (unicast)" size="3" pos="6" show="0" value="0" unmaskedvalue="aabbcc"/>
    </field>
    <field name="eth.type" showname="Type: IPv4 (0x0800)" size="2" pos="12" show="0x00000800" value="0800"/>
  </proto>
  <proto name="ip" showname="Internet Protocol Version 4, Src: 12.0.0.1, Dst: 12.0.0.2" size="20" pos="14">
    <field name="ip.version" showname="0100 .... = Version: 4" size="1" pos="14" show="4" value="4" unmaskedvalue="45"/>
    <field name="ip.hdr_len" showname=".... 0101 = Header Length: 20 bytes (5)" size="1" pos="14" show="20" value="45"/>
    <field name="ip.dsfield" showname="Differentiated Services Field: 0xc0 (DSCP: CS6, ECN: Not-ECT)" size="1" pos="15" show="0x000000c0" value="c0">
      <field name="ip.dsfield.dscp" showname="1100 00.. = Differentiated Services Codepoint: Class Selector 6 (48)" size="1" pos="15" show="48" value="30" unmaskedvalue="c0"/>
      <field name="ip.dsfield.ecn" showname=".... ..00 = Explicit Congestion Notification: Not ECN-Capable Transport (0)" size="1" pos="15" show="0" value="0" unmaskedvalue="c0"/>
    </field>
    <field name="ip.len" showname="Total Length: 63" size="2" pos="16" show="63" value="003f"/>
    <field name="ip.id" showname="Identification: 0x6eaf (28335)" size="2" pos="18" show="0x00006eaf" value="6eaf"/>
    <field name="ip.flags" showname="Flags: 0x02 (Don&#x27;t Fragment)" size="1" pos="20" show="0x00000002" value="40">
      <field name="ip.flags.rb" showname="0... .... = Reserved bit: Not set" size="1" pos="20" show="0" value="40"/>
      <field name="ip.flags.df" showname=".1.. .... = Don&#x27;t fragment: Set" size="1" pos="20" show="1" value="40"/>
      <field name="ip.flags.mf" showname="..0. .... = More fragments: Not set" size="1" pos="20" show="0" value="40"/>
    </field>
    <field name="ip.frag_offset" showname="Fragment offset: 0" size="2" pos="20" show="0" value="4000"/>
    <field name="ip.ttl" showname="Time to live: 1" size="1" pos="22" show="1" value="01">
      <field name="_ws.expert" showname="Expert Info (Note/Sequence): &quot;Time To Live&quot; only 1" size="0" pos="22">
        <field name="ip.ttl.too_small" showname="&quot;Time To Live&quot; only 1" size="0" pos="0" show="" value=""/>
        <field name="_ws.expert.message" showname="Message: &quot;Time To Live&quot; only 1" hide="yes" size="0" pos="0" show="&quot;Time To Live&quot; only 1"/>
        <field name="_ws.expert.severity" showname="Severity level: Note" size="0" pos="0" show="4194304"/>
        <field name="_ws.expert.group" showname="Group: Sequence" size="0" pos="0" show="33554432"/>
      </field>
    </field>
    <field name="ip.proto" showname="Protocol: TCP (6)" size="1" pos="23" show="6" value="06"/>
    <field name="ip.checksum" showname="Header checksum: 0xf247 [validation disabled]" size="2" pos="24" show="0x0000f247" value="f247"/>
    <field name="ip.checksum.status" showname="Header checksum status: Unverified" size="0" pos="24" show="2"/>
    <field name="ip.src" showname="Source: 12.0.0.1" size="4" pos="26" show="12.0.0.1" value="0c000001"/>
    <field name="ip.addr" showname="Source or Destination Address: 12.0.0.1" hide="yes" size="4" pos="26" show="12.0.0.1" value="0c000001"/>
    <field name="ip.src_host" showname="Source Host: 12.0.0.1" hide="yes" size="4" pos="26" show="12.0.0.1" value="0c000001"/>
    <field name="ip.host" showname="Source or Destination Host: 12.0.0.1" hide="yes" size="4" pos="26" show="12.0.0.1" value="0c000001"/>
    <field name="ip.dst" showname="Destination: 12.0.0.2" size="4" pos="30" show="12.0.0.2" value="0c000002"/>
    <field name="ip.addr" showname="Source or Destination Address: 12.0.0.2" hide="yes" size="4" pos="30" show="12.0.0.2" value="0c000002"/>
    <field name="ip.dst_host" showname="Destination Host: 12.0.0.2" hide="yes" size="4" pos="30" show="12.0.0.2" value="0c000002"/>
    <field name="ip.host" showname="Source or Destination Host: 12.0.0.2" hide="yes" size="4" pos="30" show="12.0.0.2" value="0c000002"/>
    <field name="" show="Source GeoIP: Unknown" size="4" pos="26" value="0c000001"/>
    <field name="" show="Destination GeoIP: Unknown" size="4" pos="30" value="0c000002"/>
  </proto>
  <proto name="tcp" showname="Transmission Control Protocol, Src Port: 179, Dst Port: 25919, Seq: 1, Ack: 58, Len: 23" size="20" pos="34">
    <field name="tcp.srcport" showname="Source Port: 179" size="2" pos="34" show="179" value="00b3"/>
    <field name="tcp.dstport" showname="Destination Port: 25919" size="2" pos="36" show="25919" value="653f"/>
    <field name="tcp.port" showname="Source or Destination Port: 179" hide="yes" size="2" pos="34" show="179" value="00b3"/>
    <field name="tcp.port" showname="Source or Destination Port: 25919" hide="yes" size="2" pos="36" show="25919" value="653f"/>
    <field name="tcp.stream" showname="Stream index: 2" size="0" pos="34" show="2"/>
    <field name="tcp.len" showname="TCP Segment Len: 23" size="1" pos="46" show="23" value="50"/>
    <field name="tcp.seq" showname="Sequence number: 1    (relative sequence number)" size="4" pos="38" show="1" value="4a097adb"/>
    <field name="tcp.nxtseq" showname="Next sequence number: 24    (relative sequence number)" size="0" pos="34" show="24"/>
    <field name="tcp.ack" showname="Acknowledgment number: 58    (relative ack number)" size="4" pos="42" show="58" value="964684e4"/>
    <field name="tcp.hdr_len" showname="Header Length: 20 bytes" size="1" pos="46" show="20" value="50"/>
    <field name="tcp.flags" showname="Flags: 0x018 (PSH, ACK)" size="2" pos="46" show="0x00000018" value="18" unmaskedvalue="5018">
      <field name="tcp.flags.res" showname="000. .... .... = Reserved: Not set" size="1" pos="46" show="0" value="0" unmaskedvalue="50"/>
      <field name="tcp.flags.ns" showname="...0 .... .... = Nonce: Not set" size="1" pos="46" show="0" value="0" unmaskedvalue="50"/>
      <field name="tcp.flags.cwr" showname=".... 0... .... = Congestion Window Reduced (CWR): Not set" size="1" pos="47" show="0" value="0" unmaskedvalue="18"/>
      <field name="tcp.flags.ecn" showname=".... .0.. .... = ECN-Echo: Not set" size="1" pos="47" show="0" value="0" unmaskedvalue="18"/>
      <field name="tcp.flags.urg" showname=".... ..0. .... = Urgent: Not set" size="1" pos="47" show="0" value="0" unmaskedvalue="18"/>
      <field name="tcp.flags.ack" showname=".... ...1 .... = Acknowledgment: Set" size="1" pos="47" show="1" value="1" unmaskedvalue="18"/>
      <field name="tcp.flags.push" showname=".... .... 1... = Push: Set" size="1" pos="47" show="1" value="1" unmaskedvalue="18"/>
      <field name="tcp.flags.reset" showname=".... .... .0.. = Reset: Not set" size="1" pos="47" show="0" value="0" unmaskedvalue="18"/>
      <field name="tcp.flags.syn" showname=".... .... ..0. = Syn: Not set" size="1" pos="47" show="0" value="0" unmaskedvalue="18"/>
      <field name="tcp.flags.fin" showname=".... .... ...0 = Fin: Not set" size="1" pos="47" show="0" value="0" unmaskedvalue="18"/>
      <field name="tcp.flags.str" showname="TCP Flags: \xc2\xb7\xc2\xb7\xc2\xb7\xc2\xb7\xc2\xb7\xc2\xb7\xc2\xb7AP\xc2\xb7\xc2\xb7\xc2\xb7" size="2" pos="46" show="\xc2\xb7\xc2\xb7\xc2\xb7\xc2\xb7\xc2\xb7\xc2\xb7\xc2\xb7AP\xc2\xb7\xc2\xb7\xc2\xb7" value="5018"/>
    </field>
    <field name="tcp.window_size_value" showname="Window size value: 16327" size="2" pos="48" show="16327" value="3fc7"/>
    <field name="tcp.window_size" showname="Calculated window size: 16327" size="2" pos="48" show="16327" value="3fc7"/>
    <field name="tcp.window_size_scalefactor" showname="Window size scaling factor: -2 (no window scaling used)" size="2" pos="48" show="-2" value="3fc7"/>
    <field name="tcp.checksum" showname="Checksum: 0x0ad1 [unverified]" size="2" pos="50" show="0x00000ad1" value="0ad1"/>
    <field name="tcp.checksum.status" showname="Checksum Status: Unverified" size="0" pos="50" show="2"/>
    <field name="tcp.urgent_pointer" showname="Urgent pointer: 0" size="2" pos="52" show="0" value="0000"/>
    <field name="tcp.analysis" showname="SEQ/ACK analysis" size="0" pos="34" show="" value="">
      <field name="tcp.analysis.initial_rtt" showname="iRTT: 0.001550000 seconds" size="0" pos="34" show="0.001550000"/>
      <field name="tcp.analysis.bytes_in_flight" showname="Bytes in flight: 23" size="0" pos="34" show="23"/>
      <field name="tcp.analysis.push_bytes_sent" showname="Bytes sent since last PSH flag: 23" size="0" pos="34" show="23"/>
    </field>
  </proto>
  <proto name="bgp" showname="Border Gateway Protocol - NOTIFICATION Message" size="23" pos="54">
    <field name="bgp.marker" showname="Marker: ffffffffffffffffffffffffffffffff" size="16" pos="54" show="ff:ff:ff:ff:ff:ff:ff:ff:ff:ff:ff:ff:ff:ff:ff:ff" value="ffffffffffffffffffffffffffffffff"/>
    <field name="bgp.length" showname="Length: 23" size="2" pos="70" show="23" value="0017"/>
    <field name="bgp.type" showname="Type: NOTIFICATION Message (3)" size="1" pos="72" show="3" value="03"/>
    <field name="bgp.notify.major_error" showname="Major error Code: OPEN Message Error (2)" size="1" pos="73" show="2" value="02"/>
    <field name="bgp.notify.minor_error_open" showname="Minor error Code (Open Message): Bad Peer AS (2)" size="1" pos="74" show="2" value="02"/>
    <field name="bgp.notify.minor_data" showname="Data: 0002" size="2" pos="75" show="00:02" value="0002"/>
  </proto>
</packet>

<packet>
  <proto name="geninfo" pos="0" showname="General information" size="111">
    <field name="num" pos="0" show="18" showname="Number" value="12" size="111"/>
    <field name="len" pos="0" show="111" showname="Frame Length" value="6f" size="111"/>
    <field name="caplen" pos="0" show="111" showname="Captured Length" value="6f" size="111"/>
    <field name="timestamp" pos="0" show="Jan  6, 2020 16:16:05.633654000 India Standard Time" showname="Captured Time" value="1578307565.633654000" size="111"/>
  </proto>
  <proto name="frame" showname="Frame 18: 111 bytes on wire (888 bits), 111 bytes captured (888 bits) on interface 0" size="111" pos="0">
    <field name="frame.interface_id" showname="Interface id: 0 (-)" size="0" pos="0" show="0"/>
    <field name="frame.encap_type" showname="Encapsulation type: Ethernet (1)" size="0" pos="0" show="1"/>
    <field name="frame.time" showname="Arrival Time: Jan  6, 2020 16:16:05.633654000 India Standard Time" size="0" pos="0" show="Jan  6, 2020 16:16:05.633654000 India Standard Time"/>
    <field name="frame.offset_shift" showname="Time shift for this packet: 0.000000000 seconds" size="0" pos="0" show="0.000000000"/>
    <field name="frame.time_epoch" showname="Epoch Time: 1578307565.633654000 seconds" size="0" pos="0" show="1578307565.633654000"/>
    <field name="frame.time_delta" showname="Time delta from previous captured frame: 0.006360000 seconds" size="0" pos="0" show="0.006360000"/>
    <field name="frame.time_delta_displayed" showname="Time delta from previous displayed frame: 2.836886000 seconds" size="0" pos="0" show="2.836886000"/>
    <field name="frame.time_relative" showname="Time since reference or first frame: 9.266206000 seconds" size="0" pos="0" show="9.266206000"/>
    <field name="frame.number" showname="Frame Number: 18" size="0" pos="0" show="18"/>
    <field name="frame.len" showname="Frame Length: 111 bytes (888 bits)" size="0" pos="0" show="111"/>
    <field name="frame.cap_len" showname="Capture Length: 111 bytes (888 bits)" size="0" pos="0" show="111"/>
    <field name="frame.marked" showname="Frame is marked: False" size="0" pos="0" show="0"/>
    <field name="frame.ignored" showname="Frame is ignored: False" size="0" pos="0" show="0"/>
    <field name="frame.protocols" showname="Protocols in frame: eth:ethertype:ip:tcp:bgp" size="0" pos="0" show="eth:ethertype:ip:tcp:bgp"/>
    <field name="frame.coloring_rule.name" showname="Coloring Rule Name: BGP" size="0" pos="0" show="BGP"/>
    <field name="frame.coloring_rule.string" showname="Coloring Rule String: bgp || tcp" size="0" pos="0" show="bgp || tcp"/>
  </proto>
  <proto name="eth" showname="Ethernet II, Src: aa:bb:cc:00:01:00 (aa:bb:cc:00:01:00), Dst: aa:bb:cc:00:02:00 (aa:bb:cc:00:02:00)" size="14" pos="0">
    <field name="eth.dst" showname="Destination: aa:bb:cc:00:02:00 (aa:bb:cc:00:02:00)" size="6" pos="0" show="aa:bb:cc:00:02:00" value="aabbcc000200">
      <field name="eth.dst_resolved" showname="Destination (resolved): aa:bb:cc:00:02:00" hide="yes" size="6" pos="0" show="aa:bb:cc:00:02:00" value="aabbcc000200"/>
      <field name="eth.addr" showname="Address: aa:bb:cc:00:02:00 (aa:bb:cc:00:02:00)" size="6" pos="0" show="aa:bb:cc:00:02:00" value="aabbcc000200"/>
      <field name="eth.addr_resolved" showname="Address (resolved): aa:bb:cc:00:02:00" hide="yes" size="6" pos="0" show="aa:bb:cc:00:02:00" value="aabbcc000200"/>
      <field name="eth.lg" showname=".... ..1. .... .... .... .... = LG bit: Locally administered address (this is NOT the factory default)" size="3" pos="0" show="1" value="1" unmaskedvalue="aabbcc"/>
      <field name="eth.ig" showname=".... ...0 .... .... .... .... = IG bit: Individual address (unicast)" size="3" pos="0" show="0" value="0" unmaskedvalue="aabbcc"/>
    </field>
    <field name="eth.src" showname="Source: aa:bb:cc:00:01:00 (aa:bb:cc:00:01:00)" size="6" pos="6" show="aa:bb:cc:00:01:00" value="aabbcc000100">
      <field name="eth.src_resolved" showname="Source (resolved): aa:bb:cc:00:01:00" hide="yes" size="6" pos="6" show="aa:bb:cc:00:01:00" value="aabbcc000100"/>
      <field name="eth.addr" showname="Address: aa:bb:cc:00:01:00 (aa:bb:cc:00:01:00)" size="6" pos="6" show="aa:bb:cc:00:01:00" value="aabbcc000100"/>
      <field name="eth.addr_resolved" showname="Address (resolved): aa:bb:cc:00:01:00" hide="yes" size="6" pos="6" show="aa:bb:cc:00:01:00" value="aabbcc000100"/>
      <field name="eth.lg" showname=".... ..1. .... .... .... .... = LG bit: Locally administered address (this is NOT the factory default)" size="3" pos="6" show="1" value="1" unmaskedvalue="aabbcc"/>
      <field name="eth.ig" showname=".... ...0 .... .... .... .... = IG bit: Individual address (unicast)" size="3" pos="6" show="0" value="0" unmaskedvalue="aabbcc"/>
    </field>
    <field name="eth.type" showname="Type: IPv4 (0x0800)" size="2" pos="12" show="0x00000800" value="0800"/>
  </proto>
  <proto name="ip" showname="Internet Protocol Version 4, Src: 12.0.0.1, Dst: 12.0.0.2" size="20" pos="14">
    <field name="ip.version" showname="0100 .... = Version: 4" size="1" pos="14" show="4" value="4" unmaskedvalue="45"/>
    <field name="ip.hdr_len" showname=".... 0101 = Header Length: 20 bytes (5)" size="1" pos="14" show="20" value="45"/>
    <field name="ip.dsfield" showname="Differentiated Services Field: 0xc0 (DSCP: CS6, ECN: Not-ECT)" size="1" pos="15" show="0x000000c0" value="c0">
      <field name="ip.dsfield.dscp" showname="1100 00.. = Differentiated Services Codepoint: Class Selector 6 (48)" size="1" pos="15" show="48" value="30" unmaskedvalue="c0"/>
      <field name="ip.dsfield.ecn" showname=".... ..00 = Explicit Congestion Notification: Not ECN-Capable Transport (0)" size="1" pos="15" show="0" value="0" unmaskedvalue="c0"/>
    </field>
    <field name="ip.len" showname="Total Length: 97" size="2" pos="16" show="97" value="0061"/>
    <field name="ip.id" showname="Identification: 0xfcd1 (64721)" size="2" pos="18" show="0x0000fcd1" value="fcd1"/>
    <field name="ip.flags" showname="Flags: 0x02 (Don&#x27;t Fragment)" size="1" pos="20" show="0x00000002" value="40">
      <field name="ip.flags.rb" showname="0... .... = Reserved bit: Not set" size="1" pos="20" show="0" value="40"/>
      <field name="ip.flags.df" showname=".1.. .... = Don&#x27;t fragment: Set" size="1" pos="20" show="1" value="40"/>
      <field name="ip.flags.mf" showname="..0. .... = More fragments: Not set" size="1" pos="20" show="0" value="40"/>
    </field>
    <field name="ip.frag_offset" showname="Fragment offset: 0" size="2" pos="20" show="0" value="4000"/>
    <field name="ip.ttl" showname="Time to live: 1" size="1" pos="22" show="1" value="01">
      <field name="_ws.expert" showname="Expert Info (Note/Sequence): &quot;Time To Live&quot; only 1" size="0" pos="22">
        <field name="ip.ttl.too_small" showname="&quot;Time To Live&quot; only 1" size="0" pos="0" show="" value=""/>
        <field name="_ws.expert.message" showname="Message: &quot;Time To Live&quot; only 1" hide="yes" size="0" pos="0" show="&quot;Time To Live&quot; only 1"/>
        <field name="_ws.expert.severity" showname="Severity level: Note" size="0" pos="0" show="4194304"/>
        <field name="_ws.expert.group" showname="Group: Sequence" size="0" pos="0" show="33554432"/>
      </field>
    </field>
    <field name="ip.proto" showname="Protocol: TCP (6)" size="1" pos="23" show="6" value="06"/>
    <field name="ip.checksum" showname="Header checksum: 0x6403 [validation disabled]" size="2" pos="24" show="0x00006403" value="6403"/>
    <field name="ip.checksum.status" showname="Header checksum status: Unverified" size="0" pos="24" show="2"/>
    <field name="ip.src" showname="Source: 12.0.0.1" size="4" pos="26" show="12.0.0.1" value="0c000001"/>
    <field name="ip.addr" showname="Source or Destination Address: 12.0.0.1" hide="yes" size="4" pos="26" show="12.0.0.1" value="0c000001"/>
    <field name="ip.src_host" showname="Source Host: 12.0.0.1" hide="yes" size="4" pos="26" show="12.0.0.1" value="0c000001"/>
    <field name="ip.host" showname="Source or Destination Host: 12.0.0.1" hide="yes" size="4" pos="26" show="12.0.0.1" value="0c000001"/>
    <field name="ip.dst" showname="Destination: 12.0.0.2" size="4" pos="30" show="12.0.0.2" value="0c000002"/>
    <field name="ip.addr" showname="Source or Destination Address: 12.0.0.2" hide="yes" size="4" pos="30" show="12.0.0.2" value="0c000002"/>
    <field name="ip.dst_host" showname="Destination Host: 12.0.0.2" hide="yes" size="4" pos="30" show="12.0.0.2" value="0c000002"/>
    <field name="ip.host" showname="Source or Destination Host: 12.0.0.2" hide="yes" size="4" pos="30" show="12.0.0.2" value="0c000002"/>
    <field name="" show="Source GeoIP: Unknown" size="4" pos="26" value="0c000001"/>
    <field name="" show="Destination GeoIP: Unknown" size="4" pos="30" value="0c000002"/>
  </proto>
  <proto name="tcp" showname="Transmission Control Protocol, Src Port: 64250, Dst Port: 179, Seq: 1, Ack: 1, Len: 57" size="20" pos="34">
    <field name="tcp.srcport" showname="Source Port: 64250" size="2" pos="34" show="64250" value="fafa"/>
    <field name="tcp.dstport" showname="Destination Port: 179" size="2" pos="36" show="179" value="00b3"/>
    <field name="tcp.port" showname="Source or Destination Port: 64250" hide="yes" size="2" pos="34" show="64250" value="fafa"/>
    <field name="tcp.port" showname="Source or Destination Port: 179" hide="yes" size="2" pos="36" show="179" value="00b3"/>
    <field name="tcp.stream" showname="Stream index: 3" size="0" pos="34" show="3"/>
    <field name="tcp.len" showname="TCP Segment Len: 57" size="1" pos="46" show="57" value="50"/>
    <field name="tcp.seq" showname="Sequence number: 1    (relative sequence number)" size="4" pos="38" show="1" value="5e9ce4b9"/>
    <field name="tcp.nxtseq" showname="Next sequence number: 58    (relative sequence number)" size="0" pos="34" show="58"/>
    <field name="tcp.ack" showname="Acknowledgment number: 1    (relative ack number)" size="4" pos="42" show="1" value="6e29d00c"/>
    <field name="tcp.hdr_len" showname="Header Length: 20 bytes" size="1" pos="46" show="20" value="50"/>
    <field name="tcp.flags" showname="Flags: 0x018 (PSH, ACK)" size="2" pos="46" show="0x00000018" value="18" unmaskedvalue="5018">
      <field name="tcp.flags.res" showname="000. .... .... = Reserved: Not set" size="1" pos="46" show="0" value="0" unmaskedvalue="50"/>
      <field name="tcp.flags.ns" showname="...0 .... .... = Nonce: Not set" size="1" pos="46" show="0" value="0" unmaskedvalue="50"/>
      <field name="tcp.flags.cwr" showname=".... 0... .... = Congestion Window Reduced (CWR): Not set" size="1" pos="47" show="0" value="0" unmaskedvalue="18"/>
      <field name="tcp.flags.ecn" showname=".... .0.. .... = ECN-Echo: Not set" size="1" pos="47" show="0" value="0" unmaskedvalue="18"/>
      <field name="tcp.flags.urg" showname=".... ..0. .... = Urgent: Not set" size="1" pos="47" show="0" value="0" unmaskedvalue="18"/>
      <field name="tcp.flags.ack" showname=".... ...1 .... = Acknowledgment: Set" size="1" pos="47" show="1" value="1" unmaskedvalue="18"/>
      <field name="tcp.flags.push" showname=".... .... 1... = Push: Set" size="1" pos="47" show="1" value="1" unmaskedvalue="18"/>
      <field name="tcp.flags.reset" showname=".... .... .0.. = Reset: Not set" size="1" pos="47" show="0" value="0" unmaskedvalue="18"/>
      <field name="tcp.flags.syn" showname=".... .... ..0. = Syn: Not set" size="1" pos="47" show="0" value="0" unmaskedvalue="18"/>
      <field name="tcp.flags.fin" showname=".... .... ...0 = Fin: Not set" size="1" pos="47" show="0" value="0" unmaskedvalue="18"/>
      <field name="tcp.flags.str" showname="TCP Flags: \xc2\xb7\xc2\xb7\xc2\xb7\xc2\xb7\xc2\xb7\xc2\xb7\xc2\xb7AP\xc2\xb7\xc2\xb7\xc2\xb7" size="2" pos="46" show="\xc2\xb7\xc2\xb7\xc2\xb7\xc2\xb7\xc2\xb7\xc2\xb7\xc2\xb7AP\xc2\xb7\xc2\xb7\xc2\xb7" value="5018"/>
    </field>
    <field name="tcp.window_size_value" showname="Window size value: 16384" size="2" pos="48" show="16384" value="4000"/>
    <field name="tcp.window_size" showname="Calculated window size: 16384" size="2" pos="48" show="16384" value="4000"/>
    <field name="tcp.window_size_scalefactor" showname="Window size scaling factor: -2 (no window scaling used)" size="2" pos="48" show="-2" value="4000"/>
    <field name="tcp.checksum" showname="Checksum: 0x924f [unverified]" size="2" pos="50" show="0x0000924f" value="924f"/>
    <field name="tcp.checksum.status" showname="Checksum Status: Unverified" size="0" pos="50" show="2"/>
    <field name="tcp.urgent_pointer" showname="Urgent pointer: 0" size="2" pos="52" show="0" value="0000"/>
    <field name="tcp.analysis" showname="SEQ/ACK analysis" size="0" pos="34" show="" value="">
      <field name="tcp.analysis.initial_rtt" showname="iRTT: 0.000910000 seconds" size="0" pos="34" show="0.000910000"/>
      <field name="tcp.analysis.bytes_in_flight" showname="Bytes in flight: 57" size="0" pos="34" show="57"/>
      <field name="tcp.analysis.push_bytes_sent" showname="Bytes sent since last PSH flag: 57" size="0" pos="34" show="57"/>
    </field>
  </proto>
  <proto name="bgp" showname="Border Gateway Protocol - OPEN Message" size="57" pos="54">
    <field name="bgp.marker" showname="Marker: ffffffffffffffffffffffffffffffff" size="16" pos="54" show="ff:ff:ff:ff:ff:ff:ff:ff:ff:ff:ff:ff:ff:ff:ff:ff" value="ffffffffffffffffffffffffffffffff"/>
    <field name="bgp.length" showname="Length: 57" size="2" pos="70" show="57" value="0039"/>
    <field name="bgp.type" showname="Type: OPEN Message (1)" size="1" pos="72" show="1" value="01"/>
    <field name="bgp.open.version" showname="Version: 4" size="1" pos="73" show="4" value="04"/>
    <field name="bgp.open.myas" showname="My AS: 1" size="2" pos="74" show="1" value="0001"/>
    <field name="bgp.open.holdtime" showname="Hold Time: 180" size="2" pos="76" show="180" value="00b4"/>
    <field name="bgp.open.identifier" showname="BGP Identifier: 12.0.0.1" size="4" pos="78" show="12.0.0.1" value="0c000001"/>
    <field name="bgp.open.opt.len" showname="Optional Parameters Length: 28" size="1" pos="82" show="28" value="1c"/>
    <field name="bgp.open.opt" showname="Optional Parameters" size="28" pos="83" show="" value="">
      <field name="bgp.open.opt.param" showname="Optional Parameter: Capability" size="8" pos="83" show="" value="">
        <field name="bgp.open.opt.param.type" showname="Parameter Type: Capability (2)" size="1" pos="83" show="2" value="02"/>
        <field name="bgp.open.opt.param.len" showname="Parameter Length: 6" size="1" pos="84" show="6" value="06"/>
        <field name="bgp.cap" showname="Capability: Multiprotocol extensions capability" size="6" pos="85" show="" value="">
          <field name="bgp.cap.type" showname="Type: Multiprotocol extensions capability (1)" size="1" pos="85" show="1" value="01"/>
          <field name="bgp.cap.length" showname="Length: 4" size="1" pos="86" show="4" value="04"/>
          <field name="bgp.cap.mp.afi" showname="AFI: IPv4 (1)" size="2" pos="87" show="1" value="0001"/>
          <field name="bgp.cap.reserved" showname="Reserved: 00" size="1" pos="89" show="00" value="00"/>
          <field name="bgp.cap.mp.safi" showname="SAFI: Unicast (1)" size="1" pos="90" show="1" value="01"/>
        </field>
      </field>
      <field name="bgp.open.opt.param" showname="Optional Parameter: Capability" size="4" pos="91" show="" value="">
        <field name="bgp.open.opt.param.type" showname="Parameter Type: Capability (2)" size="1" pos="91" show="2" value="02"/>
        <field name="bgp.open.opt.param.len" showname="Parameter Length: 2" size="1" pos="92" show="2" value="02"/>
        <field name="bgp.cap" showname="Capability: Route refresh capability (Cisco)" size="2" pos="93" show="" value="">
          <field name="bgp.cap.type" showname="Type: Route refresh capability (Cisco) (128)" size="1" pos="93" show="128" value="80"/>
          <field name="bgp.cap.length" showname="Length: 0" size="1" pos="94" show="0" value="00"/>
        </field>
      </field>
      <field name="bgp.open.opt.param" showname="Optional Parameter: Capability" size="4" pos="95" show="" value="">
        <field name="bgp.open.opt.param.type" showname="Parameter Type: Capability (2)" size="1" pos="95" show="2" value="02"/>
        <field name="bgp.open.opt.param.len" showname="Parameter Length: 2" size="1" pos="96" show="2" value="02"/>
        <field name="bgp.cap" showname="Capability: Route refresh capability" size="2" pos="97" show="" value="">
          <field name="bgp.cap.type" showname="Type: Route refresh capability (2)" size="1" pos="97" show="2" value="02"/>
          <field name="bgp.cap.length" showname="Length: 0" size="1" pos="98" show="0" value="00"/>
        </field>
      </field>
      <field name="bgp.open.opt.param" showname="Optional Parameter: Capability" size="4" pos="99" show="" value="">
        <field name="bgp.open.opt.param.type" showname="Parameter Type: Capability (2)" size="1" pos="99" show="2" value="02"/>
        <field name="bgp.open.opt.param.len" showname="Parameter Length: 2" size="1" pos="100" show="2" value="02"/>
        <field name="bgp.cap" showname="Capability: Enhanced route refresh capability" size="2" pos="101" show="" value="">
          <field name="bgp.cap.type" showname="Type: Enhanced route refresh capability (70)" size="1" pos="101" show="70" value="46"/>
          <field name="bgp.cap.length" showname="Length: 0" size="1" pos="102" show="0" value="00"/>
        </field>
      </field>
      <field name="bgp.open.opt.param" showname="Optional Parameter: Capability" size="8" pos="103" show="" value="">
        <field name="bgp.open.opt.param.type" showname="Parameter Type: Capability (2)" size="1" pos="103" show="2" value="02"/>
        <field name="bgp.open.opt.param.len" showname="Parameter Length: 6" size="1" pos="104" show="6" value="06"/>
        <field name="bgp.cap" showname="Capability: Support for 4-octet AS number capability" size="6" pos="105" show="" value="">
          <field name="bgp.cap.type" showname="Type: Support for 4-octet AS number capability (65)" size="1" pos="105" show="65" value="41"/>
          <field name="bgp.cap.length" showname="Length: 4" size="1" pos="106" show="4" value="04"/>
          <field name="bgp.cap.4as" showname="AS Number: 1" size="4" pos="107" show="1" value="00000001"/>
        </field>
      </field>
    </field>
  </proto>
</packet>

<packet>
  <proto name="geninfo" pos="0" showname="General information" size="111">
    <field name="num" pos="0" show="20" showname="Number" value="14" size="111"/>
    <field name="len" pos="0" show="111" showname="Frame Length" value="6f" size="111"/>
    <field name="caplen" pos="0" show="111" showname="Captured Length" value="6f" size="111"/>
    <field name="timestamp" pos="0" show="Jan  6, 2020 16:16:05.634542000 India Standard Time" showname="Captured Time" value="1578307565.634542000" size="111"/>
  </proto>
  <proto name="frame" showname="Frame 20: 111 bytes on wire (888 bits), 111 bytes captured (888 bits) on interface 0" size="111" pos="0">
    <field name="frame.interface_id" showname="Interface id: 0 (-)" size="0" pos="0" show="0"/>
    <field name="frame.encap_type" showname="Encapsulation type: Ethernet (1)" size="0" pos="0" show="1"/>
    <field name="frame.time" showname="Arrival Time: Jan  6, 2020 16:16:05.634542000 India Standard Time" size="0" pos="0" show="Jan  6, 2020 16:16:05.634542000 India Standard Time"/>
    <field name="frame.offset_shift" showname="Time shift for this packet: 0.000000000 seconds" size="0" pos="0" show="0.000000000"/>
    <field name="frame.time_epoch" showname="Epoch Time: 1578307565.634542000 seconds" size="0" pos="0" show="1578307565.634542000"/>
    <field name="frame.time_delta" showname="Time delta from previous captured frame: 0.000318000 seconds" size="0" pos="0" show="0.000318000"/>
    <field name="frame.time_delta_displayed" showname="Time delta from previous displayed frame: 0.000888000 seconds" size="0" pos="0" show="0.000888000"/>
    <field name="frame.time_relative" showname="Time since reference or first frame: 9.267094000 seconds" size="0" pos="0" show="9.267094000"/>
    <field name="frame.number" showname="Frame Number: 20" size="0" pos="0" show="20"/>
    <field name="frame.len" showname="Frame Length: 111 bytes (888 bits)" size="0" pos="0" show="111"/>
    <field name="frame.cap_len" showname="Capture Length: 111 bytes (888 bits)" size="0" pos="0" show="111"/>
    <field name="frame.marked" showname="Frame is marked: False" size="0" pos="0" show="0"/>
    <field name="frame.ignored" showname="Frame is ignored: False" size="0" pos="0" show="0"/>
    <field name="frame.protocols" showname="Protocols in frame: eth:ethertype:ip:tcp:bgp" size="0" pos="0" show="eth:ethertype:ip:tcp:bgp"/>
    <field name="frame.coloring_rule.name" showname="Coloring Rule Name: BGP" size="0" pos="0" show="BGP"/>
    <field name="frame.coloring_rule.string" showname="Coloring Rule String: bgp || tcp" size="0" pos="0" show="bgp || tcp"/>
  </proto>
  <proto name="eth" showname="Ethernet II, Src: aa:bb:cc:00:02:00 (aa:bb:cc:00:02:00), Dst: aa:bb:cc:00:01:00 (aa:bb:cc:00:01:00)" size="14" pos="0">
    <field name="eth.dst" showname="Destination: aa:bb:cc:00:01:00 (aa:bb:cc:00:01:00)" size="6" pos="0" show="aa:bb:cc:00:01:00" value="aabbcc000100">
      <field name="eth.dst_resolved" showname="Destination (resolved): aa:bb:cc:00:01:00" hide="yes" size="6" pos="0" show="aa:bb:cc:00:01:00" value="aabbcc000100"/>
      <field name="eth.addr" showname="Address: aa:bb:cc:00:01:00 (aa:bb:cc:00:01:00)" size="6" pos="0" show="aa:bb:cc:00:01:00" value="aabbcc000100"/>
      <field name="eth.addr_resolved" showname="Address (resolved): aa:bb:cc:00:01:00" hide="yes" size="6" pos="0" show="aa:bb:cc:00:01:00" value="aabbcc000100"/>
      <field name="eth.lg" showname=".... ..1. .... .... .... .... = LG bit: Locally administered address (this is NOT the factory default)" size="3" pos="0" show="1" value="1" unmaskedvalue="aabbcc"/>
      <field name="eth.ig" showname=".... ...0 .... .... .... .... = IG bit: Individual address (unicast)" size="3" pos="0" show="0" value="0" unmaskedvalue="aabbcc"/>
    </field>
    <field name="eth.src" showname="Source: aa:bb:cc:00:02:00 (aa:bb:cc:00:02:00)" size="6" pos="6" show="aa:bb:cc:00:02:00" value="aabbcc000200">
      <field name="eth.src_resolved" showname="Source (resolved): aa:bb:cc:00:02:00" hide="yes" size="6" pos="6" show="aa:bb:cc:00:02:00" value="aabbcc000200"/>
      <field name="eth.addr" showname="Address: aa:bb:cc:00:02:00 (aa:bb:cc:00:02:00)" size="6" pos="6" show="aa:bb:cc:00:02:00" value="aabbcc000200"/>
      <field name="eth.addr_resolved" showname="Address (resolved): aa:bb:cc:00:02:00" hide="yes" size="6" pos="6" show="aa:bb:cc:00:02:00" value="aabbcc000200"/>
      <field name="eth.lg" showname=".... ..1. .... .... .... .... = LG bit: Locally administered address (this is NOT the factory default)" size="3" pos="6" show="1" value="1" unmaskedvalue="aabbcc"/>
      <field name="eth.ig" showname=".... ...0 .... .... .... .... = IG bit: Individual address (unicast)" size="3" pos="6" show="0" value="0" unmaskedvalue="aabbcc"/>
    </field>
    <field name="eth.type" showname="Type: IPv4 (0x0800)" size="2" pos="12" show="0x00000800" value="0800"/>
  </proto>
  <proto name="ip" showname="Internet Protocol Version 4, Src: 12.0.0.2, Dst: 12.0.0.1" size="20" pos="14">
    <field name="ip.version" showname="0100 .... = Version: 4" size="1" pos="14" show="4" value="4" unmaskedvalue="45"/>
    <field name="ip.hdr_len" showname=".... 0101 = Header Length: 20 bytes (5)" size="1" pos="14" show="20" value="45"/>
    <field name="ip.dsfield" showname="Differentiated Services Field: 0xc0 (DSCP: CS6, ECN: Not-ECT)" size="1" pos="15" show="0x000000c0" value="c0">
      <field name="ip.dsfield.dscp" showname="1100 00.. = Differentiated Services Codepoint: Class Selector 6 (48)" size="1" pos="15" show="48" value="30" unmaskedvalue="c0"/>
      <field name="ip.dsfield.ecn" showname=".... ..00 = Explicit Congestion Notification: Not ECN-Capable Transport (0)" size="1" pos="15" show="0" value="0" unmaskedvalue="c0"/>
    </field>
    <field name="ip.len" showname="Total Length: 97" size="2" pos="16" show="97" value="0061"/>
    <field name="ip.id" showname="Identification: 0x7214 (29204)" size="2" pos="18" show="0x00007214" value="7214"/>
    <field name="ip.flags" showname="Flags: 0x02 (Don&#x27;t Fragment)" size="1" pos="20" show="0x00000002" value="40">
      <field name="ip.flags.rb" showname="0... .... = Reserved bit: Not set" size="1" pos="20" show="0" value="40"/>
      <field name="ip.flags.df" showname=".1.. .... = Don&#x27;t fragment: Set" size="1" pos="20" show="1" value="40"/>
      <field name="ip.flags.mf" showname="..0. .... = More fragments: Not set" size="1" pos="20" show="0" value="40"/>
    </field>
    <field name="ip.frag_offset" showname="Fragment offset: 0" size="2" pos="20" show="0" value="4000"/>
    <field name="ip.ttl" showname="Time to live: 1" size="1" pos="22" show="1" value="01">
      <field name="_ws.expert" showname="Expert Info (Note/Sequence): &quot;Time To Live&quot; only 1" size="0" pos="22">
        <field name="ip.ttl.too_small" showname="&quot;Time To Live&quot; only 1" size="0" pos="0" show="" value=""/>
        <field name="_ws.expert.message" showname="Message: &quot;Time To Live&quot; only 1" hide="yes" size="0" pos="0" show="&quot;Time To Live&quot; only 1"/>
        <field name="_ws.expert.severity" showname="Severity level: Note" size="0" pos="0" show="4194304"/>
        <field name="_ws.expert.group" showname="Group: Sequence" size="0" pos="0" show="33554432"/>
      </field>
    </field>
    <field name="ip.proto" showname="Protocol: TCP (6)" size="1" pos="23" show="6" value="06"/>
    <field name="ip.checksum" showname="Header checksum: 0xeec0 [validation disabled]" size="2" pos="24" show="0x0000eec0" value="eec0"/>
    <field name="ip.checksum.status" showname="Header checksum status: Unverified" size="0" pos="24" show="2"/>
    <field name="ip.src" showname="Source: 12.0.0.2" size="4" pos="26" show="12.0.0.2" value="0c000002"/>
    <field name="ip.addr" showname="Source or Destination Address: 12.0.0.2" hide="yes" size="4" pos="26" show="12.0.0.2" value="0c000002"/>
    <field name="ip.src_host" showname="Source Host: 12.0.0.2" hide="yes" size="4" pos="26" show="12.0.0.2" value="0c000002"/>
    <field name="ip.host" showname="Source or Destination Host: 12.0.0.2" hide="yes" size="4" pos="26" show="12.0.0.2" value="0c000002"/>
    <field name="ip.dst" showname="Destination: 12.0.0.1" size="4" pos="30" show="12.0.0.1" value="0c000001"/>
    <field name="ip.addr" showname="Source or Destination Address: 12.0.0.1" hide="yes" size="4" pos="30" show="12.0.0.1" value="0c000001"/>
    <field name="ip.dst_host" showname="Destination Host: 12.0.0.1" hide="yes" size="4" pos="30" show="12.0.0.1" value="0c000001"/>
    <field name="ip.host" showname="Source or Destination Host: 12.0.0.1" hide="yes" size="4" pos="30" show="12.0.0.1" value="0c000001"/>
    <field name="" show="Source GeoIP: Unknown" size="4" pos="26" value="0c000002"/>
    <field name="" show="Destination GeoIP: Unknown" size="4" pos="30" value="0c000001"/>
  </proto>
  <proto name="tcp" showname="Transmission Control Protocol, Src Port: 179, Dst Port: 64250, Seq: 1, Ack: 58, Len: 57" size="20" pos="34">
    <field name="tcp.srcport" showname="Source Port: 179" size="2" pos="34" show="179" value="00b3"/>
    <field name="tcp.dstport" showname="Destination Port: 64250" size="2" pos="36" show="64250" value="fafa"/>
    <field name="tcp.port" showname="Source or Destination Port: 179" hide="yes" size="2" pos="34" show="179" value="00b3"/>
    <field name="tcp.port" showname="Source or Destination Port: 64250" hide="yes" size="2" pos="36" show="64250" value="fafa"/>
    <field name="tcp.stream" showname="Stream index: 3" size="0" pos="34" show="3"/>
    <field name="tcp.len" showname="TCP Segment Len: 57" size="1" pos="46" show="57" value="50"/>
    <field name="tcp.seq" showname="Sequence number: 1    (relative sequence number)" size="4" pos="38" show="1" value="6e29d00c"/>
    <field name="tcp.nxtseq" showname="Next sequence number: 58    (relative sequence number)" size="0" pos="34" show="58"/>
    <field name="tcp.ack" showname="Acknowledgment number: 58    (relative ack number)" size="4" pos="42" show="58" value="5e9ce4f2"/>
    <field name="tcp.hdr_len" showname="Header Length: 20 bytes" size="1" pos="46" show="20" value="50"/>
    <field name="tcp.flags" showname="Flags: 0x018 (PSH, ACK)" size="2" pos="46" show="0x00000018" value="18" unmaskedvalue="5018">
      <field name="tcp.flags.res" showname="000. .... .... = Reserved: Not set" size="1" pos="46" show="0" value="0" unmaskedvalue="50"/>
      <field name="tcp.flags.ns" showname="...0 .... .... = Nonce: Not set" size="1" pos="46" show="0" value="0" unmaskedvalue="50"/>
      <field name="tcp.flags.cwr" showname=".... 0... .... = Congestion Window Reduced (CWR): Not set" size="1" pos="47" show="0" value="0" unmaskedvalue="18"/>
      <field name="tcp.flags.ecn" showname=".... .0.. .... = ECN-Echo: Not set" size="1" pos="47" show="0" value="0" unmaskedvalue="18"/>
      <field name="tcp.flags.urg" showname=".... ..0. .... = Urgent: Not set" size="1" pos="47" show="0" value="0" unmaskedvalue="18"/>
      <field name="tcp.flags.ack" showname=".... ...1 .... = Acknowledgment: Set" size="1" pos="47" show="1" value="1" unmaskedvalue="18"/>
      <field name="tcp.flags.push" showname=".... .... 1... = Push: Set" size="1" pos="47" show="1" value="1" unmaskedvalue="18"/>
      <field name="tcp.flags.reset" showname=".... .... .0.. = Reset: Not set" size="1" pos="47" show="0" value="0" unmaskedvalue="18"/>
      <field name="tcp.flags.syn" showname=".... .... ..0. = Syn: Not set" size="1" pos="47" show="0" value="0" unmaskedvalue="18"/>
      <field name="tcp.flags.fin" showname=".... .... ...0 = Fin: Not set" size="1" pos="47" show="0" value="0" unmaskedvalue="18"/>
      <field name="tcp.flags.str" showname="TCP Flags: \xc2\xb7\xc2\xb7\xc2\xb7\xc2\xb7\xc2\xb7\xc2\xb7\xc2\xb7AP\xc2\xb7\xc2\xb7\xc2\xb7" size="2" pos="46" show="\xc2\xb7\xc2\xb7\xc2\xb7\xc2\xb7\xc2\xb7\xc2\xb7\xc2\xb7AP\xc2\xb7\xc2\xb7\xc2\xb7" value="5018"/>
    </field>
    <field name="tcp.window_size_value" showname="Window size value: 16327" size="2" pos="48" show="16327" value="3fc7"/>
    <field name="tcp.window_size" showname="Calculated window size: 16327" size="2" pos="48" show="16327" value="3fc7"/>
    <field name="tcp.window_size_scalefactor" showname="Window size scaling factor: -2 (no window scaling used)" size="2" pos="48" show="-2" value="3fc7"/>
    <field name="tcp.checksum" showname="Checksum: 0x914d [unverified]" size="2" pos="50" show="0x0000914d" value="914d"/>
    <field name="tcp.checksum.status" showname="Checksum Status: Unverified" size="0" pos="50" show="2"/>
    <field name="tcp.urgent_pointer" showname="Urgent pointer: 0" size="2" pos="52" show="0" value="0000"/>
    <field name="tcp.analysis" showname="SEQ/ACK analysis" size="0" pos="34" show="" value="">
      <field name="tcp.analysis.initial_rtt" showname="iRTT: 0.000910000 seconds" size="0" pos="34" show="0.000910000"/>
      <field name="tcp.analysis.bytes_in_flight" showname="Bytes in flight: 57" size="0" pos="34" show="57"/>
      <field name="tcp.analysis.push_bytes_sent" showname="Bytes sent since last PSH flag: 57" size="0" pos="34" show="57"/>
    </field>
  </proto>
  <proto name="bgp" showname="Border Gateway Protocol - OPEN Message" size="57" pos="54">
    <field name="bgp.marker" showname="Marker: ffffffffffffffffffffffffffffffff" size="16" pos="54" show="ff:ff:ff:ff:ff:ff:ff:ff:ff:ff:ff:ff:ff:ff:ff:ff" value="ffffffffffffffffffffffffffffffff"/>
    <field name="bgp.length" showname="Length: 57" size="2" pos="70" show="57" value="0039"/>
    <field name="bgp.type" showname="Type: OPEN Message (1)" size="1" pos="72" show="1" value="01"/>
    <field name="bgp.open.version" showname="Version: 4" size="1" pos="73" show="4" value="04"/>
    <field name="bgp.open.myas" showname="My AS: 2" size="2" pos="74" show="2" value="0002"/>
    <field name="bgp.open.holdtime" showname="Hold Time: 180" size="2" pos="76" show="180" value="00b4"/>
    <field name="bgp.open.identifier" showname="BGP Identifier: 12.0.0.2" size="4" pos="78" show="12.0.0.2" value="0c000002"/>
    <field name="bgp.open.opt.len" showname="Optional Parameters Length: 28" size="1" pos="82" show="28" value="1c"/>
    <field name="bgp.open.opt" showname="Optional Parameters" size="28" pos="83" show="" value="">
      <field name="bgp.open.opt.param" showname="Optional Parameter: Capability" size="8" pos="83" show="" value="">
        <field name="bgp.open.opt.param.type" showname="Parameter Type: Capability (2)" size="1" pos="83" show="2" value="02"/>
        <field name="bgp.open.opt.param.len" showname="Parameter Length: 6" size="1" pos="84" show="6" value="06"/>
        <field name="bgp.cap" showname="Capability: Multiprotocol extensions capability" size="6" pos="85" show="" value="">
          <field name="bgp.cap.type" showname="Type: Multiprotocol extensions capability (1)" size="1" pos="85" show="1" value="01"/>
          <field name="bgp.cap.length" showname="Length: 4" size="1" pos="86" show="4" value="04"/>
          <field name="bgp.cap.mp.afi" showname="AFI: IPv4 (1)" size="2" pos="87" show="1" value="0001"/>
          <field name="bgp.cap.reserved" showname="Reserved: 00" size="1" pos="89" show="00" value="00"/>
          <field name="bgp.cap.mp.safi" showname="SAFI: Unicast (1)" size="1" pos="90" show="1" value="01"/>
        </field>
      </field>
      <field name="bgp.open.opt.param" showname="Optional Parameter: Capability" size="4" pos="91" show="" value="">
        <field name="bgp.open.opt.param.type" showname="Parameter Type: Capability (2)" size="1" pos="91" show="2" value="02"/>
        <field name="bgp.open.opt.param.len" showname="Parameter Length: 2" size="1" pos="92" show="2" value="02"/>
        <field name="bgp.cap" showname="Capability: Route refresh capability (Cisco)" size="2" pos="93" show="" value="">
          <field name="bgp.cap.type" showname="Type: Route refresh capability (Cisco) (128)" size="1" pos="93" show="128" value="80"/>
          <field name="bgp.cap.length" showname="Length: 0" size="1" pos="94" show="0" value="00"/>
        </field>
      </field>
      <field name="bgp.open.opt.param" showname="Optional Parameter: Capability" size="4" pos="95" show="" value="">
        <field name="bgp.open.opt.param.type" showname="Parameter Type: Capability (2)" size="1" pos="95" show="2" value="02"/>
        <field name="bgp.open.opt.param.len" showname="Parameter Length: 2" size="1" pos="96" show="2" value="02"/>
        <field name="bgp.cap" showname="Capability: Route refresh capability" size="2" pos="97" show="" value="">
          <field name="bgp.cap.type" showname="Type: Route refresh capability (2)" size="1" pos="97" show="2" value="02"/>
          <field name="bgp.cap.length" showname="Length: 0" size="1" pos="98" show="0" value="00"/>
        </field>
      </field>
      <field name="bgp.open.opt.param" showname="Optional Parameter: Capability" size="4" pos="99" show="" value="">
        <field name="bgp.open.opt.param.type" showname="Parameter Type: Capability (2)" size="1" pos="99" show="2" value="02"/>
        <field name="bgp.open.opt.param.len" showname="Parameter Length: 2" size="1" pos="100" show="2" value="02"/>
        <field name="bgp.cap" showname="Capability: Enhanced route refresh capability" size="2" pos="101" show="" value="">
          <field name="bgp.cap.type" showname="Type: Enhanced route refresh capability (70)" size="1" pos="101" show="70" value="46"/>
          <field name="bgp.cap.length" showname="Length: 0" size="1" pos="102" show="0" value="00"/>
        </field>
      </field>
      <field name="bgp.open.opt.param" showname="Optional Parameter: Capability" size="8" pos="103" show="" value="">
        <field name="bgp.open.opt.param.type" showname="Parameter Type: Capability (2)" size="1" pos="103" show="2" value="02"/>
        <field name="bgp.open.opt.param.len" showname="Parameter Length: 6" size="1" pos="104" show="6" value="06"/>
        <field name="bgp.cap" showname="Capability: Support for 4-octet AS number capability" size="6" pos="105" show="" value="">
          <field name="bgp.cap.type" showname="Type: Support for 4-octet AS number capability (65)" size="1" pos="105" show="65" value="41"/>
          <field name="bgp.cap.length" showname="Length: 4" size="1" pos="106" show="4" value="04"/>
          <field name="bgp.cap.4as" showname="AS Number: 2" size="4" pos="107" show="2" value="00000002"/>
        </field>
      </field>
    </field>
  </proto>
</packet>

<packet>
  <proto name="geninfo" pos="0" showname="General information" size="73">
    <field name="num" pos="0" show="21" showname="Number" value="15" size="73"/>
    <field name="len" pos="0" show="73" showname="Frame Length" value="49" size="73"/>
    <field name="caplen" pos="0" show="73" showname="Captured Length" value="49" size="73"/>
    <field name="timestamp" pos="0" show="Jan  6, 2020 16:16:05.634597000 India Standard Time" showname="Captured Time" value="1578307565.634597000" size="73"/>
  </proto>
  <proto name="frame" showname="Frame 21: 73 bytes on wire (584 bits), 73 bytes captured (584 bits) on interface 0" size="73" pos="0">
    <field name="frame.interface_id" showname="Interface id: 0 (-)" size="0" pos="0" show="0"/>
    <field name="frame.encap_type" showname="Encapsulation type: Ethernet (1)" size="0" pos="0" show="1"/>
    <field name="frame.time" showname="Arrival Time: Jan  6, 2020 16:16:05.634597000 India Standard Time" size="0" pos="0" show="Jan  6, 2020 16:16:05.634597000 India Standard Time"/>
    <field name="frame.offset_shift" showname="Time shift for this packet: 0.000000000 seconds" size="0" pos="0" show="0.000000000"/>
    <field name="frame.time_epoch" showname="Epoch Time: 1578307565.634597000 seconds" size="0" pos="0" show="1578307565.634597000"/>
    <field name="frame.time_delta" showname="Time delta from previous captured frame: 0.000055000 seconds" size="0" pos="0" show="0.000055000"/>
    <field name="frame.time_delta_displayed" showname="Time delta from previous displayed frame: 0.000055000 seconds" size="0" pos="0" show="0.000055000"/>
    <field name="frame.time_relative" showname="Time since reference or first frame: 9.267149000 seconds" size="0" pos="0" show="9.267149000"/>
    <field name="frame.number" showname="Frame Number: 21" size="0" pos="0" show="21"/>
    <field name="frame.len" showname="Frame Length: 73 bytes (584 bits)" size="0" pos="0" show="73"/>
    <field name="frame.cap_len" showname="Capture Length: 73 bytes (584 bits)" size="0" pos="0" show="73"/>
    <field name="frame.marked" showname="Frame is marked: False" size="0" pos="0" show="0"/>
    <field name="frame.ignored" showname="Frame is ignored: False" size="0" pos="0" show="0"/>
    <field name="frame.protocols" showname="Protocols in frame: eth:ethertype:ip:tcp:bgp" size="0" pos="0" show="eth:ethertype:ip:tcp:bgp"/>
    <field name="frame.coloring_rule.name" showname="Coloring Rule Name: BGP" size="0" pos="0" show="BGP"/>
    <field name="frame.coloring_rule.string" showname="Coloring Rule String: bgp || tcp" size="0" pos="0" show="bgp || tcp"/>
  </proto>
  <proto name="eth" showname="Ethernet II, Src: aa:bb:cc:00:02:00 (aa:bb:cc:00:02:00), Dst: aa:bb:cc:00:01:00 (aa:bb:cc:00:01:00)" size="14" pos="0">
    <field name="eth.dst" showname="Destination: aa:bb:cc:00:01:00 (aa:bb:cc:00:01:00)" size="6" pos="0" show="aa:bb:cc:00:01:00" value="aabbcc000100">
      <field name="eth.dst_resolved" showname="Destination (resolved): aa:bb:cc:00:01:00" hide="yes" size="6" pos="0" show="aa:bb:cc:00:01:00" value="aabbcc000100"/>
      <field name="eth.addr" showname="Address: aa:bb:cc:00:01:00 (aa:bb:cc:00:01:00)" size="6" pos="0" show="aa:bb:cc:00:01:00" value="aabbcc000100"/>
      <field name="eth.addr_resolved" showname="Address (resolved): aa:bb:cc:00:01:00" hide="yes" size="6" pos="0" show="aa:bb:cc:00:01:00" value="aabbcc000100"/>
      <field name="eth.lg" showname=".... ..1. .... .... .... .... = LG bit: Locally administered address (this is NOT the factory default)" size="3" pos="0" show="1" value="1" unmaskedvalue="aabbcc"/>
      <field name="eth.ig" showname=".... ...0 .... .... .... .... = IG bit: Individual address (unicast)" size="3" pos="0" show="0" value="0" unmaskedvalue="aabbcc"/>
    </field>
    <field name="eth.src" showname="Source: aa:bb:cc:00:02:00 (aa:bb:cc:00:02:00)" size="6" pos="6" show="aa:bb:cc:00:02:00" value="aabbcc000200">
      <field name="eth.src_resolved" showname="Source (resolved): aa:bb:cc:00:02:00" hide="yes" size="6" pos="6" show="aa:bb:cc:00:02:00" value="aabbcc000200"/>
      <field name="eth.addr" showname="Address: aa:bb:cc:00:02:00 (aa:bb:cc:00:02:00)" size="6" pos="6" show="aa:bb:cc:00:02:00" value="aabbcc000200"/>
      <field name="eth.addr_resolved" showname="Address (resolved): aa:bb:cc:00:02:00" hide="yes" size="6" pos="6" show="aa:bb:cc:00:02:00" value="aabbcc000200"/>
      <field name="eth.lg" showname=".... ..1. .... .... .... .... = LG bit: Locally administered address (this is NOT the factory default)" size="3" pos="6" show="1" value="1" unmaskedvalue="aabbcc"/>
      <field name="eth.ig" showname=".... ...0 .... .... .... .... = IG bit: Individual address (unicast)" size="3" pos="6" show="0" value="0" unmaskedvalue="aabbcc"/>
    </field>
    <field name="eth.type" showname="Type: IPv4 (0x0800)" size="2" pos="12" show="0x00000800" value="0800"/>
  </proto>
  <proto name="ip" showname="Internet Protocol Version 4, Src: 12.0.0.2, Dst: 12.0.0.1" size="20" pos="14">
    <field name="ip.version" showname="0100 .... = Version: 4" size="1" pos="14" show="4" value="4" unmaskedvalue="45"/>
    <field name="ip.hdr_len" showname=".... 0101 = Header Length: 20 bytes (5)" size="1" pos="14" show="20" value="45"/>
    <field name="ip.dsfield" showname="Differentiated Services Field: 0xc0 (DSCP: CS6, ECN: Not-ECT)" size="1" pos="15" show="0x000000c0" value="c0">
      <field name="ip.dsfield.dscp" showname="1100 00.. = Differentiated Services Codepoint: Class Selector 6 (48)" size="1" pos="15" show="48" value="30" unmaskedvalue="c0"/>
      <field name="ip.dsfield.ecn" showname=".... ..00 = Explicit Congestion Notification: Not ECN-Capable Transport (0)" size="1" pos="15" show="0" value="0" unmaskedvalue="c0"/>
    </field>
    <field name="ip.len" showname="Total Length: 59" size="2" pos="16" show="59" value="003b"/>
    <field name="ip.id" showname="Identification: 0x7215 (29205)" size="2" pos="18" show="0x00007215" value="7215"/>
    <field name="ip.flags" showname="Flags: 0x02 (Don&#x27;t Fragment)" size="1" pos="20" show="0x00000002" value="40">
      <field name="ip.flags.rb" showname="0... .... = Reserved bit: Not set" size="1" pos="20" show="0" value="40"/>
      <field name="ip.flags.df" showname=".1.. .... = Don&#x27;t fragment: Set" size="1" pos="20" show="1" value="40"/>
      <field name="ip.flags.mf" showname="..0. .... = More fragments: Not set" size="1" pos="20" show="0" value="40"/>
    </field>
    <field name="ip.frag_offset" showname="Fragment offset: 0" size="2" pos="20" show="0" value="4000"/>
    <field name="ip.ttl" showname="Time to live: 1" size="1" pos="22" show="1" value="01">
      <field name="_ws.expert" showname="Expert Info (Note/Sequence): &quot;Time To Live&quot; only 1" size="0" pos="22">
        <field name="ip.ttl.too_small" showname="&quot;Time To Live&quot; only 1" size="0" pos="0" show="" value=""/>
        <field name="_ws.expert.message" showname="Message: &quot;Time To Live&quot; only 1" hide="yes" size="0" pos="0" show="&quot;Time To Live&quot; only 1"/>
        <field name="_ws.expert.severity" showname="Severity level: Note" size="0" pos="0" show="4194304"/>
        <field name="_ws.expert.group" showname="Group: Sequence" size="0" pos="0" show="33554432"/>
      </field>
    </field>
    <field name="ip.proto" showname="Protocol: TCP (6)" size="1" pos="23" show="6" value="06"/>
    <field name="ip.checksum" showname="Header checksum: 0xeee5 [validation disabled]" size="2" pos="24" show="0x0000eee5" value="eee5"/>
    <field name="ip.checksum.status" showname="Header checksum status: Unverified" size="0" pos="24" show="2"/>
    <field name="ip.src" showname="Source: 12.0.0.2" size="4" pos="26" show="12.0.0.2" value="0c000002"/>
    <field name="ip.addr" showname="Source or Destination Address: 12.0.0.2" hide="yes" size="4" pos="26" show="12.0.0.2" value="0c000002"/>
    <field name="ip.src_host" showname="Source Host: 12.0.0.2" hide="yes" size="4" pos="26" show="12.0.0.2" value="0c000002"/>
    <field name="ip.host" showname="Source or Destination Host: 12.0.0.2" hide="yes" size="4" pos="26" show="12.0.0.2" value="0c000002"/>
    <field name="ip.dst" showname="Destination: 12.0.0.1" size="4" pos="30" show="12.0.0.1" value="0c000001"/>
    <field name="ip.addr" showname="Source or Destination Address: 12.0.0.1" hide="yes" size="4" pos="30" show="12.0.0.1" value="0c000001"/>
    <field name="ip.dst_host" showname="Destination Host: 12.0.0.1" hide="yes" size="4" pos="30" show="12.0.0.1" value="0c000001"/>
    <field name="ip.host" showname="Source or Destination Host: 12.0.0.1" hide="yes" size="4" pos="30" show="12.0.0.1" value="0c000001"/>
    <field name="" show="Source GeoIP: Unknown" size="4" pos="26" value="0c000002"/>
    <field name="" show="Destination GeoIP: Unknown" size="4" pos="30" value="0c000001"/>
  </proto>
  <proto name="tcp" showname="Transmission Control Protocol, Src Port: 179, Dst Port: 64250, Seq: 58, Ack: 58, Len: 19" size="20" pos="34">
    <field name="tcp.srcport" showname="Source Port: 179" size="2" pos="34" show="179" value="00b3"/>
    <field name="tcp.dstport" showname="Destination Port: 64250" size="2" pos="36" show="64250" value="fafa"/>
    <field name="tcp.port" showname="Source or Destination Port: 179" hide="yes" size="2" pos="34" show="179" value="00b3"/>
    <field name="tcp.port" showname="Source or Destination Port: 64250" hide="yes" size="2" pos="36" show="64250" value="fafa"/>
    <field name="tcp.stream" showname="Stream index: 3" size="0" pos="34" show="3"/>
    <field name="tcp.len" showname="TCP Segment Len: 19" size="1" pos="46" show="19" value="50"/>
    <field name="tcp.seq" showname="Sequence number: 58    (relative sequence number)" size="4" pos="38" show="58" value="6e29d045"/>
    <field name="tcp.nxtseq" showname="Next sequence number: 77    (relative sequence number)" size="0" pos="34" show="77"/>
    <field name="tcp.ack" showname="Acknowledgment number: 58    (relative ack number)" size="4" pos="42" show="58" value="5e9ce4f2"/>
    <field name="tcp.hdr_len" showname="Header Length: 20 bytes" size="1" pos="46" show="20" value="50"/>
    <field name="tcp.flags" showname="Flags: 0x018 (PSH, ACK)" size="2" pos="46" show="0x00000018" value="18" unmaskedvalue="5018">
      <field name="tcp.flags.res" showname="000. .... .... = Reserved: Not set" size="1" pos="46" show="0" value="0" unmaskedvalue="50"/>
      <field name="tcp.flags.ns" showname="...0 .... .... = Nonce: Not set" size="1" pos="46" show="0" value="0" unmaskedvalue="50"/>
      <field name="tcp.flags.cwr" showname=".... 0... .... = Congestion Window Reduced (CWR): Not set" size="1" pos="47" show="0" value="0" unmaskedvalue="18"/>
      <field name="tcp.flags.ecn" showname=".... .0.. .... = ECN-Echo: Not set" size="1" pos="47" show="0" value="0" unmaskedvalue="18"/>
      <field name="tcp.flags.urg" showname=".... ..0. .... = Urgent: Not set" size="1" pos="47" show="0" value="0" unmaskedvalue="18"/>
      <field name="tcp.flags.ack" showname=".... ...1 .... = Acknowledgment: Set" size="1" pos="47" show="1" value="1" unmaskedvalue="18"/>
      <field name="tcp.flags.push" showname=".... .... 1... = Push: Set" size="1" pos="47" show="1" value="1" unmaskedvalue="18"/>
      <field name="tcp.flags.reset" showname=".... .... .0.. = Reset: Not set" size="1" pos="47" show="0" value="0" unmaskedvalue="18"/>
      <field name="tcp.flags.syn" showname=".... .... ..0. = Syn: Not set" size="1" pos="47" show="0" value="0" unmaskedvalue="18"/>
      <field name="tcp.flags.fin" showname=".... .... ...0 = Fin: Not set" size="1" pos="47" show="0" value="0" unmaskedvalue="18"/>
      <field name="tcp.flags.str" showname="TCP Flags: \xc2\xb7\xc2\xb7\xc2\xb7\xc2\xb7\xc2\xb7\xc2\xb7\xc2\xb7AP\xc2\xb7\xc2\xb7\xc2\xb7" size="2" pos="46" show="\xc2\xb7\xc2\xb7\xc2\xb7\xc2\xb7\xc2\xb7\xc2\xb7\xc2\xb7AP\xc2\xb7\xc2\xb7\xc2\xb7" value="5018"/>
    </field>
    <field name="tcp.window_size_value" showname="Window size value: 16327" size="2" pos="48" show="16327" value="3fc7"/>
    <field name="tcp.window_size" showname="Calculated window size: 16327" size="2" pos="48" show="16327" value="3fc7"/>
    <field name="tcp.window_size_scalefactor" showname="Window size scaling factor: -2 (no window scaling used)" size="2" pos="48" show="-2" value="3fc7"/>
    <field name="tcp.checksum" showname="Checksum: 0xd630 [unverified]" size="2" pos="50" show="0x0000d630" value="d630"/>
    <field name="tcp.checksum.status" showname="Checksum Status: Unverified" size="0" pos="50" show="2"/>
    <field name="tcp.urgent_pointer" showname="Urgent pointer: 0" size="2" pos="52" show="0" value="0000"/>
    <field name="tcp.analysis" showname="SEQ/ACK analysis" size="0" pos="34" show="" value="">
      <field name="tcp.analysis.initial_rtt" showname="iRTT: 0.000910000 seconds" size="0" pos="34" show="0.000910000"/>
      <field name="tcp.analysis.bytes_in_flight" showname="Bytes in flight: 76" size="0" pos="34" show="76"/>
      <field name="tcp.analysis.push_bytes_sent" showname="Bytes sent since last PSH flag: 19" size="0" pos="34" show="19"/>
    </field>
  </proto>
  <proto name="bgp" showname="Border Gateway Protocol - KEEPALIVE Message" size="19" pos="54">
    <field name="bgp.marker" showname="Marker: ffffffffffffffffffffffffffffffff" size="16" pos="54" show="ff:ff:ff:ff:ff:ff:ff:ff:ff:ff:ff:ff:ff:ff:ff:ff" value="ffffffffffffffffffffffffffffffff"/>
    <field name="bgp.length" showname="Length: 19" size="2" pos="70" show="19" value="0013"/>
    <field name="bgp.type" showname="Type: KEEPALIVE Message (4)" size="1" pos="72" show="4" value="04"/>
  </proto>
</packet>

<packet>
  <proto name="geninfo" pos="0" showname="General information" size="77">
    <field name="num" pos="0" show="23" showname="Number" value="17" size="77"/>
    <field name="len" pos="0" show="77" showname="Frame Length" value="4d" size="77"/>
    <field name="caplen" pos="0" show="77" showname="Captured Length" value="4d" size="77"/>
    <field name="timestamp" pos="0" show="Jan  6, 2020 16:16:05.635342000 India Standard Time" showname="Captured Time" value="1578307565.635342000" size="77"/>
  </proto>
  <proto name="frame" showname="Frame 23: 77 bytes on wire (616 bits), 77 bytes captured (616 bits) on interface 0" size="77" pos="0">
    <field name="frame.interface_id" showname="Interface id: 0 (-)" size="0" pos="0" show="0"/>
    <field name="frame.encap_type" showname="Encapsulation type: Ethernet (1)" size="0" pos="0" show="1"/>
    <field name="frame.time" showname="Arrival Time: Jan  6, 2020 16:16:05.635342000 India Standard Time" size="0" pos="0" show="Jan  6, 2020 16:16:05.635342000 India Standard Time"/>
    <field name="frame.offset_shift" showname="Time shift for this packet: 0.000000000 seconds" size="0" pos="0" show="0.000000000"/>
    <field name="frame.time_epoch" showname="Epoch Time: 1578307565.635342000 seconds" size="0" pos="0" show="1578307565.635342000"/>
    <field name="frame.time_delta" showname="Time delta from previous captured frame: 0.000447000 seconds" size="0" pos="0" show="0.000447000"/>
    <field name="frame.time_delta_displayed" showname="Time delta from previous displayed frame: 0.000745000 seconds" size="0" pos="0" show="0.000745000"/>
    <field name="frame.time_relative" showname="Time since reference or first frame: 9.267894000 seconds" size="0" pos="0" show="9.267894000"/>
    <field name="frame.number" showname="Frame Number: 23" size="0" pos="0" show="23"/>
    <field name="frame.len" showname="Frame Length: 77 bytes (616 bits)" size="0" pos="0" show="77"/>
    <field name="frame.cap_len" showname="Capture Length: 77 bytes (616 bits)" size="0" pos="0" show="77"/>
    <field name="frame.marked" showname="Frame is marked: False" size="0" pos="0" show="0"/>
    <field name="frame.ignored" showname="Frame is ignored: False" size="0" pos="0" show="0"/>
    <field name="frame.protocols" showname="Protocols in frame: eth:ethertype:ip:tcp:bgp" size="0" pos="0" show="eth:ethertype:ip:tcp:bgp"/>
    <field name="frame.coloring_rule.name" showname="Coloring Rule Name: BGP" size="0" pos="0" show="BGP"/>
    <field name="frame.coloring_rule.string" showname="Coloring Rule String: bgp || tcp" size="0" pos="0" show="bgp || tcp"/>
  </proto>
  <proto name="eth" showname="Ethernet II, Src: aa:bb:cc:00:01:00 (aa:bb:cc:00:01:00), Dst: aa:bb:cc:00:02:00 (aa:bb:cc:00:02:00)" size="14" pos="0">
    <field name="eth.dst" showname="Destination: aa:bb:cc:00:02:00 (aa:bb:cc:00:02:00)" size="6" pos="0" show="aa:bb:cc:00:02:00" value="aabbcc000200">
      <field name="eth.dst_resolved" showname="Destination (resolved): aa:bb:cc:00:02:00" hide="yes" size="6" pos="0" show="aa:bb:cc:00:02:00" value="aabbcc000200"/>
      <field name="eth.addr" showname="Address: aa:bb:cc:00:02:00 (aa:bb:cc:00:02:00)" size="6" pos="0" show="aa:bb:cc:00:02:00" value="aabbcc000200"/>
      <field name="eth.addr_resolved" showname="Address (resolved): aa:bb:cc:00:02:00" hide="yes" size="6" pos="0" show="aa:bb:cc:00:02:00" value="aabbcc000200"/>
      <field name="eth.lg" showname=".... ..1. .... .... .... .... = LG bit: Locally administered address (this is NOT the factory default)" size="3" pos="0" show="1" value="1" unmaskedvalue="aabbcc"/>
      <field name="eth.ig" showname=".... ...0 .... .... .... .... = IG bit: Individual address (unicast)" size="3" pos="0" show="0" value="0" unmaskedvalue="aabbcc"/>
    </field>
    <field name="eth.src" showname="Source: aa:bb:cc:00:01:00 (aa:bb:cc:00:01:00)" size="6" pos="6" show="aa:bb:cc:00:01:00" value="aabbcc000100">
      <field name="eth.src_resolved" showname="Source (resolved): aa:bb:cc:00:01:00" hide="yes" size="6" pos="6" show="aa:bb:cc:00:01:00" value="aabbcc000100"/>
      <field name="eth.addr" showname="Address: aa:bb:cc:00:01:00 (aa:bb:cc:00:01:00)" size="6" pos="6" show="aa:bb:cc:00:01:00" value="aabbcc000100"/>
      <field name="eth.addr_resolved" showname="Address (resolved): aa:bb:cc:00:01:00" hide="yes" size="6" pos="6" show="aa:bb:cc:00:01:00" value="aabbcc000100"/>
      <field name="eth.lg" showname=".... ..1. .... .... .... .... = LG bit: Locally administered address (this is NOT the factory default)" size="3" pos="6" show="1" value="1" unmaskedvalue="aabbcc"/>
      <field name="eth.ig" showname=".... ...0 .... .... .... .... = IG bit: Individual address (unicast)" size="3" pos="6" show="0" value="0" unmaskedvalue="aabbcc"/>
    </field>
    <field name="eth.type" showname="Type: IPv4 (0x0800)" size="2" pos="12" show="0x00000800" value="0800"/>
  </proto>
  <proto name="ip" showname="Internet Protocol Version 4, Src: 12.0.0.1, Dst: 12.0.0.2" size="20" pos="14">
    <field name="ip.version" showname="0100 .... = Version: 4" size="1" pos="14" show="4" value="4" unmaskedvalue="45"/>
    <field name="ip.hdr_len" showname=".... 0101 = Header Length: 20 bytes (5)" size="1" pos="14" show="20" value="45"/>
    <field name="ip.dsfield" showname="Differentiated Services Field: 0xc0 (DSCP: CS6, ECN: Not-ECT)" size="1" pos="15" show="0x000000c0" value="c0">
      <field name="ip.dsfield.dscp" showname="1100 00.. = Differentiated Services Codepoint: Class Selector 6 (48)" size="1" pos="15" show="48" value="30" unmaskedvalue="c0"/>
      <field name="ip.dsfield.ecn" showname=".... ..00 = Explicit Congestion Notification: Not ECN-Capable Transport (0)" size="1" pos="15" show="0" value="0" unmaskedvalue="c0"/>
    </field>
    <field name="ip.len" showname="Total Length: 63" size="2" pos="16" show="63" value="003f"/>
    <field name="ip.id" showname="Identification: 0xfcd3 (64723)" size="2" pos="18" show="0x0000fcd3" value="fcd3"/>
    <field name="ip.flags" showname="Flags: 0x02 (Don&#x27;t Fragment)" size="1" pos="20" show="0x00000002" value="40">
      <field name="ip.flags.rb" showname="0... .... = Reserved bit: Not set" size="1" pos="20" show="0" value="40"/>
      <field name="ip.flags.df" showname=".1.. .... = Don&#x27;t fragment: Set" size="1" pos="20" show="1" value="40"/>
      <field name="ip.flags.mf" showname="..0. .... = More fragments: Not set" size="1" pos="20" show="0" value="40"/>
    </field>
    <field name="ip.frag_offset" showname="Fragment offset: 0" size="2" pos="20" show="0" value="4000"/>
    <field name="ip.ttl" showname="Time to live: 1" size="1" pos="22" show="1" value="01">
      <field name="_ws.expert" showname="Expert Info (Note/Sequence): &quot;Time To Live&quot; only 1" size="0" pos="22">
        <field name="ip.ttl.too_small" showname="&quot;Time To Live&quot; only 1" size="0" pos="0" show="" value=""/>
        <field name="_ws.expert.message" showname="Message: &quot;Time To Live&quot; only 1" hide="yes" size="0" pos="0" show="&quot;Time To Live&quot; only 1"/>
        <field name="_ws.expert.severity" showname="Severity level: Note" size="0" pos="0" show="4194304"/>
        <field name="_ws.expert.group" showname="Group: Sequence" size="0" pos="0" show="33554432"/>
      </field>
    </field>
    <field name="ip.proto" showname="Protocol: TCP (6)" size="1" pos="23" show="6" value="06"/>
    <field name="ip.checksum" showname="Header checksum: 0x6423 [validation disabled]" size="2" pos="24" show="0x00006423" value="6423"/>
    <field name="ip.checksum.status" showname="Header checksum status: Unverified" size="0" pos="24" show="2"/>
    <field name="ip.src" showname="Source: 12.0.0.1" size="4" pos="26" show="12.0.0.1" value="0c000001"/>
    <field name="ip.addr" showname="Source or Destination Address: 12.0.0.1" hide="yes" size="4" pos="26" show="12.0.0.1" value="0c000001"/>
    <field name="ip.src_host" showname="Source Host: 12.0.0.1" hide="yes" size="4" pos="26" show="12.0.0.1" value="0c000001"/>
    <field name="ip.host" showname="Source or Destination Host: 12.0.0.1" hide="yes" size="4" pos="26" show="12.0.0.1" value="0c000001"/>
    <field name="ip.dst" showname="Destination: 12.0.0.2" size="4" pos="30" show="12.0.0.2" value="0c000002"/>
    <field name="ip.addr" showname="Source or Destination Address: 12.0.0.2" hide="yes" size="4" pos="30" show="12.0.0.2" value="0c000002"/>
    <field name="ip.dst_host" showname="Destination Host: 12.0.0.2" hide="yes" size="4" pos="30" show="12.0.0.2" value="0c000002"/>
    <field name="ip.host" showname="Source or Destination Host: 12.0.0.2" hide="yes" size="4" pos="30" show="12.0.0.2" value="0c000002"/>
    <field name="" show="Source GeoIP: Unknown" size="4" pos="26" value="0c000001"/>
    <field name="" show="Destination GeoIP: Unknown" size="4" pos="30" value="0c000002"/>
  </proto>
  <proto name="tcp" showname="Transmission Control Protocol, Src Port: 64250, Dst Port: 179, Seq: 58, Ack: 77, Len: 23" size="20" pos="34">
    <field name="tcp.srcport" showname="Source Port: 64250" size="2" pos="34" show="64250" value="fafa"/>
    <field name="tcp.dstport" showname="Destination Port: 179" size="2" pos="36" show="179" value="00b3"/>
    <field name="tcp.port" showname="Source or Destination Port: 64250" hide="yes" size="2" pos="34" show="64250" value="fafa"/>
    <field name="tcp.port" showname="Source or Destination Port: 179" hide="yes" size="2" pos="36" show="179" value="00b3"/>
    <field name="tcp.stream" showname="Stream index: 3" size="0" pos="34" show="3"/>
    <field name="tcp.len" showname="TCP Segment Len: 23" size="1" pos="46" show="23" value="50"/>
    <field name="tcp.seq" showname="Sequence number: 58    (relative sequence number)" size="4" pos="38" show="58" value="5e9ce4f2"/>
    <field name="tcp.nxtseq" showname="Next sequence number: 81    (relative sequence number)" size="0" pos="34" show="81"/>
    <field name="tcp.ack" showname="Acknowledgment number: 77    (relative ack number)" size="4" pos="42" show="77" value="6e29d058"/>
    <field name="tcp.hdr_len" showname="Header Length: 20 bytes" size="1" pos="46" show="20" value="50"/>
    <field name="tcp.flags" showname="Flags: 0x018 (PSH, ACK)" size="2" pos="46" show="0x00000018" value="18" unmaskedvalue="5018">
      <field name="tcp.flags.res" showname="000. .... .... = Reserved: Not set" size="1" pos="46" show="0" value="0" unmaskedvalue="50"/>
      <field name="tcp.flags.ns" showname="...0 .... .... = Nonce: Not set" size="1" pos="46" show="0" value="0" unmaskedvalue="50"/>
      <field name="tcp.flags.cwr" showname=".... 0... .... = Congestion Window Reduced (CWR): Not set" size="1" pos="47" show="0" value="0" unmaskedvalue="18"/>
      <field name="tcp.flags.ecn" showname=".... .0.. .... = ECN-Echo: Not set" size="1" pos="47" show="0" value="0" unmaskedvalue="18"/>
      <field name="tcp.flags.urg" showname=".... ..0. .... = Urgent: Not set" size="1" pos="47" show="0" value="0" unmaskedvalue="18"/>
      <field name="tcp.flags.ack" showname=".... ...1 .... = Acknowledgment: Set" size="1" pos="47" show="1" value="1" unmaskedvalue="18"/>
      <field name="tcp.flags.push" showname=".... .... 1... = Push: Set" size="1" pos="47" show="1" value="1" unmaskedvalue="18"/>
      <field name="tcp.flags.reset" showname=".... .... .0.. = Reset: Not set" size="1" pos="47" show="0" value="0" unmaskedvalue="18"/>
      <field name="tcp.flags.syn" showname=".... .... ..0. = Syn: Not set" size="1" pos="47" show="0" value="0" unmaskedvalue="18"/>
      <field name="tcp.flags.fin" showname=".... .... ...0 = Fin: Not set" size="1" pos="47" show="0" value="0" unmaskedvalue="18"/>
      <field name="tcp.flags.str" showname="TCP Flags: \xc2\xb7\xc2\xb7\xc2\xb7\xc2\xb7\xc2\xb7\xc2\xb7\xc2\xb7AP\xc2\xb7\xc2\xb7\xc2\xb7" size="2" pos="46" show="\xc2\xb7\xc2\xb7\xc2\xb7\xc2\xb7\xc2\xb7\xc2\xb7\xc2\xb7AP\xc2\xb7\xc2\xb7\xc2\xb7" value="5018"/>
    </field>
    <field name="tcp.window_size_value" showname="Window size value: 16308" size="2" pos="48" show="16308" value="3fb4"/>
    <field name="tcp.window_size" showname="Calculated window size: 16308" size="2" pos="48" show="16308" value="3fb4"/>
    <field name="tcp.window_size_scalefactor" showname="Window size scaling factor: -2 (no window scaling used)" size="2" pos="48" show="-2" value="3fb4"/>
    <field name="tcp.checksum" showname="Checksum: 0xd326 [unverified]" size="2" pos="50" show="0x0000d326" value="d326"/>
    <field name="tcp.checksum.status" showname="Checksum Status: Unverified" size="0" pos="50" show="2"/>
    <field name="tcp.urgent_pointer" showname="Urgent pointer: 0" size="2" pos="52" show="0" value="0000"/>
    <field name="tcp.analysis" showname="SEQ/ACK analysis" size="0" pos="34" show="" value="">
      <field name="tcp.analysis.initial_rtt" showname="iRTT: 0.000910000 seconds" size="0" pos="34" show="0.000910000"/>
      <field name="tcp.analysis.bytes_in_flight" showname="Bytes in flight: 23" size="0" pos="34" show="23"/>
      <field name="tcp.analysis.push_bytes_sent" showname="Bytes sent since last PSH flag: 23" size="0" pos="34" show="23"/>
    </field>
  </proto>
  <proto name="bgp" showname="Border Gateway Protocol - NOTIFICATION Message" size="23" pos="54">
    <field name="bgp.marker" showname="Marker: ffffffffffffffffffffffffffffffff" size="16" pos="54" show="ff:ff:ff:ff:ff:ff:ff:ff:ff:ff:ff:ff:ff:ff:ff:ff" value="ffffffffffffffffffffffffffffffff"/>
    <field name="bgp.length" showname="Length: 23" size="2" pos="70" show="23" value="0017"/>
    <field name="bgp.type" showname="Type: NOTIFICATION Message (3)" size="1" pos="72" show="3" value="03"/>
    <field name="bgp.notify.major_error" showname="Major error Code: OPEN Message Error (2)" size="1" pos="73" show="2" value="02"/>
    <field name="bgp.notify.minor_error_open" showname="Minor error Code (Open Message): Bad Peer AS (2)" size="1" pos="74" show="2" value="02"/>
    <field name="bgp.notify.minor_data" showname="Data: 0002" size="2" pos="75" show="00:02" value="0002"/>
  </proto>
</packet>

<packet>
  <proto name="geninfo" pos="0" showname="General information" size="111">
    <field name="num" pos="0" show="33" showname="Number" value="21" size="111"/>
    <field name="len" pos="0" show="111" showname="Frame Length" value="6f" size="111"/>
    <field name="caplen" pos="0" show="111" showname="Captured Length" value="6f" size="111"/>
    <field name="timestamp" pos="0" show="Jan  6, 2020 16:16:10.002995000 India Standard Time" showname="Captured Time" value="1578307570.002995000" size="111"/>
  </proto>
  <proto name="frame" showname="Frame 33: 111 bytes on wire (888 bits), 111 bytes captured (888 bits) on interface 0" size="111" pos="0">
    <field name="frame.interface_id" showname="Interface id: 0 (-)" size="0" pos="0" show="0"/>
    <field name="frame.encap_type" showname="Encapsulation type: Ethernet (1)" size="0" pos="0" show="1"/>
    <field name="frame.time" showname="Arrival Time: Jan  6, 2020 16:16:10.002995000 India Standard Time" size="0" pos="0" show="Jan  6, 2020 16:16:10.002995000 India Standard Time"/>
    <field name="frame.offset_shift" showname="Time shift for this packet: 0.000000000 seconds" size="0" pos="0" show="0.000000000"/>
    <field name="frame.time_epoch" showname="Epoch Time: 1578307570.002995000 seconds" size="0" pos="0" show="1578307570.002995000"/>
    <field name="frame.time_delta" showname="Time delta from previous captured frame: 0.005776000 seconds" size="0" pos="0" show="0.005776000"/>
    <field name="frame.time_delta_displayed" showname="Time delta from previous displayed frame: 4.367653000 seconds" size="0" pos="0" show="4.367653000"/>
    <field name="frame.time_relative" showname="Time since reference or first frame: 13.635547000 seconds" size="0" pos="0" show="13.635547000"/>
    <field name="frame.number" showname="Frame Number: 33" size="0" pos="0" show="33"/>
    <field name="frame.len" showname="Frame Length: 111 bytes (888 bits)" size="0" pos="0" show="111"/>
    <field name="frame.cap_len" showname="Capture Length: 111 bytes (888 bits)" size="0" pos="0" show="111"/>
    <field name="frame.marked" showname="Frame is marked: False" size="0" pos="0" show="0"/>
    <field name="frame.ignored" showname="Frame is ignored: False" size="0" pos="0" show="0"/>
    <field name="frame.protocols" showname="Protocols in frame: eth:ethertype:ip:tcp:bgp" size="0" pos="0" show="eth:ethertype:ip:tcp:bgp"/>
    <field name="frame.coloring_rule.name" showname="Coloring Rule Name: BGP" size="0" pos="0" show="BGP"/>
    <field name="frame.coloring_rule.string" showname="Coloring Rule String: bgp || tcp" size="0" pos="0" show="bgp || tcp"/>
  </proto>
  <proto name="eth" showname="Ethernet II, Src: aa:bb:cc:00:02:00 (aa:bb:cc:00:02:00), Dst: aa:bb:cc:00:01:00 (aa:bb:cc:00:01:00)" size="14" pos="0">
    <field name="eth.dst" showname="Destination: aa:bb:cc:00:01:00 (aa:bb:cc:00:01:00)" size="6" pos="0" show="aa:bb:cc:00:01:00" value="aabbcc000100">
      <field name="eth.dst_resolved" showname="Destination (resolved): aa:bb:cc:00:01:00" hide="yes" size="6" pos="0" show="aa:bb:cc:00:01:00" value="aabbcc000100"/>
      <field name="eth.addr" showname="Address: aa:bb:cc:00:01:00 (aa:bb:cc:00:01:00)" size="6" pos="0" show="aa:bb:cc:00:01:00" value="aabbcc000100"/>
      <field name="eth.addr_resolved" showname="Address (resolved): aa:bb:cc:00:01:00" hide="yes" size="6" pos="0" show="aa:bb:cc:00:01:00" value="aabbcc000100"/>
      <field name="eth.lg" showname=".... ..1. .... .... .... .... = LG bit: Locally administered address (this is NOT the factory default)" size="3" pos="0" show="1" value="1" unmaskedvalue="aabbcc"/>
      <field name="eth.ig" showname=".... ...0 .... .... .... .... = IG bit: Individual address (unicast)" size="3" pos="0" show="0" value="0" unmaskedvalue="aabbcc"/>
    </field>
    <field name="eth.src" showname="Source: aa:bb:cc:00:02:00 (aa:bb:cc:00:02:00)" size="6" pos="6" show="aa:bb:cc:00:02:00" value="aabbcc000200">
      <field name="eth.src_resolved" showname="Source (resolved): aa:bb:cc:00:02:00" hide="yes" size="6" pos="6" show="aa:bb:cc:00:02:00" value="aabbcc000200"/>
      <field name="eth.addr" showname="Address: aa:bb:cc:00:02:00 (aa:bb:cc:00:02:00)" size="6" pos="6" show="aa:bb:cc:00:02:00" value="aabbcc000200"/>
      <field name="eth.addr_resolved" showname="Address (resolved): aa:bb:cc:00:02:00" hide="yes" size="6" pos="6" show="aa:bb:cc:00:02:00" value="aabbcc000200"/>
      <field name="eth.lg" showname=".... ..1. .... .... .... .... = LG bit: Locally administered address (this is NOT the factory default)" size="3" pos="6" show="1" value="1" unmaskedvalue="aabbcc"/>
      <field name="eth.ig" showname=".... ...0 .... .... .... .... = IG bit: Individual address (unicast)" size="3" pos="6" show="0" value="0" unmaskedvalue="aabbcc"/>
    </field>
    <field name="eth.type" showname="Type: IPv4 (0x0800)" size="2" pos="12" show="0x00000800" value="0800"/>
  </proto>
  <proto name="ip" showname="Internet Protocol Version 4, Src: 12.0.0.2, Dst: 12.0.0.1" size="20" pos="14">
    <field name="ip.version" showname="0100 .... = Version: 4" size="1" pos="14" show="4" value="4" unmaskedvalue="45"/>
    <field name="ip.hdr_len" showname=".... 0101 = Header Length: 20 bytes (5)" size="1" pos="14" show="20" value="45"/>
    <field name="ip.dsfield" showname="Differentiated Services Field: 0xc0 (DSCP: CS6, ECN: Not-ECT)" size="1" pos="15" show="0x000000c0" value="c0">
      <field name="ip.dsfield.dscp" showname="1100 00.. = Differentiated Services Codepoint: Class Selector 6 (48)" size="1" pos="15" show="48" value="30" unmaskedvalue="c0"/>
      <field name="ip.dsfield.ecn" showname=".... ..00 = Explicit Congestion Notification: Not ECN-Capable Transport (0)" size="1" pos="15" show="0" value="0" unmaskedvalue="c0"/>
    </field>
    <field name="ip.len" showname="Total Length: 97" size="2" pos="16" show="97" value="0061"/>
    <field name="ip.id" showname="Identification: 0x9e2f (40495)" size="2" pos="18" show="0x00009e2f" value="9e2f"/>
    <field name="ip.flags" showname="Flags: 0x02 (Don&#x27;t Fragment)" size="1" pos="20" show="0x00000002" value="40">
      <field name="ip.flags.rb" showname="0... .... = Reserved bit: Not set" size="1" pos="20" show="0" value="40"/>
      <field name="ip.flags.df" showname=".1.. .... = Don&#x27;t fragment: Set" size="1" pos="20" show="1" value="40"/>
      <field name="ip.flags.mf" showname="..0. .... = More fragments: Not set" size="1" pos="20" show="0" value="40"/>
    </field>
    <field name="ip.frag_offset" showname="Fragment offset: 0" size="2" pos="20" show="0" value="4000"/>
    <field name="ip.ttl" showname="Time to live: 1" size="1" pos="22" show="1" value="01">
      <field name="_ws.expert" showname="Expert Info (Note/Sequence): &quot;Time To Live&quot; only 1" size="0" pos="22">
        <field name="ip.ttl.too_small" showname="&quot;Time To Live&quot; only 1" size="0" pos="0" show="" value=""/>
        <field name="_ws.expert.message" showname="Message: &quot;Time To Live&quot; only 1" hide="yes" size="0" pos="0" show="&quot;Time To Live&quot; only 1"/>
        <field name="_ws.expert.severity" showname="Severity level: Note" size="0" pos="0" show="4194304"/>
        <field name="_ws.expert.group" showname="Group: Sequence" size="0" pos="0" show="33554432"/>
      </field>
    </field>
    <field name="ip.proto" showname="Protocol: TCP (6)" size="1" pos="23" show="6" value="06"/>
    <field name="ip.checksum" showname="Header checksum: 0xc2a5 [validation disabled]" size="2" pos="24" show="0x0000c2a5" value="c2a5"/>
    <field name="ip.checksum.status" showname="Header checksum status: Unverified" size="0" pos="24" show="2"/>
    <field name="ip.src" showname="Source: 12.0.0.2" size="4" pos="26" show="12.0.0.2" value="0c000002"/>
    <field name="ip.addr" showname="Source or Destination Address: 12.0.0.2" hide="yes" size="4" pos="26" show="12.0.0.2" value="0c000002"/>
    <field name="ip.src_host" showname="Source Host: 12.0.0.2" hide="yes" size="4" pos="26" show="12.0.0.2" value="0c000002"/>
    <field name="ip.host" showname="Source or Destination Host: 12.0.0.2" hide="yes" size="4" pos="26" show="12.0.0.2" value="0c000002"/>
    <field name="ip.dst" showname="Destination: 12.0.0.1" size="4" pos="30" show="12.0.0.1" value="0c000001"/>
    <field name="ip.addr" showname="Source or Destination Address: 12.0.0.1" hide="yes" size="4" pos="30" show="12.0.0.1" value="0c000001"/>
    <field name="ip.dst_host" showname="Destination Host: 12.0.0.1" hide="yes" size="4" pos="30" show="12.0.0.1" value="0c000001"/>
    <field name="ip.host" showname="Source or Destination Host: 12.0.0.1" hide="yes" size="4" pos="30" show="12.0.0.1" value="0c000001"/>
    <field name="" show="Source GeoIP: Unknown" size="4" pos="26" value="0c000002"/>
    <field name="" show="Destination GeoIP: Unknown" size="4" pos="30" value="0c000001"/>
  </proto>
  <proto name="tcp" showname="Transmission Control Protocol, Src Port: 27455, Dst Port: 179, Seq: 1, Ack: 1, Len: 57" size="20" pos="34">
    <field name="tcp.srcport" showname="Source Port: 27455" size="2" pos="34" show="27455" value="6b3f"/>
    <field name="tcp.dstport" showname="Destination Port: 179" size="2" pos="36" show="179" value="00b3"/>
    <field name="tcp.port" showname="Source or Destination Port: 27455" hide="yes" size="2" pos="34" show="27455" value="6b3f"/>
    <field name="tcp.port" showname="Source or Destination Port: 179" hide="yes" size="2" pos="36" show="179" value="00b3"/>
    <field name="tcp.stream" showname="Stream index: 4" size="0" pos="34" show="4"/>
    <field name="tcp.len" showname="TCP Segment Len: 57" size="1" pos="46" show="57" value="50"/>
    <field name="tcp.seq" showname="Sequence number: 1    (relative sequence number)" size="4" pos="38" show="1" value="ba38da4f"/>
    <field name="tcp.nxtseq" showname="Next sequence number: 58    (relative sequence number)" size="0" pos="34" show="58"/>
    <field name="tcp.ack" showname="Acknowledgment number: 1    (relative ack number)" size="4" pos="42" show="1" value="8fe694a4"/>
    <field name="tcp.hdr_len" showname="Header Length: 20 bytes" size="1" pos="46" show="20" value="50"/>
    <field name="tcp.flags" showname="Flags: 0x018 (PSH, ACK)" size="2" pos="46" show="0x00000018" value="18" unmaskedvalue="5018">
      <field name="tcp.flags.res" showname="000. .... .... = Reserved: Not set" size="1" pos="46" show="0" value="0" unmaskedvalue="50"/>
      <field name="tcp.flags.ns" showname="...0 .... .... = Nonce: Not set" size="1" pos="46" show="0" value="0" unmaskedvalue="50"/>
      <field name="tcp.flags.cwr" showname=".... 0... .... = Congestion Window Reduced (CWR): Not set" size="1" pos="47" show="0" value="0" unmaskedvalue="18"/>
      <field name="tcp.flags.ecn" showname=".... .0.. .... = ECN-Echo: Not set" size="1" pos="47" show="0" value="0" unmaskedvalue="18"/>
      <field name="tcp.flags.urg" showname=".... ..0. .... = Urgent: Not set" size="1" pos="47" show="0" value="0" unmaskedvalue="18"/>
      <field name="tcp.flags.ack" showname=".... ...1 .... = Acknowledgment: Set" size="1" pos="47" show="1" value="1" unmaskedvalue="18"/>
      <field name="tcp.flags.push" showname=".... .... 1... = Push: Set" size="1" pos="47" show="1" value="1" unmaskedvalue="18"/>
      <field name="tcp.flags.reset" showname=".... .... .0.. = Reset: Not set" size="1" pos="47" show="0" value="0" unmaskedvalue="18"/>
      <field name="tcp.flags.syn" showname=".... .... ..0. = Syn: Not set" size="1" pos="47" show="0" value="0" unmaskedvalue="18"/>
      <field name="tcp.flags.fin" showname=".... .... ...0 = Fin: Not set" size="1" pos="47" show="0" value="0" unmaskedvalue="18"/>
      <field name="tcp.flags.str" showname="TCP Flags: \xc2\xb7\xc2\xb7\xc2\xb7\xc2\xb7\xc2\xb7\xc2\xb7\xc2\xb7AP\xc2\xb7\xc2\xb7\xc2\xb7" size="2" pos="46" show="\xc2\xb7\xc2\xb7\xc2\xb7\xc2\xb7\xc2\xb7\xc2\xb7\xc2\xb7AP\xc2\xb7\xc2\xb7\xc2\xb7" value="5018"/>
    </field>
    <field name="tcp.window_size_value" showname="Window size value: 16384" size="2" pos="48" show="16384" value="4000"/>
    <field name="tcp.window_size" showname="Calculated window size: 16384" size="2" pos="48" show="16384" value="4000"/>
    <field name="tcp.window_size_scalefactor" showname="Window size scaling factor: -2 (no window scaling used)" size="2" pos="48" show="-2" value="4000"/>
    <field name="tcp.checksum" showname="Checksum: 0xe981 [unverified]" size="2" pos="50" show="0x0000e981" value="e981"/>
    <field name="tcp.checksum.status" showname="Checksum Status: Unverified" size="0" pos="50" show="2"/>
    <field name="tcp.urgent_pointer" showname="Urgent pointer: 0" size="2" pos="52" show="0" value="0000"/>
    <field name="tcp.analysis" showname="SEQ/ACK analysis" size="0" pos="34" show="" value="">
      <field name="tcp.analysis.initial_rtt" showname="iRTT: 0.000918000 seconds" size="0" pos="34" show="0.000918000"/>
      <field name="tcp.analysis.bytes_in_flight" showname="Bytes in flight: 57" size="0" pos="34" show="57"/>
      <field name="tcp.analysis.push_bytes_sent" showname="Bytes sent since last PSH flag: 57" size="0" pos="34" show="57"/>
    </field>
  </proto>
  <proto name="bgp" showname="Border Gateway Protocol - OPEN Message" size="57" pos="54">
    <field name="bgp.marker" showname="Marker: ffffffffffffffffffffffffffffffff" size="16" pos="54" show="ff:ff:ff:ff:ff:ff:ff:ff:ff:ff:ff:ff:ff:ff:ff:ff" value="ffffffffffffffffffffffffffffffff"/>
    <field name="bgp.length" showname="Length: 57" size="2" pos="70" show="57" value="0039"/>
    <field name="bgp.type" showname="Type: OPEN Message (1)" size="1" pos="72" show="1" value="01"/>
    <field name="bgp.open.version" showname="Version: 4" size="1" pos="73" show="4" value="04"/>
    <field name="bgp.open.myas" showname="My AS: 2" size="2" pos="74" show="2" value="0002"/>
    <field name="bgp.open.holdtime" showname="Hold Time: 180" size="2" pos="76" show="180" value="00b4"/>
    <field name="bgp.open.identifier" showname="BGP Identifier: 12.0.0.2" size="4" pos="78" show="12.0.0.2" value="0c000002"/>
    <field name="bgp.open.opt.len" showname="Optional Parameters Length: 28" size="1" pos="82" show="28" value="1c"/>
    <field name="bgp.open.opt" showname="Optional Parameters" size="28" pos="83" show="" value="">
      <field name="bgp.open.opt.param" showname="Optional Parameter: Capability" size="8" pos="83" show="" value="">
        <field name="bgp.open.opt.param.type" showname="Parameter Type: Capability (2)" size="1" pos="83" show="2" value="02"/>
        <field name="bgp.open.opt.param.len" showname="Parameter Length: 6" size="1" pos="84" show="6" value="06"/>
        <field name="bgp.cap" showname="Capability: Multiprotocol extensions capability" size="6" pos="85" show="" value="">
          <field name="bgp.cap.type" showname="Type: Multiprotocol extensions capability (1)" size="1" pos="85" show="1" value="01"/>
          <field name="bgp.cap.length" showname="Length: 4" size="1" pos="86" show="4" value="04"/>
          <field name="bgp.cap.mp.afi" showname="AFI: IPv4 (1)" size="2" pos="87" show="1" value="0001"/>
          <field name="bgp.cap.reserved" showname="Reserved: 00" size="1" pos="89" show="00" value="00"/>
          <field name="bgp.cap.mp.safi" showname="SAFI: Unicast (1)" size="1" pos="90" show="1" value="01"/>
        </field>
      </field>
      <field name="bgp.open.opt.param" showname="Optional Parameter: Capability" size="4" pos="91" show="" value="">
        <field name="bgp.open.opt.param.type" showname="Parameter Type: Capability (2)" size="1" pos="91" show="2" value="02"/>
        <field name="bgp.open.opt.param.len" showname="Parameter Length: 2" size="1" pos="92" show="2" value="02"/>
        <field name="bgp.cap" showname="Capability: Route refresh capability (Cisco)" size="2" pos="93" show="" value="">
          <field name="bgp.cap.type" showname="Type: Route refresh capability (Cisco) (128)" size="1" pos="93" show="128" value="80"/>
          <field name="bgp.cap.length" showname="Length: 0" size="1" pos="94" show="0" value="00"/>
        </field>
      </field>
      <field name="bgp.open.opt.param" showname="Optional Parameter: Capability" size="4" pos="95" show="" value="">
        <field name="bgp.open.opt.param.type" showname="Parameter Type: Capability (2)" size="1" pos="95" show="2" value="02"/>
        <field name="bgp.open.opt.param.len" showname="Parameter Length: 2" size="1" pos="96" show="2" value="02"/>
        <field name="bgp.cap" showname="Capability: Route refresh capability" size="2" pos="97" show="" value="">
          <field name="bgp.cap.type" showname="Type: Route refresh capability (2)" size="1" pos="97" show="2" value="02"/>
          <field name="bgp.cap.length" showname="Length: 0" size="1" pos="98" show="0" value="00"/>
        </field>
      </field>
      <field name="bgp.open.opt.param" showname="Optional Parameter: Capability" size="4" pos="99" show="" value="">
        <field name="bgp.open.opt.param.type" showname="Parameter Type: Capability (2)" size="1" pos="99" show="2" value="02"/>
        <field name="bgp.open.opt.param.len" showname="Parameter Length: 2" size="1" pos="100" show="2" value="02"/>
        <field name="bgp.cap" showname="Capability: Enhanced route refresh capability" size="2" pos="101" show="" value="">
          <field name="bgp.cap.type" showname="Type: Enhanced route refresh capability (70)" size="1" pos="101" show="70" value="46"/>
          <field name="bgp.cap.length" showname="Length: 0" size="1" pos="102" show="0" value="00"/>
        </field>
      </field>
      <field name="bgp.open.opt.param" showname="Optional Parameter: Capability" size="8" pos="103" show="" value="">
        <field name="bgp.open.opt.param.type" showname="Parameter Type: Capability (2)" size="1" pos="103" show="2" value="02"/>
        <field name="bgp.open.opt.param.len" showname="Parameter Length: 6" size="1" pos="104" show="6" value="06"/>
        <field name="bgp.cap" showname="Capability: Support for 4-octet AS number capability" size="6" pos="105" show="" value="">
          <field name="bgp.cap.type" showname="Type: Support for 4-octet AS number capability (65)" size="1" pos="105" show="65" value="41"/>
          <field name="bgp.cap.length" showname="Length: 4" size="1" pos="106" show="4" value="04"/>
          <field name="bgp.cap.4as" showname="AS Number: 2" size="4" pos="107" show="2" value="00000002"/>
        </field>
      </field>
    </field>
  </proto>
</packet>

<packet>
  <proto name="geninfo" pos="0" showname="General information" size="77">
    <field name="num" pos="0" show="35" showname="Number" value="23" size="77"/>
    <field name="len" pos="0" show="77" showname="Frame Length" value="4d" size="77"/>
    <field name="caplen" pos="0" show="77" showname="Captured Length" value="4d" size="77"/>
    <field name="timestamp" pos="0" show="Jan  6, 2020 16:16:10.004084000 India Standard Time" showname="Captured Time" value="1578307570.004084000" size="77"/>
  </proto>
  <proto name="frame" showname="Frame 35: 77 bytes on wire (616 bits), 77 bytes captured (616 bits) on interface 0" size="77" pos="0">
    <field name="frame.interface_id" showname="Interface id: 0 (-)" size="0" pos="0" show="0"/>
    <field name="frame.encap_type" showname="Encapsulation type: Ethernet (1)" size="0" pos="0" show="1"/>
    <field name="frame.time" showname="Arrival Time: Jan  6, 2020 16:16:10.004084000 India Standard Time" size="0" pos="0" show="Jan  6, 2020 16:16:10.004084000 India Standard Time"/>
    <field name="frame.offset_shift" showname="Time shift for this packet: 0.000000000 seconds" size="0" pos="0" show="0.000000000"/>
    <field name="frame.time_epoch" showname="Epoch Time: 1578307570.004084000 seconds" size="0" pos="0" show="1578307570.004084000"/>
    <field name="frame.time_delta" showname="Time delta from previous captured frame: 0.000656000 seconds" size="0" pos="0" show="0.000656000"/>
    <field name="frame.time_delta_displayed" showname="Time delta from previous displayed frame: 0.001089000 seconds" size="0" pos="0" show="0.001089000"/>
    <field name="frame.time_relative" showname="Time since reference or first frame: 13.636636000 seconds" size="0" pos="0" show="13.636636000"/>
    <field name="frame.number" showname="Frame Number: 35" size="0" pos="0" show="35"/>
    <field name="frame.len" showname="Frame Length: 77 bytes (616 bits)" size="0" pos="0" show="77"/>
    <field name="frame.cap_len" showname="Capture Length: 77 bytes (616 bits)" size="0" pos="0" show="77"/>
    <field name="frame.marked" showname="Frame is marked: False" size="0" pos="0" show="0"/>
    <field name="frame.ignored" showname="Frame is ignored: False" size="0" pos="0" show="0"/>
    <field name="frame.protocols" showname="Protocols in frame: eth:ethertype:ip:tcp:bgp" size="0" pos="0" show="eth:ethertype:ip:tcp:bgp"/>
    <field name="frame.coloring_rule.name" showname="Coloring Rule Name: BGP" size="0" pos="0" show="BGP"/>
    <field name="frame.coloring_rule.string" showname="Coloring Rule String: bgp || tcp" size="0" pos="0" show="bgp || tcp"/>
  </proto>
  <proto name="eth" showname="Ethernet II, Src: aa:bb:cc:00:01:00 (aa:bb:cc:00:01:00), Dst: aa:bb:cc:00:02:00 (aa:bb:cc:00:02:00)" size="14" pos="0">
    <field name="eth.dst" showname="Destination: aa:bb:cc:00:02:00 (aa:bb:cc:00:02:00)" size="6" pos="0" show="aa:bb:cc:00:02:00" value="aabbcc000200">
      <field name="eth.dst_resolved" showname="Destination (resolved): aa:bb:cc:00:02:00" hide="yes" size="6" pos="0" show="aa:bb:cc:00:02:00" value="aabbcc000200"/>
      <field name="eth.addr" showname="Address: aa:bb:cc:00:02:00 (aa:bb:cc:00:02:00)" size="6" pos="0" show="aa:bb:cc:00:02:00" value="aabbcc000200"/>
      <field name="eth.addr_resolved" showname="Address (resolved): aa:bb:cc:00:02:00" hide="yes" size="6" pos="0" show="aa:bb:cc:00:02:00" value="aabbcc000200"/>
      <field name="eth.lg" showname=".... ..1. .... .... .... .... = LG bit: Locally administered address (this is NOT the factory default)" size="3" pos="0" show="1" value="1" unmaskedvalue="aabbcc"/>
      <field name="eth.ig" showname=".... ...0 .... .... .... .... = IG bit: Individual address (unicast)" size="3" pos="0" show="0" value="0" unmaskedvalue="aabbcc"/>
    </field>
    <field name="eth.src" showname="Source: aa:bb:cc:00:01:00 (aa:bb:cc:00:01:00)" size="6" pos="6" show="aa:bb:cc:00:01:00" value="aabbcc000100">
      <field name="eth.src_resolved" showname="Source (resolved): aa:bb:cc:00:01:00" hide="yes" size="6" pos="6" show="aa:bb:cc:00:01:00" value="aabbcc000100"/>
      <field name="eth.addr" showname="Address: aa:bb:cc:00:01:00 (aa:bb:cc:00:01:00)" size="6" pos="6" show="aa:bb:cc:00:01:00" value="aabbcc000100"/>
      <field name="eth.addr_resolved" showname="Address (resolved): aa:bb:cc:00:01:00" hide="yes" size="6" pos="6" show="aa:bb:cc:00:01:00" value="aabbcc000100"/>
      <field name="eth.lg" showname=".... ..1. .... .... .... .... = LG bit: Locally administered address (this is NOT the factory default)" size="3" pos="6" show="1" value="1" unmaskedvalue="aabbcc"/>
      <field name="eth.ig" showname=".... ...0 .... .... .... .... = IG bit: Individual address (unicast)" size="3" pos="6" show="0" value="0" unmaskedvalue="aabbcc"/>
    </field>
    <field name="eth.type" showname="Type: IPv4 (0x0800)" size="2" pos="12" show="0x00000800" value="0800"/>
  </proto>
  <proto name="ip" showname="Internet Protocol Version 4, Src: 12.0.0.1, Dst: 12.0.0.2" size="20" pos="14">
    <field name="ip.version" showname="0100 .... = Version: 4" size="1" pos="14" show="4" value="4" unmaskedvalue="45"/>
    <field name="ip.hdr_len" showname=".... 0101 = Header Length: 20 bytes (5)" size="1" pos="14" show="20" value="45"/>
    <field name="ip.dsfield" showname="Differentiated Services Field: 0xc0 (DSCP: CS6, ECN: Not-ECT)" size="1" pos="15" show="0x000000c0" value="c0">
      <field name="ip.dsfield.dscp" showname="1100 00.. = Differentiated Services Codepoint: Class Selector 6 (48)" size="1" pos="15" show="48" value="30" unmaskedvalue="c0"/>
      <field name="ip.dsfield.ecn" showname=".... ..00 = Explicit Congestion Notification: Not ECN-Capable Transport (0)" size="1" pos="15" show="0" value="0" unmaskedvalue="c0"/>
    </field>
    <field name="ip.len" showname="Total Length: 63" size="2" pos="16" show="63" value="003f"/>
    <field name="ip.id" showname="Identification: 0xc406 (50182)" size="2" pos="18" show="0x0000c406" value="c406"/>
    <field name="ip.flags" showname="Flags: 0x02 (Don&#x27;t Fragment)" size="1" pos="20" show="0x00000002" value="40">
      <field name="ip.flags.rb" showname="0... .... = Reserved bit: Not set" size="1" pos="20" show="0" value="40"/>
      <field name="ip.flags.df" showname=".1.. .... = Don&#x27;t fragment: Set" size="1" pos="20" show="1" value="40"/>
      <field name="ip.flags.mf" showname="..0. .... = More fragments: Not set" size="1" pos="20" show="0" value="40"/>
    </field>
    <field name="ip.frag_offset" showname="Fragment offset: 0" size="2" pos="20" show="0" value="4000"/>
    <field name="ip.ttl" showname="Time to live: 1" size="1" pos="22" show="1" value="01">
      <field name="_ws.expert" showname="Expert Info (Note/Sequence): &quot;Time To Live&quot; only 1" size="0" pos="22">
        <field name="ip.ttl.too_small" showname="&quot;Time To Live&quot; only 1" size="0" pos="0" show="" value=""/>
        <field name="_ws.expert.message" showname="Message: &quot;Time To Live&quot; only 1" hide="yes" size="0" pos="0" show="&quot;Time To Live&quot; only 1"/>
        <field name="_ws.expert.severity" showname="Severity level: Note" size="0" pos="0" show="4194304"/>
        <field name="_ws.expert.group" showname="Group: Sequence" size="0" pos="0" show="33554432"/>
      </field>
    </field>
    <field name="ip.proto" showname="Protocol: TCP (6)" size="1" pos="23" show="6" value="06"/>
    <field name="ip.checksum" showname="Header checksum: 0x9cf0 [validation disabled]" size="2" pos="24" show="0x00009cf0" value="9cf0"/>
    <field name="ip.checksum.status" showname="Header checksum status: Unverified" size="0" pos="24" show="2"/>
    <field name="ip.src" showname="Source: 12.0.0.1" size="4" pos="26" show="12.0.0.1" value="0c000001"/>
    <field name="ip.addr" showname="Source or Destination Address: 12.0.0.1" hide="yes" size="4" pos="26" show="12.0.0.1" value="0c000001"/>
    <field name="ip.src_host" showname="Source Host: 12.0.0.1" hide="yes" size="4" pos="26" show="12.0.0.1" value="0c000001"/>
    <field name="ip.host" showname="Source or Destination Host: 12.0.0.1" hide="yes" size="4" pos="26" show="12.0.0.1" value="0c000001"/>
    <field name="ip.dst" showname="Destination: 12.0.0.2" size="4" pos="30" show="12.0.0.2" value="0c000002"/>
    <field name="ip.addr" showname="Source or Destination Address: 12.0.0.2" hide="yes" size="4" pos="30" show="12.0.0.2" value="0c000002"/>
    <field name="ip.dst_host" showname="Destination Host: 12.0.0.2" hide="yes" size="4" pos="30" show="12.0.0.2" value="0c000002"/>
    <field name="ip.host" showname="Source or Destination Host: 12.0.0.2" hide="yes" size="4" pos="30" show="12.0.0.2" value="0c000002"/>
    <field name="" show="Source GeoIP: Unknown" size="4" pos="26" value="0c000001"/>
    <field name="" show="Destination GeoIP: Unknown" size="4" pos="30" value="0c000002"/>
  </proto>
  <proto name="tcp" showname="Transmission Control Protocol, Src Port: 179, Dst Port: 27455, Seq: 1, Ack: 58, Len: 23" size="20" pos="34">
    <field name="tcp.srcport" showname="Source Port: 179" size="2" pos="34" show="179" value="00b3"/>
    <field name="tcp.dstport" showname="Destination Port: 27455" size="2" pos="36" show="27455" value="6b3f"/>
    <field name="tcp.port" showname="Source or Destination Port: 179" hide="yes" size="2" pos="34" show="179" value="00b3"/>
    <field name="tcp.port" showname="Source or Destination Port: 27455" hide="yes" size="2" pos="36" show="27455" value="6b3f"/>
    <field name="tcp.stream" showname="Stream index: 4" size="0" pos="34" show="4"/>
    <field name="tcp.len" showname="TCP Segment Len: 23" size="1" pos="46" show="23" value="50"/>
    <field name="tcp.seq" showname="Sequence number: 1    (relative sequence number)" size="4" pos="38" show="1" value="8fe694a4"/>
    <field name="tcp.nxtseq" showname="Next sequence number: 24    (relative sequence number)" size="0" pos="34" show="24"/>
    <field name="tcp.ack" showname="Acknowledgment number: 58    (relative ack number)" size="4" pos="42" show="58" value="ba38da88"/>
    <field name="tcp.hdr_len" showname="Header Length: 20 bytes" size="1" pos="46" show="20" value="50"/>
    <field name="tcp.flags" showname="Flags: 0x018 (PSH, ACK)" size="2" pos="46" show="0x00000018" value="18" unmaskedvalue="5018">
      <field name="tcp.flags.res" showname="000. .... .... = Reserved: Not set" size="1" pos="46" show="0" value="0" unmaskedvalue="50"/>
      <field name="tcp.flags.ns" showname="...0 .... .... = Nonce: Not set" size="1" pos="46" show="0" value="0" unmaskedvalue="50"/>
      <field name="tcp.flags.cwr" showname=".... 0... .... = Congestion Window Reduced (CWR): Not set" size="1" pos="47" show="0" value="0" unmaskedvalue="18"/>
      <field name="tcp.flags.ecn" showname=".... .0.. .... = ECN-Echo: Not set" size="1" pos="47" show="0" value="0" unmaskedvalue="18"/>
      <field name="tcp.flags.urg" showname=".... ..0. .... = Urgent: Not set" size="1" pos="47" show="0" value="0" unmaskedvalue="18"/>
      <field name="tcp.flags.ack" showname=".... ...1 .... = Acknowledgment: Set" size="1" pos="47" show="1" value="1" unmaskedvalue="18"/>
      <field name="tcp.flags.push" showname=".... .... 1... = Push: Set" size="1" pos="47" show="1" value="1" unmaskedvalue="18"/>
      <field name="tcp.flags.reset" showname=".... .... .0.. = Reset: Not set" size="1" pos="47" show="0" value="0" unmaskedvalue="18"/>
      <field name="tcp.flags.syn" showname=".... .... ..0. = Syn: Not set" size="1" pos="47" show="0" value="0" unmaskedvalue="18"/>
      <field name="tcp.flags.fin" showname=".... .... ...0 = Fin: Not set" size="1" pos="47" show="0" value="0" unmaskedvalue="18"/>
      <field name="tcp.flags.str" showname="TCP Flags: \xc2\xb7\xc2\xb7\xc2\xb7\xc2\xb7\xc2\xb7\xc2\xb7\xc2\xb7AP\xc2\xb7\xc2\xb7\xc2\xb7" size="2" pos="46" show="\xc2\xb7\xc2\xb7\xc2\xb7\xc2\xb7\xc2\xb7\xc2\xb7\xc2\xb7AP\xc2\xb7\xc2\xb7\xc2\xb7" value="5018"/>
    </field>
    <field name="tcp.window_size_value" showname="Window size value: 16327" size="2" pos="48" show="16327" value="3fc7"/>
    <field name="tcp.window_size" showname="Calculated window size: 16327" size="2" pos="48" show="16327" value="3fc7"/>
    <field name="tcp.window_size_scalefactor" showname="Window size scaling factor: -2 (no window scaling used)" size="2" pos="48" show="-2" value="3fc7"/>
    <field name="tcp.checksum" showname="Checksum: 0x2b94 [unverified]" size="2" pos="50" show="0x00002b94" value="2b94"/>
    <field name="tcp.checksum.status" showname="Checksum Status: Unverified" size="0" pos="50" show="2"/>
    <field name="tcp.urgent_pointer" showname="Urgent pointer: 0" size="2" pos="52" show="0" value="0000"/>
    <field name="tcp.analysis" showname="SEQ/ACK analysis" size="0" pos="34" show="" value="">
      <field name="tcp.analysis.initial_rtt" showname="iRTT: 0.000918000 seconds" size="0" pos="34" show="0.000918000"/>
      <field name="tcp.analysis.bytes_in_flight" showname="Bytes in flight: 23" size="0" pos="34" show="23"/>
      <field name="tcp.analysis.push_bytes_sent" showname="Bytes sent since last PSH flag: 23" size="0" pos="34" show="23"/>
    </field>
  </proto>
  <proto name="bgp" showname="Border Gateway Protocol - NOTIFICATION Message" size="23" pos="54">
    <field name="bgp.marker" showname="Marker: ffffffffffffffffffffffffffffffff" size="16" pos="54" show="ff:ff:ff:ff:ff:ff:ff:ff:ff:ff:ff:ff:ff:ff:ff:ff" value="ffffffffffffffffffffffffffffffff"/>
    <field name="bgp.length" showname="Length: 23" size="2" pos="70" show="23" value="0017"/>
    <field name="bgp.type" showname="Type: NOTIFICATION Message (3)" size="1" pos="72" show="3" value="03"/>
    <field name="bgp.notify.major_error" showname="Major error Code: OPEN Message Error (2)" size="1" pos="73" show="2" value="02"/>
    <field name="bgp.notify.minor_error_open" showname="Minor error Code (Open Message): Bad Peer AS (2)" size="1" pos="74" show="2" value="02"/>
    <field name="bgp.notify.minor_data" showname="Data: 0002" size="2" pos="75" show="00:02" value="0002"/>
  </proto>
</packet>

<packet>
  <proto name="geninfo" pos="0" showname="General information" size="111">
    <field name="num" pos="0" show="45" showname="Number" value="2d" size="111"/>
    <field name="len" pos="0" show="111" showname="Frame Length" value="6f" size="111"/>
    <field name="caplen" pos="0" show="111" showname="Captured Length" value="6f" size="111"/>
    <field name="timestamp" pos="0" show="Jan  6, 2020 16:16:16.190858000 India Standard Time" showname="Captured Time" value="1578307576.190858000" size="111"/>
  </proto>
  <proto name="frame" showname="Frame 45: 111 bytes on wire (888 bits), 111 bytes captured (888 bits) on interface 0" size="111" pos="0">
    <field name="frame.interface_id" showname="Interface id: 0 (-)" size="0" pos="0" show="0"/>
    <field name="frame.encap_type" showname="Encapsulation type: Ethernet (1)" size="0" pos="0" show="1"/>
    <field name="frame.time" showname="Arrival Time: Jan  6, 2020 16:16:16.190858000 India Standard Time" size="0" pos="0" show="Jan  6, 2020 16:16:16.190858000 India Standard Time"/>
    <field name="frame.offset_shift" showname="Time shift for this packet: 0.000000000 seconds" size="0" pos="0" show="0.000000000"/>
    <field name="frame.time_epoch" showname="Epoch Time: 1578307576.190858000 seconds" size="0" pos="0" show="1578307576.190858000"/>
    <field name="frame.time_delta" showname="Time delta from previous captured frame: 0.005062000 seconds" size="0" pos="0" show="0.005062000"/>
    <field name="frame.time_delta_displayed" showname="Time delta from previous displayed frame: 6.186774000 seconds" size="0" pos="0" show="6.186774000"/>
    <field name="frame.time_relative" showname="Time since reference or first frame: 19.823410000 seconds" size="0" pos="0" show="19.823410000"/>
    <field name="frame.number" showname="Frame Number: 45" size="0" pos="0" show="45"/>
    <field name="frame.len" showname="Frame Length: 111 bytes (888 bits)" size="0" pos="0" show="111"/>
    <field name="frame.cap_len" showname="Capture Length: 111 bytes (888 bits)" size="0" pos="0" show="111"/>
    <field name="frame.marked" showname="Frame is marked: False" size="0" pos="0" show="0"/>
    <field name="frame.ignored" showname="Frame is ignored: False" size="0" pos="0" show="0"/>
    <field name="frame.protocols" showname="Protocols in frame: eth:ethertype:ip:tcp:bgp" size="0" pos="0" show="eth:ethertype:ip:tcp:bgp"/>
    <field name="frame.coloring_rule.name" showname="Coloring Rule Name: BGP" size="0" pos="0" show="BGP"/>
    <field name="frame.coloring_rule.string" showname="Coloring Rule String: bgp || tcp" size="0" pos="0" show="bgp || tcp"/>
  </proto>
  <proto name="eth" showname="Ethernet II, Src: aa:bb:cc:00:02:00 (aa:bb:cc:00:02:00), Dst: aa:bb:cc:00:01:00 (aa:bb:cc:00:01:00)" size="14" pos="0">
    <field name="eth.dst" showname="Destination: aa:bb:cc:00:01:00 (aa:bb:cc:00:01:00)" size="6" pos="0" show="aa:bb:cc:00:01:00" value="aabbcc000100">
      <field name="eth.dst_resolved" showname="Destination (resolved): aa:bb:cc:00:01:00" hide="yes" size="6" pos="0" show="aa:bb:cc:00:01:00" value="aabbcc000100"/>
      <field name="eth.addr" showname="Address: aa:bb:cc:00:01:00 (aa:bb:cc:00:01:00)" size="6" pos="0" show="aa:bb:cc:00:01:00" value="aabbcc000100"/>
      <field name="eth.addr_resolved" showname="Address (resolved): aa:bb:cc:00:01:00" hide="yes" size="6" pos="0" show="aa:bb:cc:00:01:00" value="aabbcc000100"/>
      <field name="eth.lg" showname=".... ..1. .... .... .... .... = LG bit: Locally administered address (this is NOT the factory default)" size="3" pos="0" show="1" value="1" unmaskedvalue="aabbcc"/>
      <field name="eth.ig" showname=".... ...0 .... .... .... .... = IG bit: Individual address (unicast)" size="3" pos="0" show="0" value="0" unmaskedvalue="aabbcc"/>
    </field>
    <field name="eth.src" showname="Source: aa:bb:cc:00:02:00 (aa:bb:cc:00:02:00)" size="6" pos="6" show="aa:bb:cc:00:02:00" value="aabbcc000200">
      <field name="eth.src_resolved" showname="Source (resolved): aa:bb:cc:00:02:00" hide="yes" size="6" pos="6" show="aa:bb:cc:00:02:00" value="aabbcc000200"/>
      <field name="eth.addr" showname="Address: aa:bb:cc:00:02:00 (aa:bb:cc:00:02:00)" size="6" pos="6" show="aa:bb:cc:00:02:00" value="aabbcc000200"/>
      <field name="eth.addr_resolved" showname="Address (resolved): aa:bb:cc:00:02:00" hide="yes" size="6" pos="6" show="aa:bb:cc:00:02:00" value="aabbcc000200"/>
      <field name="eth.lg" showname=".... ..1. .... .... .... .... = LG bit: Locally administered address (this is NOT the factory default)" size="3" pos="6" show="1" value="1" unmaskedvalue="aabbcc"/>
      <field name="eth.ig" showname=".... ...0 .... .... .... .... = IG bit: Individual address (unicast)" size="3" pos="6" show="0" value="0" unmaskedvalue="aabbcc"/>
    </field>
    <field name="eth.type" showname="Type: IPv4 (0x0800)" size="2" pos="12" show="0x00000800" value="0800"/>
  </proto>
  <proto name="ip" showname="Internet Protocol Version 4, Src: 12.0.0.2, Dst: 12.0.0.1" size="20" pos="14">
    <field name="ip.version" showname="0100 .... = Version: 4" size="1" pos="14" show="4" value="4" unmaskedvalue="45"/>
    <field name="ip.hdr_len" showname=".... 0101 = Header Length: 20 bytes (5)" size="1" pos="14" show="20" value="45"/>
    <field name="ip.dsfield" showname="Differentiated Services Field: 0xc0 (DSCP: CS6, ECN: Not-ECT)" size="1" pos="15" show="0x000000c0" value="c0">
      <field name="ip.dsfield.dscp" showname="1100 00.. = Differentiated Services Codepoint: Class Selector 6 (48)" size="1" pos="15" show="48" value="30" unmaskedvalue="c0"/>
      <field name="ip.dsfield.ecn" showname=".... ..00 = Explicit Congestion Notification: Not ECN-Capable Transport (0)" size="1" pos="15" show="0" value="0" unmaskedvalue="c0"/>
    </field>
    <field name="ip.len" showname="Total Length: 97" size="2" pos="16" show="97" value="0061"/>
    <field name="ip.id" showname="Identification: 0x92ed (37613)" size="2" pos="18" show="0x000092ed" value="92ed"/>
    <field name="ip.flags" showname="Flags: 0x02 (Don&#x27;t Fragment)" size="1" pos="20" show="0x00000002" value="40">
      <field name="ip.flags.rb" showname="0... .... = Reserved bit: Not set" size="1" pos="20" show="0" value="40"/>
      <field name="ip.flags.df" showname=".1.. .... = Don&#x27;t fragment: Set" size="1" pos="20" show="1" value="40"/>
      <field name="ip.flags.mf" showname="..0. .... = More fragments: Not set" size="1" pos="20" show="0" value="40"/>
    </field>
    <field name="ip.frag_offset" showname="Fragment offset: 0" size="2" pos="20" show="0" value="4000"/>
    <field name="ip.ttl" showname="Time to live: 1" size="1" pos="22" show="1" value="01">
      <field name="_ws.expert" showname="Expert Info (Note/Sequence): &quot;Time To Live&quot; only 1" size="0" pos="22">
        <field name="ip.ttl.too_small" showname="&quot;Time To Live&quot; only 1" size="0" pos="0" show="" value=""/>
        <field name="_ws.expert.message" showname="Message: &quot;Time To Live&quot; only 1" hide="yes" size="0" pos="0" show="&quot;Time To Live&quot; only 1"/>
        <field name="_ws.expert.severity" showname="Severity level: Note" size="0" pos="0" show="4194304"/>
        <field name="_ws.expert.group" showname="Group: Sequence" size="0" pos="0" show="33554432"/>
      </field>
    </field>
    <field name="ip.proto" showname="Protocol: TCP (6)" size="1" pos="23" show="6" value="06"/>
    <field name="ip.checksum" showname="Header checksum: 0xcde7 [validation disabled]" size="2" pos="24" show="0x0000cde7" value="cde7"/>
    <field name="ip.checksum.status" showname="Header checksum status: Unverified" size="0" pos="24" show="2"/>
    <field name="ip.src" showname="Source: 12.0.0.2" size="4" pos="26" show="12.0.0.2" value="0c000002"/>
    <field name="ip.addr" showname="Source or Destination Address: 12.0.0.2" hide="yes" size="4" pos="26" show="12.0.0.2" value="0c000002"/>
    <field name="ip.src_host" showname="Source Host: 12.0.0.2" hide="yes" size="4" pos="26" show="12.0.0.2" value="0c000002"/>
    <field name="ip.host" showname="Source or Destination Host: 12.0.0.2" hide="yes" size="4" pos="26" show="12.0.0.2" value="0c000002"/>
    <field name="ip.dst" showname="Destination: 12.0.0.1" size="4" pos="30" show="12.0.0.1" value="0c000001"/>
    <field name="ip.addr" showname="Source or Destination Address: 12.0.0.1" hide="yes" size="4" pos="30" show="12.0.0.1" value="0c000001"/>
    <field name="ip.dst_host" showname="Destination Host: 12.0.0.1" hide="yes" size="4" pos="30" show="12.0.0.1" value="0c000001"/>
    <field name="ip.host" showname="Source or Destination Host: 12.0.0.1" hide="yes" size="4" pos="30" show="12.0.0.1" value="0c000001"/>
    <field name="" show="Source GeoIP: Unknown" size="4" pos="26" value="0c000002"/>
    <field name="" show="Destination GeoIP: Unknown" size="4" pos="30" value="0c000001"/>
  </proto>
  <proto name="tcp" showname="Transmission Control Protocol, Src Port: 24479, Dst Port: 179, Seq: 1, Ack: 1, Len: 57" size="20" pos="34">
    <field name="tcp.srcport" showname="Source Port: 24479" size="2" pos="34" show="24479" value="5f9f"/>
    <field name="tcp.dstport" showname="Destination Port: 179" size="2" pos="36" show="179" value="00b3"/>
    <field name="tcp.port" showname="Source or Destination Port: 24479" hide="yes" size="2" pos="34" show="24479" value="5f9f"/>
    <field name="tcp.port" showname="Source or Destination Port: 179" hide="yes" size="2" pos="36" show="179" value="00b3"/>
    <field name="tcp.stream" showname="Stream index: 5" size="0" pos="34" show="5"/>
    <field name="tcp.len" showname="TCP Segment Len: 57" size="1" pos="46" show="57" value="50"/>
    <field name="tcp.seq" showname="Sequence number: 1    (relative sequence number)" size="4" pos="38" show="1" value="c6304761"/>
    <field name="tcp.nxtseq" showname="Next sequence number: 58    (relative sequence number)" size="0" pos="34" show="58"/>
    <field name="tcp.ack" showname="Acknowledgment number: 1    (relative ack number)" size="4" pos="42" show="1" value="41da2232"/>
    <field name="tcp.hdr_len" showname="Header Length: 20 bytes" size="1" pos="46" show="20" value="50"/>
    <field name="tcp.flags" showname="Flags: 0x018 (PSH, ACK)" size="2" pos="46" show="0x00000018" value="18" unmaskedvalue="5018">
      <field name="tcp.flags.res" showname="000. .... .... = Reserved: Not set" size="1" pos="46" show="0" value="0" unmaskedvalue="50"/>
      <field name="tcp.flags.ns" showname="...0 .... .... = Nonce: Not set" size="1" pos="46" show="0" value="0" unmaskedvalue="50"/>
      <field name="tcp.flags.cwr" showname=".... 0... .... = Congestion Window Reduced (CWR): Not set" size="1" pos="47" show="0" value="0" unmaskedvalue="18"/>
      <field name="tcp.flags.ecn" showname=".... .0.. .... = ECN-Echo: Not set" size="1" pos="47" show="0" value="0" unmaskedvalue="18"/>
      <field name="tcp.flags.urg" showname=".... ..0. .... = Urgent: Not set" size="1" pos="47" show="0" value="0" unmaskedvalue="18"/>
      <field name="tcp.flags.ack" showname=".... ...1 .... = Acknowledgment: Set" size="1" pos="47" show="1" value="1" unmaskedvalue="18"/>
      <field name="tcp.flags.push" showname=".... .... 1... = Push: Set" size="1" pos="47" show="1" value="1" unmaskedvalue="18"/>
      <field name="tcp.flags.reset" showname=".... .... .0.. = Reset: Not set" size="1" pos="47" show="0" value="0" unmaskedvalue="18"/>
      <field name="tcp.flags.syn" showname=".... .... ..0. = Syn: Not set" size="1" pos="47" show="0" value="0" unmaskedvalue="18"/>
      <field name="tcp.flags.fin" showname=".... .... ...0 = Fin: Not set" size="1" pos="47" show="0" value="0" unmaskedvalue="18"/>
      <field name="tcp.flags.str" showname="TCP Flags: \xc2\xb7\xc2\xb7\xc2\xb7\xc2\xb7\xc2\xb7\xc2\xb7\xc2\xb7AP\xc2\xb7\xc2\xb7\xc2\xb7" size="2" pos="46" show="\xc2\xb7\xc2\xb7\xc2\xb7\xc2\xb7\xc2\xb7\xc2\xb7\xc2\xb7AP\xc2\xb7\xc2\xb7\xc2\xb7" value="5018"/>
    </field>
    <field name="tcp.window_size_value" showname="Window size value: 16384" size="2" pos="48" show="16384" value="4000"/>
    <field name="tcp.window_size" showname="Calculated window size: 16384" size="2" pos="48" show="16384" value="4000"/>
    <field name="tcp.window_size_scalefactor" showname="Window size scaling factor: -2 (no window scaling used)" size="2" pos="48" show="-2" value="4000"/>
    <field name="tcp.checksum" showname="Checksum: 0x3c97 [unverified]" size="2" pos="50" show="0x00003c97" value="3c97"/>
    <field name="tcp.checksum.status" showname="Checksum Status: Unverified" size="0" pos="50" show="2"/>
    <field name="tcp.urgent_pointer" showname="Urgent pointer: 0" size="2" pos="52" show="0" value="0000"/>
    <field name="tcp.analysis" showname="SEQ/ACK analysis" size="0" pos="34" show="" value="">
      <field name="tcp.analysis.initial_rtt" showname="iRTT: 0.001966000 seconds" size="0" pos="34" show="0.001966000"/>
      <field name="tcp.analysis.bytes_in_flight" showname="Bytes in flight: 57" size="0" pos="34" show="57"/>
      <field name="tcp.analysis.push_bytes_sent" showname="Bytes sent since last PSH flag: 57" size="0" pos="34" show="57"/>
    </field>
  </proto>
  <proto name="bgp" showname="Border Gateway Protocol - OPEN Message" size="57" pos="54">
    <field name="bgp.marker" showname="Marker: ffffffffffffffffffffffffffffffff" size="16" pos="54" show="ff:ff:ff:ff:ff:ff:ff:ff:ff:ff:ff:ff:ff:ff:ff:ff" value="ffffffffffffffffffffffffffffffff"/>
    <field name="bgp.length" showname="Length: 57" size="2" pos="70" show="57" value="0039"/>
    <field name="bgp.type" showname="Type: OPEN Message (1)" size="1" pos="72" show="1" value="01"/>
    <field name="bgp.open.version" showname="Version: 4" size="1" pos="73" show="4" value="04"/>
    <field name="bgp.open.myas" showname="My AS: 2" size="2" pos="74" show="2" value="0002"/>
    <field name="bgp.open.holdtime" showname="Hold Time: 180" size="2" pos="76" show="180" value="00b4"/>
    <field name="bgp.open.identifier" showname="BGP Identifier: 12.0.0.2" size="4" pos="78" show="12.0.0.2" value="0c000002"/>
    <field name="bgp.open.opt.len" showname="Optional Parameters Length: 28" size="1" pos="82" show="28" value="1c"/>
    <field name="bgp.open.opt" showname="Optional Parameters" size="28" pos="83" show="" value="">
      <field name="bgp.open.opt.param" showname="Optional Parameter: Capability" size="8" pos="83" show="" value="">
        <field name="bgp.open.opt.param.type" showname="Parameter Type: Capability (2)" size="1" pos="83" show="2" value="02"/>
        <field name="bgp.open.opt.param.len" showname="Parameter Length: 6" size="1" pos="84" show="6" value="06"/>
        <field name="bgp.cap" showname="Capability: Multiprotocol extensions capability" size="6" pos="85" show="" value="">
          <field name="bgp.cap.type" showname="Type: Multiprotocol extensions capability (1)" size="1" pos="85" show="1" value="01"/>
          <field name="bgp.cap.length" showname="Length: 4" size="1" pos="86" show="4" value="04"/>
          <field name="bgp.cap.mp.afi" showname="AFI: IPv4 (1)" size="2" pos="87" show="1" value="0001"/>
          <field name="bgp.cap.reserved" showname="Reserved: 00" size="1" pos="89" show="00" value="00"/>
          <field name="bgp.cap.mp.safi" showname="SAFI: Unicast (1)" size="1" pos="90" show="1" value="01"/>
        </field>
      </field>
      <field name="bgp.open.opt.param" showname="Optional Parameter: Capability" size="4" pos="91" show="" value="">
        <field name="bgp.open.opt.param.type" showname="Parameter Type: Capability (2)" size="1" pos="91" show="2" value="02"/>
        <field name="bgp.open.opt.param.len" showname="Parameter Length: 2" size="1" pos="92" show="2" value="02"/>
        <field name="bgp.cap" showname="Capability: Route refresh capability (Cisco)" size="2" pos="93" show="" value="">
          <field name="bgp.cap.type" showname="Type: Route refresh capability (Cisco) (128)" size="1" pos="93" show="128" value="80"/>
          <field name="bgp.cap.length" showname="Length: 0" size="1" pos="94" show="0" value="00"/>
        </field>
      </field>
      <field name="bgp.open.opt.param" showname="Optional Parameter: Capability" size="4" pos="95" show="" value="">
        <field name="bgp.open.opt.param.type" showname="Parameter Type: Capability (2)" size="1" pos="95" show="2" value="02"/>
        <field name="bgp.open.opt.param.len" showname="Parameter Length: 2" size="1" pos="96" show="2" value="02"/>
        <field name="bgp.cap" showname="Capability: Route refresh capability" size="2" pos="97" show="" value="">
          <field name="bgp.cap.type" showname="Type: Route refresh capability (2)" size="1" pos="97" show="2" value="02"/>
          <field name="bgp.cap.length" showname="Length: 0" size="1" pos="98" show="0" value="00"/>
        </field>
      </field>
      <field name="bgp.open.opt.param" showname="Optional Parameter: Capability" size="4" pos="99" show="" value="">
        <field name="bgp.open.opt.param.type" showname="Parameter Type: Capability (2)" size="1" pos="99" show="2" value="02"/>
        <field name="bgp.open.opt.param.len" showname="Parameter Length: 2" size="1" pos="100" show="2" value="02"/>
        <field name="bgp.cap" showname="Capability: Enhanced route refresh capability" size="2" pos="101" show="" value="">
          <field name="bgp.cap.type" showname="Type: Enhanced route refresh capability (70)" size="1" pos="101" show="70" value="46"/>
          <field name="bgp.cap.length" showname="Length: 0" size="1" pos="102" show="0" value="00"/>
        </field>
      </field>
      <field name="bgp.open.opt.param" showname="Optional Parameter: Capability" size="8" pos="103" show="" value="">
        <field name="bgp.open.opt.param.type" showname="Parameter Type: Capability (2)" size="1" pos="103" show="2" value="02"/>
        <field name="bgp.open.opt.param.len" showname="Parameter Length: 6" size="1" pos="104" show="6" value="06"/>
        <field name="bgp.cap" showname="Capability: Support for 4-octet AS number capability" size="6" pos="105" show="" value="">
          <field name="bgp.cap.type" showname="Type: Support for 4-octet AS number capability (65)" size="1" pos="105" show="65" value="41"/>
          <field name="bgp.cap.length" showname="Length: 4" size="1" pos="106" show="4" value="04"/>
          <field name="bgp.cap.4as" showname="AS Number: 2" size="4" pos="107" show="2" value="00000002"/>
        </field>
      </field>
    </field>
  </proto>
</packet>

<packet>
  <proto name="geninfo" pos="0" showname="General information" size="77">
    <field name="num" pos="0" show="47" showname="Number" value="2f" size="77"/>
    <field name="len" pos="0" show="77" showname="Frame Length" value="4d" size="77"/>
    <field name="caplen" pos="0" show="77" showname="Captured Length" value="4d" size="77"/>
    <field name="timestamp" pos="0" show="Jan  6, 2020 16:16:16.192086000 India Standard Time" showname="Captured Time" value="1578307576.192086000" size="77"/>
  </proto>
  <proto name="frame" showname="Frame 47: 77 bytes on wire (616 bits), 77 bytes captured (616 bits) on interface 0" size="77" pos="0">
    <field name="frame.interface_id" showname="Interface id: 0 (-)" size="0" pos="0" show="0"/>
    <field name="frame.encap_type" showname="Encapsulation type: Ethernet (1)" size="0" pos="0" show="1"/>
    <field name="frame.time" showname="Arrival Time: Jan  6, 2020 16:16:16.192086000 India Standard Time" size="0" pos="0" show="Jan  6, 2020 16:16:16.192086000 India Standard Time"/>
    <field name="frame.offset_shift" showname="Time shift for this packet: 0.000000000 seconds" size="0" pos="0" show="0.000000000"/>
    <field name="frame.time_epoch" showname="Epoch Time: 1578307576.192086000 seconds" size="0" pos="0" show="1578307576.192086000"/>
    <field name="frame.time_delta" showname="Time delta from previous captured frame: 0.000771000 seconds" size="0" pos="0" show="0.000771000"/>
    <field name="frame.time_delta_displayed" showname="Time delta from previous displayed frame: 0.001228000 seconds" size="0" pos="0" show="0.001228000"/>
    <field name="frame.time_relative" showname="Time since reference or first frame: 19.824638000 seconds" size="0" pos="0" show="19.824638000"/>
    <field name="frame.number" showname="Frame Number: 47" size="0" pos="0" show="47"/>
    <field name="frame.len" showname="Frame Length: 77 bytes (616 bits)" size="0" pos="0" show="77"/>
    <field name="frame.cap_len" showname="Capture Length: 77 bytes (616 bits)" size="0" pos="0" show="77"/>
    <field name="frame.marked" showname="Frame is marked: False" size="0" pos="0" show="0"/>
    <field name="frame.ignored" showname="Frame is ignored: False" size="0" pos="0" show="0"/>
    <field name="frame.protocols" showname="Protocols in frame: eth:ethertype:ip:tcp:bgp" size="0" pos="0" show="eth:ethertype:ip:tcp:bgp"/>
    <field name="frame.coloring_rule.name" showname="Coloring Rule Name: BGP" size="0" pos="0" show="BGP"/>
    <field name="frame.coloring_rule.string" showname="Coloring Rule String: bgp || tcp" size="0" pos="0" show="bgp || tcp"/>
  </proto>
  <proto name="eth" showname="Ethernet II, Src: aa:bb:cc:00:01:00 (aa:bb:cc:00:01:00), Dst: aa:bb:cc:00:02:00 (aa:bb:cc:00:02:00)" size="14" pos="0">
    <field name="eth.dst" showname="Destination: aa:bb:cc:00:02:00 (aa:bb:cc:00:02:00)" size="6" pos="0" show="aa:bb:cc:00:02:00" value="aabbcc000200">
      <field name="eth.dst_resolved" showname="Destination (resolved): aa:bb:cc:00:02:00" hide="yes" size="6" pos="0" show="aa:bb:cc:00:02:00" value="aabbcc000200"/>
      <field name="eth.addr" showname="Address: aa:bb:cc:00:02:00 (aa:bb:cc:00:02:00)" size="6" pos="0" show="aa:bb:cc:00:02:00" value="aabbcc000200"/>
      <field name="eth.addr_resolved" showname="Address (resolved): aa:bb:cc:00:02:00" hide="yes" size="6" pos="0" show="aa:bb:cc:00:02:00" value="aabbcc000200"/>
      <field name="eth.lg" showname=".... ..1. .... .... .... .... = LG bit: Locally administered address (this is NOT the factory default)" size="3" pos="0" show="1" value="1" unmaskedvalue="aabbcc"/>
      <field name="eth.ig" showname=".... ...0 .... .... .... .... = IG bit: Individual address (unicast)" size="3" pos="0" show="0" value="0" unmaskedvalue="aabbcc"/>
    </field>
    <field name="eth.src" showname="Source: aa:bb:cc:00:01:00 (aa:bb:cc:00:01:00)" size="6" pos="6" show="aa:bb:cc:00:01:00" value="aabbcc000100">
      <field name="eth.src_resolved" showname="Source (resolved): aa:bb:cc:00:01:00" hide="yes" size="6" pos="6" show="aa:bb:cc:00:01:00" value="aabbcc000100"/>
      <field name="eth.addr" showname="Address: aa:bb:cc:00:01:00 (aa:bb:cc:00:01:00)" size="6" pos="6" show="aa:bb:cc:00:01:00" value="aabbcc000100"/>
      <field name="eth.addr_resolved" showname="Address (resolved): aa:bb:cc:00:01:00" hide="yes" size="6" pos="6" show="aa:bb:cc:00:01:00" value="aabbcc000100"/>
      <field name="eth.lg" showname=".... ..1. .... .... .... .... = LG bit: Locally administered address (this is NOT the factory default)" size="3" pos="6" show="1" value="1" unmaskedvalue="aabbcc"/>
      <field name="eth.ig" showname=".... ...0 .... .... .... .... = IG bit: Individual address (unicast)" size="3" pos="6" show="0" value="0" unmaskedvalue="aabbcc"/>
    </field>
    <field name="eth.type" showname="Type: IPv4 (0x0800)" size="2" pos="12" show="0x00000800" value="0800"/>
  </proto>
  <proto name="ip" showname="Internet Protocol Version 4, Src: 12.0.0.1, Dst: 12.0.0.2" size="20" pos="14">
    <field name="ip.version" showname="0100 .... = Version: 4" size="1" pos="14" show="4" value="4" unmaskedvalue="45"/>
    <field name="ip.hdr_len" showname=".... 0101 = Header Length: 20 bytes (5)" size="1" pos="14" show="20" value="45"/>
    <field name="ip.dsfield" showname="Differentiated Services Field: 0xc0 (DSCP: CS6, ECN: Not-ECT)" size="1" pos="15" show="0x000000c0" value="c0">
      <field name="ip.dsfield.dscp" showname="1100 00.. = Differentiated Services Codepoint: Class Selector 6 (48)" size="1" pos="15" show="48" value="30" unmaskedvalue="c0"/>
      <field name="ip.dsfield.ecn" showname=".... ..00 = Explicit Congestion Notification: Not ECN-Capable Transport (0)" size="1" pos="15" show="0" value="0" unmaskedvalue="c0"/>
    </field>
    <field name="ip.len" showname="Total Length: 63" size="2" pos="16" show="63" value="003f"/>
    <field name="ip.id" showname="Identification: 0xc443 (50243)" size="2" pos="18" show="0x0000c443" value="c443"/>
    <field name="ip.flags" showname="Flags: 0x02 (Don&#x27;t Fragment)" size="1" pos="20" show="0x00000002" value="40">
      <field name="ip.flags.rb" showname="0... .... = Reserved bit: Not set" size="1" pos="20" show="0" value="40"/>
      <field name="ip.flags.df" showname=".1.. .... = Don&#x27;t fragment: Set" size="1" pos="20" show="1" value="40"/>
      <field name="ip.flags.mf" showname="..0. .... = More fragments: Not set" size="1" pos="20" show="0" value="40"/>
    </field>
    <field name="ip.frag_offset" showname="Fragment offset: 0" size="2" pos="20" show="0" value="4000"/>
    <field name="ip.ttl" showname="Time to live: 1" size="1" pos="22" show="1" value="01">
      <field name="_ws.expert" showname="Expert Info (Note/Sequence): &quot;Time To Live&quot; only 1" size="0" pos="22">
        <field name="ip.ttl.too_small" showname="&quot;Time To Live&quot; only 1" size="0" pos="0" show="" value=""/>
        <field name="_ws.expert.message" showname="Message: &quot;Time To Live&quot; only 1" hide="yes" size="0" pos="0" show="&quot;Time To Live&quot; only 1"/>
        <field name="_ws.expert.severity" showname="Severity level: Note" size="0" pos="0" show="4194304"/>
        <field name="_ws.expert.group" showname="Group: Sequence" size="0" pos="0" show="33554432"/>
      </field>
    </field>
    <field name="ip.proto" showname="Protocol: TCP (6)" size="1" pos="23" show="6" value="06"/>
    <field name="ip.checksum" showname="Header checksum: 0x9cb3 [validation disabled]" size="2" pos="24" show="0x00009cb3" value="9cb3"/>
    <field name="ip.checksum.status" showname="Header checksum status: Unverified" size="0" pos="24" show="2"/>
    <field name="ip.src" showname="Source: 12.0.0.1" size="4" pos="26" show="12.0.0.1" value="0c000001"/>
    <field name="ip.addr" showname="Source or Destination Address: 12.0.0.1" hide="yes" size="4" pos="26" show="12.0.0.1" value="0c000001"/>
    <field name="ip.src_host" showname="Source Host: 12.0.0.1" hide="yes" size="4" pos="26" show="12.0.0.1" value="0c000001"/>
    <field name="ip.host" showname="Source or Destination Host: 12.0.0.1" hide="yes" size="4" pos="26" show="12.0.0.1" value="0c000001"/>
    <field name="ip.dst" showname="Destination: 12.0.0.2" size="4" pos="30" show="12.0.0.2" value="0c000002"/>
    <field name="ip.addr" showname="Source or Destination Address: 12.0.0.2" hide="yes" size="4" pos="30" show="12.0.0.2" value="0c000002"/>
    <field name="ip.dst_host" showname="Destination Host: 12.0.0.2" hide="yes" size="4" pos="30" show="12.0.0.2" value="0c000002"/>
    <field name="ip.host" showname="Source or Destination Host: 12.0.0.2" hide="yes" size="4" pos="30" show="12.0.0.2" value="0c000002"/>
    <field name="" show="Source GeoIP: Unknown" size="4" pos="26" value="0c000001"/>
    <field name="" show="Destination GeoIP: Unknown" size="4" pos="30" value="0c000002"/>
  </proto>
  <proto name="tcp" showname="Transmission Control Protocol, Src Port: 179, Dst Port: 24479, Seq: 1, Ack: 58, Len: 23" size="20" pos="34">
    <field name="tcp.srcport" showname="Source Port: 179" size="2" pos="34" show="179" value="00b3"/>
    <field name="tcp.dstport" showname="Destination Port: 24479" size="2" pos="36" show="24479" value="5f9f"/>
    <field name="tcp.port" showname="Source or Destination Port: 179" hide="yes" size="2" pos="34" show="179" value="00b3"/>
    <field name="tcp.port" showname="Source or Destination Port: 24479" hide="yes" size="2" pos="36" show="24479" value="5f9f"/>
    <field name="tcp.stream" showname="Stream index: 5" size="0" pos="34" show="5"/>
    <field name="tcp.len" showname="TCP Segment Len: 23" size="1" pos="46" show="23" value="50"/>
    <field name="tcp.seq" showname="Sequence number: 1    (relative sequence number)" size="4" pos="38" show="1" value="41da2232"/>
    <field name="tcp.nxtseq" showname="Next sequence number: 24    (relative sequence number)" size="0" pos="34" show="24"/>
    <field name="tcp.ack" showname="Acknowledgment number: 58    (relative ack number)" size="4" pos="42" show="58" value="c630479a"/>
    <field name="tcp.hdr_len" showname="Header Length: 20 bytes" size="1" pos="46" show="20" value="50"/>
    <field name="tcp.flags" showname="Flags: 0x018 (PSH, ACK)" size="2" pos="46" show="0x00000018" value="18" unmaskedvalue="5018">
      <field name="tcp.flags.res" showname="000. .... .... = Reserved: Not set" size="1" pos="46" show="0" value="0" unmaskedvalue="50"/>
      <field name="tcp.flags.ns" showname="...0 .... .... = Nonce: Not set" size="1" pos="46" show="0" value="0" unmaskedvalue="50"/>
      <field name="tcp.flags.cwr" showname=".... 0... .... = Congestion Window Reduced (CWR): Not set" size="1" pos="47" show="0" value="0" unmaskedvalue="18"/>
      <field name="tcp.flags.ecn" showname=".... .0.. .... = ECN-Echo: Not set" size="1" pos="47" show="0" value="0" unmaskedvalue="18"/>
      <field name="tcp.flags.urg" showname=".... ..0. .... = Urgent: Not set" size="1" pos="47" show="0" value="0" unmaskedvalue="18"/>
      <field name="tcp.flags.ack" showname=".... ...1 .... = Acknowledgment: Set" size="1" pos="47" show="1" value="1" unmaskedvalue="18"/>
      <field name="tcp.flags.push" showname=".... .... 1... = Push: Set" size="1" pos="47" show="1" value="1" unmaskedvalue="18"/>
      <field name="tcp.flags.reset" showname=".... .... .0.. = Reset: Not set" size="1" pos="47" show="0" value="0" unmaskedvalue="18"/>
      <field name="tcp.flags.syn" showname=".... .... ..0. = Syn: Not set" size="1" pos="47" show="0" value="0" unmaskedvalue="18"/>
      <field name="tcp.flags.fin" showname=".... .... ...0 = Fin: Not set" size="1" pos="47" show="0" value="0" unmaskedvalue="18"/>
      <field name="tcp.flags.str" showname="TCP Flags: \xc2\xb7\xc2\xb7\xc2\xb7\xc2\xb7\xc2\xb7\xc2\xb7\xc2\xb7AP\xc2\xb7\xc2\xb7\xc2\xb7" size="2" pos="46" show="\xc2\xb7\xc2\xb7\xc2\xb7\xc2\xb7\xc2\xb7\xc2\xb7\xc2\xb7AP\xc2\xb7\xc2\xb7\xc2\xb7" value="5018"/>
    </field>
    <field name="tcp.window_size_value" showname="Window size value: 16327" size="2" pos="48" show="16327" value="3fc7"/>
    <field name="tcp.window_size" showname="Calculated window size: 16327" size="2" pos="48" show="16327" value="3fc7"/>
    <field name="tcp.window_size_scalefactor" showname="Window size scaling factor: -2 (no window scaling used)" size="2" pos="48" show="-2" value="3fc7"/>
    <field name="tcp.checksum" showname="Checksum: 0x7ea9 [unverified]" size="2" pos="50" show="0x00007ea9" value="7ea9"/>
    <field name="tcp.checksum.status" showname="Checksum Status: Unverified" size="0" pos="50" show="2"/>
    <field name="tcp.urgent_pointer" showname="Urgent pointer: 0" size="2" pos="52" show="0" value="0000"/>
    <field name="tcp.analysis" showname="SEQ/ACK analysis" size="0" pos="34" show="" value="">
      <field name="tcp.analysis.initial_rtt" showname="iRTT: 0.001966000 seconds" size="0" pos="34" show="0.001966000"/>
      <field name="tcp.analysis.bytes_in_flight" showname="Bytes in flight: 23" size="0" pos="34" show="23"/>
      <field name="tcp.analysis.push_bytes_sent" showname="Bytes sent since last PSH flag: 23" size="0" pos="34" show="23"/>
    </field>
  </proto>
  <proto name="bgp" showname="Border Gateway Protocol - NOTIFICATION Message" size="23" pos="54">
    <field name="bgp.marker" showname="Marker: ffffffffffffffffffffffffffffffff" size="16" pos="54" show="ff:ff:ff:ff:ff:ff:ff:ff:ff:ff:ff:ff:ff:ff:ff:ff" value="ffffffffffffffffffffffffffffffff"/>
    <field name="bgp.length" showname="Length: 23" size="2" pos="70" show="23" value="0017"/>
    <field name="bgp.type" showname="Type: NOTIFICATION Message (3)" size="1" pos="72" show="3" value="03"/>
    <field name="bgp.notify.major_error" showname="Major error Code: OPEN Message Error (2)" size="1" pos="73" show="2" value="02"/>
    <field name="bgp.notify.minor_error_open" showname="Minor error Code (Open Message): Bad Peer AS (2)" size="1" pos="74" show="2" value="02"/>
    <field name="bgp.notify.minor_data" showname="Data: 0002" size="2" pos="75" show="00:02" value="0002"/>
  </proto>
</packet>

</pdml>
