<?xml version="1.0"?>
<?xml-stylesheet type="text/xsl" href="pdml2html.xsl"?>
<!-- You can find pdml2html.xsl in C:\Program Files\Wireshark or at https://code.wireshark.org/review/gitweb?p=wireshark.git;a=blob_plain;f=pdml2html.xsl. -->
<pdml version="0" creator="wireshark/2.2.5" time="Sat Feb 01 23:32:27 2020" capture_file="C:\Users\ANJAN\AppData\Local\Temp\wireshark_-_20200201232049_a02984.pcapng">
<packet>
  <proto name="geninfo" pos="0" showname="General information" size="118">
    <field name="num" pos="0" show="166" showname="Number" value="a6" size="118"/>
    <field name="len" pos="0" show="118" showname="Frame Length" value="76" size="118"/>
    <field name="caplen" pos="0" show="118" showname="Captured Length" value="76" size="118"/>
    <field name="timestamp" pos="0" show="Feb  1, 2020 23:21:10.574189000 India Standard Time" showname="Captured Time" value="1580579470.574189000" size="118"/>
  </proto>
  <proto name="frame" showname="Frame 166: 118 bytes on wire (944 bits), 118 bytes captured (944 bits) on interface 0" size="118" pos="0">
    <field name="frame.interface_id" showname="Interface id: 0 (-)" size="0" pos="0" show="0"/>
    <field name="frame.encap_type" showname="Encapsulation type: Ethernet (1)" size="0" pos="0" show="1"/>
    <field name="frame.time" showname="Arrival Time: Feb  1, 2020 23:21:10.574189000 India Standard Time" size="0" pos="0" show="Feb  1, 2020 23:21:10.574189000 India Standard Time"/>
    <field name="frame.offset_shift" showname="Time shift for this packet: 0.000000000 seconds" size="0" pos="0" show="0.000000000"/>
    <field name="frame.time_epoch" showname="Epoch Time: 1580579470.574189000 seconds" size="0" pos="0" show="1580579470.574189000"/>
    <field name="frame.time_delta" showname="Time delta from previous captured frame: 0.087265000 seconds" size="0" pos="0" show="0.087265000"/>
    <field name="frame.time_delta_displayed" showname="Time delta from previous displayed frame: 0.000000000 seconds" size="0" pos="0" show="0.000000000"/>
    <field name="frame.time_relative" showname="Time since reference or first frame: 68.290527000 seconds" size="0" pos="0" show="68.290527000"/>
    <field name="frame.number" showname="Frame Number: 166" size="0" pos="0" show="166"/>
    <field name="frame.len" showname="Frame Length: 118 bytes (944 bits)" size="0" pos="0" show="118"/>
    <field name="frame.cap_len" showname="Capture Length: 118 bytes (944 bits)" size="0" pos="0" show="118"/>
    <field name="frame.marked" showname="Frame is marked: False" size="0" pos="0" show="0"/>
    <field name="frame.ignored" showname="Frame is ignored: False" size="0" pos="0" show="0"/>
    <field name="frame.protocols" showname="Protocols in frame: eth:ethertype:mpls:ip:icmp:data" size="0" pos="0" show="eth:ethertype:mpls:ip:icmp:data"/>
    <field name="frame.coloring_rule.name" showname="Coloring Rule Name: ICMP" size="0" pos="0" show="ICMP"/>
    <field name="frame.coloring_rule.string" showname="Coloring Rule String: icmp || icmpv6" size="0" pos="0" show="icmp || icmpv6"/>
  </proto>
  <proto name="eth" showname="Ethernet II, Src: aa:bb:cc:00:01:20 (aa:bb:cc:00:01:20), Dst: aa:bb:cc:00:02:20 (aa:bb:cc:00:02:20)" size="14" pos="0">
    <field name="eth.dst" showname="Destination: aa:bb:cc:00:02:20 (aa:bb:cc:00:02:20)" size="6" pos="0" show="aa:bb:cc:00:02:20" value="aabbcc000220">
      <field name="eth.dst_resolved" showname="Destination (resolved): aa:bb:cc:00:02:20" hide="yes" size="6" pos="0" show="aa:bb:cc:00:02:20" value="aabbcc000220"/>
      <field name="eth.addr" showname="Address: aa:bb:cc:00:02:20 (aa:bb:cc:00:02:20)" size="6" pos="0" show="aa:bb:cc:00:02:20" value="aabbcc000220"/>
      <field name="eth.addr_resolved" showname="Address (resolved): aa:bb:cc:00:02:20" hide="yes" size="6" pos="0" show="aa:bb:cc:00:02:20" value="aabbcc000220"/>
      <field name="eth.lg" showname=".... ..1. .... .... .... .... = LG bit: Locally administered address (this is NOT the factory default)" size="3" pos="0" show="1" value="1" unmaskedvalue="aabbcc"/>
      <field name="eth.ig" showname=".... ...0 .... .... .... .... = IG bit: Individual address (unicast)" size="3" pos="0" show="0" value="0" unmaskedvalue="aabbcc"/>
    </field>
    <field name="eth.src" showname="Source: aa:bb:cc:00:01:20 (aa:bb:cc:00:01:20)" size="6" pos="6" show="aa:bb:cc:00:01:20" value="aabbcc000120">
      <field name="eth.src_resolved" showname="Source (resolved): aa:bb:cc:00:01:20" hide="yes" size="6" pos="6" show="aa:bb:cc:00:01:20" value="aabbcc000120"/>
      <field name="eth.addr" showname="Address: aa:bb:cc:00:01:20 (aa:bb:cc:00:01:20)" size="6" pos="6" show="aa:bb:cc:00:01:20" value="aabbcc000120"/>
      <field name="eth.addr_resolved" showname="Address (resolved): aa:bb:cc:00:01:20" hide="yes" size="6" pos="6" show="aa:bb:cc:00:01:20" value="aabbcc000120"/>
      <field name="eth.lg" showname=".... ..1. .... .... .... .... = LG bit: Locally administered address (this is NOT the factory default)" size="3" pos="6" show="1" value="1" unmaskedvalue="aabbcc"/>
      <field name="eth.ig" showname=".... ...0 .... .... .... .... = IG bit: Individual address (unicast)" size="3" pos="6" show="0" value="0" unmaskedvalue="aabbcc"/>
    </field>
    <field name="eth.type" showname="Type: MPLS label switched packet (0x8847)" size="2" pos="12" show="0x00008847" value="8847"/>
  </proto>
  <proto name="mpls" showname="MultiProtocol Label Switching Header, Label: 404, Exp: 0, S: 1, TTL: 254" size="4" pos="14">
    <field name="mpls.label" showname="0000 0000 0001 1001 0100 .... .... .... = MPLS Label: 404" size="4" pos="14" show="404" value="194" unmaskedvalue="001941fe"/>
    <field name="mpls.exp" showname=".... .... .... .... .... 000. .... .... = MPLS Experimental Bits: 0" size="4" pos="14" show="0" value="0" unmaskedvalue="001941fe"/>
    <field name="mpls.bottom" showname=".... .... .... .... .... ...1 .... .... = MPLS Bottom Of Label Stack: 1" size="4" pos="14" show="1" value="1" unmaskedvalue="001941fe"/>
    <field name="mpls.ttl" showname=".... .... .... .... .... .... 1111 1110 = MPLS TTL: 254" size="4" pos="14" show="254" value="FE" unmaskedvalue="001941fe"/>
  </proto>
  <proto name="ip" showname="Internet Protocol Version 4, Src: 1.1.1.1, Dst: 2.2.2.2" size="20" pos="18">
    <field name="ip.version" showname="0100 .... = Version: 4" size="1" pos="18" show="4" value="4" unmaskedvalue="45"/>
    <field name="ip.hdr_len" showname=".... 0101 = Header Length: 20 bytes (5)" size="1" pos="18" show="20" value="45"/>
    <field name="ip.dsfield" showname="Differentiated Services Field: 0x00 (DSCP: CS0, ECN: Not-ECT)" size="1" pos="19" show="0x00000000" value="00">
      <field name="ip.dsfield.dscp" showname="0000 00.. = Differentiated Services Codepoint: Default (0)" size="1" pos="19" show="0" value="0" unmaskedvalue="00"/>
      <field name="ip.dsfield.ecn" showname=".... ..00 = Explicit Congestion Notification: Not ECN-Capable Transport (0)" size="1" pos="19" show="0" value="0" unmaskedvalue="00"/>
    </field>
    <field name="ip.len" showname="Total Length: 100" size="2" pos="20" show="100" value="0064"/>
    <field name="ip.id" showname="Identification: 0x0000 (0)" size="2" pos="22" show="0x00000000" value="0000"/>
    <field name="ip.flags" showname="Flags: 0x00" size="1" pos="24" show="0x00000000" value="00">
      <field name="ip.flags.rb" showname="0... .... = Reserved bit: Not set" size="1" pos="24" show="0" value="00"/>
      <field name="ip.flags.df" showname=".0.. .... = Don&#x27;t fragment: Not set" size="1" pos="24" show="0" value="00"/>
      <field name="ip.flags.mf" showname="..0. .... = More fragments: Not set" size="1" pos="24" show="0" value="00"/>
    </field>
    <field name="ip.frag_offset" showname="Fragment offset: 0" size="2" pos="24" show="0" value="0000"/>
    <field name="ip.ttl" showname="Time to live: 255" size="1" pos="26" show="255" value="ff"/>
    <field name="ip.proto" showname="Protocol: ICMP (1)" size="1" pos="27" show="1" value="01"/>
    <field name="ip.checksum" showname="Header checksum: 0xb593 [validation disabled]" size="2" pos="28" show="0x0000b593" value="b593"/>
    <field name="ip.checksum.status" showname="Header checksum status: Unverified" size="0" pos="28" show="2"/>
    <field name="ip.src" showname="Source: 1.1.1.1" size="4" pos="30" show="1.1.1.1" value="01010101"/>
    <field name="ip.addr" showname="Source or Destination Address: 1.1.1.1" hide="yes" size="4" pos="30" show="1.1.1.1" value="01010101"/>
    <field name="ip.src_host" showname="Source Host: 1.1.1.1" hide="yes" size="4" pos="30" show="1.1.1.1" value="01010101"/>
    <field name="ip.host" showname="Source or Destination Host: 1.1.1.1" hide="yes" size="4" pos="30" show="1.1.1.1" value="01010101"/>
    <field name="ip.dst" showname="Destination: 2.2.2.2" size="4" pos="34" show="2.2.2.2" value="02020202"/>
    <field name="ip.addr" showname="Source or Destination Address: 2.2.2.2" hide="yes" size="4" pos="34" show="2.2.2.2" value="02020202"/>
    <field name="ip.dst_host" showname="Destination Host: 2.2.2.2" hide="yes" size="4" pos="34" show="2.2.2.2" value="02020202"/>
    <field name="ip.host" showname="Source or Destination Host: 2.2.2.2" hide="yes" size="4" pos="34" show="2.2.2.2" value="02020202"/>
    <field name="" show="Source GeoIP: Unknown" size="4" pos="30" value="01010101"/>
    <field name="" show="Destination GeoIP: Unknown" size="4" pos="34" value="02020202"/>
  </proto>
  <proto name="icmp" showname="Internet Control Message Protocol" size="80" pos="38">
    <field name="icmp.type" showname="Type: 8 (Echo (ping) request)" size="1" pos="38" show="8" value="08"/>
    <field name="icmp.code" showname="Code: 0" size="1" pos="39" show="0" value="00"/>
    <field name="icmp.checksum" showname="Checksum: 0x28e3 [correct]" size="2" pos="40" show="0x000028e3" value="28e3"/>
    <field name="icmp.checksum.status" showname="Checksum Status: Good" size="0" pos="40" show="1"/>
    <field name="icmp.ident" showname="Identifier (BE): 0 (0x0000)" size="2" pos="42" show="0" value="0000"/>
    <field name="icmp.ident" showname="Identifier (LE): 0 (0x0000)" size="2" pos="42" show="0" value="0000"/>
    <field name="icmp.seq" showname="Sequence number (BE): 0 (0x0000)" size="2" pos="44" show="0" value="0000"/>
    <field name="icmp.seq_le" showname="Sequence number (LE): 0 (0x0000)" size="2" pos="44" show="0" value="0000"/>
    <field name="icmp.resp_in" showname="Response frame: 167" size="0" pos="38" show="167"/>
    <field name="data" value="0000000000115556abcdabcdabcdabcdabcdabcdabcdabcdabcdabcdabcdabcdabcdabcdabcdabcdabcdabcdabcdabcdabcdabcdabcdabcdabcdabcdabcdabcdabcdabcdabcdabcd">
      <field name="data.data" showname="Data: 0000000000115556abcdabcdabcdabcdabcdabcdabcdabcd..." size="72" pos="46" show="00:00:00:00:00:11:55:56:ab:cd:ab:cd:ab:cd:ab:cd:ab:cd:ab:cd:ab:cd:ab:cd:ab:cd:ab:cd:ab:cd:ab:cd:ab:cd:ab:cd:ab:cd:ab:cd:ab:cd:ab:cd:ab:cd:ab:cd:ab:cd:ab:cd:ab:cd:ab:cd:ab:cd:ab:cd:ab:cd:ab:cd:ab:cd:ab:cd:ab:cd:ab:cd" value="0000000000115556abcdabcdabcdabcdabcdabcdabcdabcdabcdabcdabcdabcdabcdabcdabcdabcdabcdabcdabcdabcdabcdabcdabcdabcdabcdabcdabcdabcdabcdabcdabcdabcd"/>
      <field name="data.len" showname="Length: 72" size="0" pos="46" show="72"/>
    </field>
  </proto>
</packet>

<packet>
  <proto name="geninfo" pos="0" showname="General information" size="118">
    <field name="num" pos="0" show="167" showname="Number" value="a7" size="118"/>
    <field name="len" pos="0" show="118" showname="Frame Length" value="76" size="118"/>
    <field name="caplen" pos="0" show="118" showname="Captured Length" value="76" size="118"/>
    <field name="timestamp" pos="0" show="Feb  1, 2020 23:21:10.576216000 India Standard Time" showname="Captured Time" value="1580579470.576216000" size="118"/>
  </proto>
  <proto name="frame" showname="Frame 167: 118 bytes on wire (944 bits), 118 bytes captured (944 bits) on interface 0" size="118" pos="0">
    <field name="frame.interface_id" showname="Interface id: 0 (-)" size="0" pos="0" show="0"/>
    <field name="frame.encap_type" showname="Encapsulation type: Ethernet (1)" size="0" pos="0" show="1"/>
    <field name="frame.time" showname="Arrival Time: Feb  1, 2020 23:21:10.576216000 India Standard Time" size="0" pos="0" show="Feb  1, 2020 23:21:10.576216000 India Standard Time"/>
    <field name="frame.offset_shift" showname="Time shift for this packet: 0.000000000 seconds" size="0" pos="0" show="0.000000000"/>
    <field name="frame.time_epoch" showname="Epoch Time: 1580579470.576216000 seconds" size="0" pos="0" show="1580579470.576216000"/>
    <field name="frame.time_delta" showname="Time delta from previous captured frame: 0.002027000 seconds" size="0" pos="0" show="0.002027000"/>
    <field name="frame.time_delta_displayed" showname="Time delta from previous displayed frame: 0.002027000 seconds" size="0" pos="0" show="0.002027000"/>
    <field name="frame.time_relative" showname="Time since reference or first frame: 68.292554000 seconds" size="0" pos="0" show="68.292554000"/>
    <field name="frame.number" showname="Frame Number: 167" size="0" pos="0" show="167"/>
    <field name="frame.len" showname="Frame Length: 118 bytes (944 bits)" size="0" pos="0" show="118"/>
    <field name="frame.cap_len" showname="Capture Length: 118 bytes (944 bits)" size="0" pos="0" show="118"/>
    <field name="frame.marked" showname="Frame is marked: False" size="0" pos="0" show="0"/>
    <field name="frame.ignored" showname="Frame is ignored: False" size="0" pos="0" show="0"/>
    <field name="frame.protocols" showname="Protocols in frame: eth:ethertype:mpls:ip:icmp:data" size="0" pos="0" show="eth:ethertype:mpls:ip:icmp:data"/>
    <field name="frame.coloring_rule.name" showname="Coloring Rule Name: ICMP" size="0" pos="0" show="ICMP"/>
    <field name="frame.coloring_rule.string" showname="Coloring Rule String: icmp || icmpv6" size="0" pos="0" show="icmp || icmpv6"/>
  </proto>
  <proto name="eth" showname="Ethernet II, Src: aa:bb:cc:00:02:20 (aa:bb:cc:00:02:20), Dst: aa:bb:cc:00:01:20 (aa:bb:cc:00:01:20)" size="14" pos="0">
    <field name="eth.dst" showname="Destination: aa:bb:cc:00:01:20 (aa:bb:cc:00:01:20)" size="6" pos="0" show="aa:bb:cc:00:01:20" value="aabbcc000120">
      <field name="eth.dst_resolved" showname="Destination (resolved): aa:bb:cc:00:01:20" hide="yes" size="6" pos="0" show="aa:bb:cc:00:01:20" value="aabbcc000120"/>
      <field name="eth.addr" showname="Address: aa:bb:cc:00:01:20 (aa:bb:cc:00:01:20)" size="6" pos="0" show="aa:bb:cc:00:01:20" value="aabbcc000120"/>
      <field name="eth.addr_resolved" showname="Address (resolved): aa:bb:cc:00:01:20" hide="yes" size="6" pos="0" show="aa:bb:cc:00:01:20" value="aabbcc000120"/>
      <field name="eth.lg" showname=".... ..1. .... .... .... .... = LG bit: Locally administered address (this is NOT the factory default)" size="3" pos="0" show="1" value="1" unmaskedvalue="aabbcc"/>
      <field name="eth.ig" showname=".... ...0 .... .... .... .... = IG bit: Individual address (unicast)" size="3" pos="0" show="0" value="0" unmaskedvalue="aabbcc"/>
    </field>
    <field name="eth.src" showname="Source: aa:bb:cc:00:02:20 (aa:bb:cc:00:02:20)" size="6" pos="6" show="aa:bb:cc:00:02:20" value="aabbcc000220">
      <field name="eth.src_resolved" showname="Source (resolved): aa:bb:cc:00:02:20" hide="yes" size="6" pos="6" show="aa:bb:cc:00:02:20" value="aabbcc000220"/>
      <field name="eth.addr" showname="Address: aa:bb:cc:00:02:20 (aa:bb:cc:00:02:20)" size="6" pos="6" show="aa:bb:cc:00:02:20" value="aabbcc000220"/>
      <field name="eth.addr_resolved" showname="Address (resolved): aa:bb:cc:00:02:20" hide="yes" size="6" pos="6" show="aa:bb:cc:00:02:20" value="aabbcc000220"/>
      <field name="eth.lg" showname=".... ..1. .... .... .... .... = LG bit: Locally administered address (this is NOT the factory default)" size="3" pos="6" show="1" value="1" unmaskedvalue="aabbcc"/>
      <field name="eth.ig" showname=".... ...0 .... .... .... .... = IG bit: Individual address (unicast)" size="3" pos="6" show="0" value="0" unmaskedvalue="aabbcc"/>
    </field>
    <field name="eth.type" showname="Type: MPLS label switched packet (0x8847)" size="2" pos="12" show="0x00008847" value="8847"/>
  </proto>
  <proto name="mpls" showname="MultiProtocol Label Switching Header, Label: 307, Exp: 0, S: 1, TTL: 254" size="4" pos="14">
    <field name="mpls.label" showname="0000 0000 0001 0011 0011 .... .... .... = MPLS Label: 307" size="4" pos="14" show="307" value="133" unmaskedvalue="001331fe"/>
    <field name="mpls.exp" showname=".... .... .... .... .... 000. .... .... = MPLS Experimental Bits: 0" size="4" pos="14" show="0" value="0" unmaskedvalue="001331fe"/>
    <field name="mpls.bottom" showname=".... .... .... .... .... ...1 .... .... = MPLS Bottom Of Label Stack: 1" size="4" pos="14" show="1" value="1" unmaskedvalue="001331fe"/>
    <field name="mpls.ttl" showname=".... .... .... .... .... .... 1111 1110 = MPLS TTL: 254" size="4" pos="14" show="254" value="FE" unmaskedvalue="001331fe"/>
  </proto>
  <proto name="ip" showname="Internet Protocol Version 4, Src: 2.2.2.2, Dst: 1.1.1.1" size="20" pos="18">
    <field name="ip.version" showname="0100 .... = Version: 4" size="1" pos="18" show="4" value="4" unmaskedvalue="45"/>
    <field name="ip.hdr_len" showname=".... 0101 = Header Length: 20 bytes (5)" size="1" pos="18" show="20" value="45"/>
    <field name="ip.dsfield" showname="Differentiated Services Field: 0x00 (DSCP: CS0, ECN: Not-ECT)" size="1" pos="19" show="0x00000000" value="00">
      <field name="ip.dsfield.dscp" showname="0000 00.. = Differentiated Services Codepoint: Default (0)" size="1" pos="19" show="0" value="0" unmaskedvalue="00"/>
      <field name="ip.dsfield.ecn" showname=".... ..00 = Explicit Congestion Notification: Not ECN-Capable Transport (0)" size="1" pos="19" show="0" value="0" unmaskedvalue="00"/>
    </field>
    <field name="ip.len" showname="Total Length: 100" size="2" pos="20" show="100" value="0064"/>
    <field name="ip.id" showname="Identification: 0x0000 (0)" size="2" pos="22" show="0x00000000" value="0000"/>
    <field name="ip.flags" showname="Flags: 0x00" size="1" pos="24" show="0x00000000" value="00">
      <field name="ip.flags.rb" showname="0... .... = Reserved bit: Not set" size="1" pos="24" show="0" value="00"/>
      <field name="ip.flags.df" showname=".0.. .... = Don&#x27;t fragment: Not set" size="1" pos="24" show="0" value="00"/>
      <field name="ip.flags.mf" showname="..0. .... = More fragments: Not set" size="1" pos="24" show="0" value="00"/>
    </field>
    <field name="ip.frag_offset" showname="Fragment offset: 0" size="2" pos="24" show="0" value="0000"/>
    <field name="ip.ttl" showname="Time to live: 255" size="1" pos="26" show="255" value="ff"/>
    <field name="ip.proto" showname="Protocol: ICMP (1)" size="1" pos="27" show="1" value="01"/>
    <field name="ip.checksum" showname="Header checksum: 0xb593 [validation disabled]" size="2" pos="28" show="0x0000b593" value="b593"/>
    <field name="ip.checksum.status" showname="Header checksum status: Unverified" size="0" pos="28" show="2"/>
    <field name="ip.src" showname="Source: 2.2.2.2" size="4" pos="30" show="2.2.2.2" value="02020202"/>
    <field name="ip.addr" showname="Source or Destination Address: 2.2.2.2" hide="yes" size="4" pos="30" show="2.2.2.2" value="02020202"/>
    <field name="ip.src_host" showname="Source Host: 2.2.2.2" hide="yes" size="4" pos="30" show="2.2.2.2" value="02020202"/>
    <field name="ip.host" showname="Source or Destination Host: 2.2.2.2" hide="yes" size="4" pos="30" show="2.2.2.2" value="02020202"/>
    <field name="ip.dst" showname="Destination: 1.1.1.1" size="4" pos="34" show="1.1.1.1" value="01010101"/>
    <field name="ip.addr" showname="Source or Destination Address: 1.1.1.1" hide="yes" size="4" pos="34" show="1.1.1.1" value="01010101"/>
    <field name="ip.dst_host" showname="Destination Host: 1.1.1.1" hide="yes" size="4" pos="34" show="1.1.1.1" value="01010101"/>
    <field name="ip.host" showname="Source or Destination Host: 1.1.1.1" hide="yes" size="4" pos="34" show="1.1.1.1" value="01010101"/>
    <field name="" show="Source GeoIP: Unknown" size="4" pos="30" value="02020202"/>
    <field name="" show="Destination GeoIP: Unknown" size="4" pos="34" value="01010101"/>
  </proto>
  <proto name="icmp" showname="Internet Control Message Protocol" size="80" pos="38">
    <field name="icmp.type" showname="Type: 0 (Echo (ping) reply)" size="1" pos="38" show="0" value="00"/>
    <field name="icmp.code" showname="Code: 0" size="1" pos="39" show="0" value="00"/>
    <field name="icmp.checksum" showname="Checksum: 0x30e3 [correct]" size="2" pos="40" show="0x000030e3" value="30e3"/>
    <field name="icmp.checksum.status" showname="Checksum Status: Good" size="0" pos="40" show="1"/>
    <field name="icmp.ident" showname="Identifier (BE): 0 (0x0000)" size="2" pos="42" show="0" value="0000"/>
    <field name="icmp.ident" showname="Identifier (LE): 0 (0x0000)" size="2" pos="42" show="0" value="0000"/>
    <field name="icmp.seq" showname="Sequence number (BE): 0 (0x0000)" size="2" pos="44" show="0" value="0000"/>
    <field name="icmp.seq_le" showname="Sequence number (LE): 0 (0x0000)" size="2" pos="44" show="0" value="0000"/>
    <field name="icmp.resp_to" showname="Request frame: 166" size="0" pos="38" show="166"/>
    <field name="icmp.resptime" showname="Response time: 2.027 ms" size="0" pos="38" show="2.027"/>
    <field name="data" value="0000000000115556abcdabcdabcdabcdabcdabcdabcdabcdabcdabcdabcdabcdabcdabcdabcdabcdabcdabcdabcdabcdabcdabcdabcdabcdabcdabcdabcdabcdabcdabcdabcdabcd">
      <field name="data.data" showname="Data: 0000000000115556abcdabcdabcdabcdabcdabcdabcdabcd..." size="72" pos="46" show="00:00:00:00:00:11:55:56:ab:cd:ab:cd:ab:cd:ab:cd:ab:cd:ab:cd:ab:cd:ab:cd:ab:cd:ab:cd:ab:cd:ab:cd:ab:cd:ab:cd:ab:cd:ab:cd:ab:cd:ab:cd:ab:cd:ab:cd:ab:cd:ab:cd:ab:cd:ab:cd:ab:cd:ab:cd:ab:cd:ab:cd:ab:cd:ab:cd:ab:cd:ab:cd" value="0000000000115556abcdabcdabcdabcdabcdabcdabcdabcdabcdabcdabcdabcdabcdabcdabcdabcdabcdabcdabcdabcdabcdabcdabcdabcdabcdabcdabcdabcdabcdabcdabcdabcd"/>
      <field name="data.len" showname="Length: 72" size="0" pos="46" show="72"/>
    </field>
  </proto>
</packet>

<packet>
  <proto name="geninfo" pos="0" showname="General information" size="118">
    <field name="num" pos="0" show="168" showname="Number" value="a8" size="118"/>
    <field name="len" pos="0" show="118" showname="Frame Length" value="76" size="118"/>
    <field name="caplen" pos="0" show="118" showname="Captured Length" value="76" size="118"/>
    <field name="timestamp" pos="0" show="Feb  1, 2020 23:21:10.595473000 India Standard Time" showname="Captured Time" value="1580579470.595473000" size="118"/>
  </proto>
  <proto name="frame" showname="Frame 168: 118 bytes on wire (944 bits), 118 bytes captured (944 bits) on interface 0" size="118" pos="0">
    <field name="frame.interface_id" showname="Interface id: 0 (-)" size="0" pos="0" show="0"/>
    <field name="frame.encap_type" showname="Encapsulation type: Ethernet (1)" size="0" pos="0" show="1"/>
    <field name="frame.time" showname="Arrival Time: Feb  1, 2020 23:21:10.595473000 India Standard Time" size="0" pos="0" show="Feb  1, 2020 23:21:10.595473000 India Standard Time"/>
    <field name="frame.offset_shift" showname="Time shift for this packet: 0.000000000 seconds" size="0" pos="0" show="0.000000000"/>
    <field name="frame.time_epoch" showname="Epoch Time: 1580579470.595473000 seconds" size="0" pos="0" show="1580579470.595473000"/>
    <field name="frame.time_delta" showname="Time delta from previous captured frame: 0.019257000 seconds" size="0" pos="0" show="0.019257000"/>
    <field name="frame.time_delta_displayed" showname="Time delta from previous displayed frame: 0.019257000 seconds" size="0" pos="0" show="0.019257000"/>
    <field name="frame.time_relative" showname="Time since reference or first frame: 68.311811000 seconds" size="0" pos="0" show="68.311811000"/>
    <field name="frame.number" showname="Frame Number: 168" size="0" pos="0" show="168"/>
    <field name="frame.len" showname="Frame Length: 118 bytes (944 bits)" size="0" pos="0" show="118"/>
    <field name="frame.cap_len" showname="Capture Length: 118 bytes (944 bits)" size="0" pos="0" show="118"/>
    <field name="frame.marked" showname="Frame is marked: False" size="0" pos="0" show="0"/>
    <field name="frame.ignored" showname="Frame is ignored: False" size="0" pos="0" show="0"/>
    <field name="frame.protocols" showname="Protocols in frame: eth:ethertype:mpls:ip:icmp:data" size="0" pos="0" show="eth:ethertype:mpls:ip:icmp:data"/>
    <field name="frame.coloring_rule.name" showname="Coloring Rule Name: ICMP" size="0" pos="0" show="ICMP"/>
    <field name="frame.coloring_rule.string" showname="Coloring Rule String: icmp || icmpv6" size="0" pos="0" show="icmp || icmpv6"/>
  </proto>
  <proto name="eth" showname="Ethernet II, Src: aa:bb:cc:00:01:20 (aa:bb:cc:00:01:20), Dst: aa:bb:cc:00:02:20 (aa:bb:cc:00:02:20)" size="14" pos="0">
    <field name="eth.dst" showname="Destination: aa:bb:cc:00:02:20 (aa:bb:cc:00:02:20)" size="6" pos="0" show="aa:bb:cc:00:02:20" value="aabbcc000220">
      <field name="eth.dst_resolved" showname="Destination (resolved): aa:bb:cc:00:02:20" hide="yes" size="6" pos="0" show="aa:bb:cc:00:02:20" value="aabbcc000220"/>
      <field name="eth.addr" showname="Address: aa:bb:cc:00:02:20 (aa:bb:cc:00:02:20)" size="6" pos="0" show="aa:bb:cc:00:02:20" value="aabbcc000220"/>
      <field name="eth.addr_resolved" showname="Address (resolved): aa:bb:cc:00:02:20" hide="yes" size="6" pos="0" show="aa:bb:cc:00:02:20" value="aabbcc000220"/>
      <field name="eth.lg" showname=".... ..1. .... .... .... .... = LG bit: Locally administered address (this is NOT the factory default)" size="3" pos="0" show="1" value="1" unmaskedvalue="aabbcc"/>
      <field name="eth.ig" showname=".... ...0 .... .... .... .... = IG bit: Individual address (unicast)" size="3" pos="0" show="0" value="0" unmaskedvalue="aabbcc"/>
    </field>
    <field name="eth.src" showname="Source: aa:bb:cc:00:01:20 (aa:bb:cc:00:01:20)" size="6" pos="6" show="aa:bb:cc:00:01:20" value="aabbcc000120">
      <field name="eth.src_resolved" showname="Source (resolved): aa:bb:cc:00:01:20" hide="yes" size="6" pos="6" show="aa:bb:cc:00:01:20" value="aabbcc000120"/>
      <field name="eth.addr" showname="Address: aa:bb:cc:00:01:20 (aa:bb:cc:00:01:20)" size="6" pos="6" show="aa:bb:cc:00:01:20" value="aabbcc000120"/>
      <field name="eth.addr_resolved" showname="Address (resolved): aa:bb:cc:00:01:20" hide="yes" size="6" pos="6" show="aa:bb:cc:00:01:20" value="aabbcc000120"/>
      <field name="eth.lg" showname=".... ..1. .... .... .... .... = LG bit: Locally administered address (this is NOT the factory default)" size="3" pos="6" show="1" value="1" unmaskedvalue="aabbcc"/>
      <field name="eth.ig" showname=".... ...0 .... .... .... .... = IG bit: Individual address (unicast)" size="3" pos="6" show="0" value="0" unmaskedvalue="aabbcc"/>
    </field>
    <field name="eth.type" showname="Type: MPLS label switched packet (0x8847)" size="2" pos="12" show="0x00008847" value="8847"/>
  </proto>
  <proto name="mpls" showname="MultiProtocol Label Switching Header, Label: 404, Exp: 0, S: 1, TTL: 254" size="4" pos="14">
    <field name="mpls.label" showname="0000 0000 0001 1001 0100 .... .... .... = MPLS Label: 404" size="4" pos="14" show="404" value="194" unmaskedvalue="001941fe"/>
    <field name="mpls.exp" showname=".... .... .... .... .... 000. .... .... = MPLS Experimental Bits: 0" size="4" pos="14" show="0" value="0" unmaskedvalue="001941fe"/>
    <field name="mpls.bottom" showname=".... .... .... .... .... ...1 .... .... = MPLS Bottom Of Label Stack: 1" size="4" pos="14" show="1" value="1" unmaskedvalue="001941fe"/>
    <field name="mpls.ttl" showname=".... .... .... .... .... .... 1111 1110 = MPLS TTL: 254" size="4" pos="14" show="254" value="FE" unmaskedvalue="001941fe"/>
  </proto>
  <proto name="ip" showname="Internet Protocol Version 4, Src: 1.1.1.1, Dst: 2.2.2.2" size="20" pos="18">
    <field name="ip.version" showname="0100 .... = Version: 4" size="1" pos="18" show="4" value="4" unmaskedvalue="45"/>
    <field name="ip.hdr_len" showname=".... 0101 = Header Length: 20 bytes (5)" size="1" pos="18" show="20" value="45"/>
    <field name="ip.dsfield" showname="Differentiated Services Field: 0x00 (DSCP: CS0, ECN: Not-ECT)" size="1" pos="19" show="0x00000000" value="00">
      <field name="ip.dsfield.dscp" showname="0000 00.. = Differentiated Services Codepoint: Default (0)" size="1" pos="19" show="0" value="0" unmaskedvalue="00"/>
      <field name="ip.dsfield.ecn" showname=".... ..00 = Explicit Congestion Notification: Not ECN-Capable Transport (0)" size="1" pos="19" show="0" value="0" unmaskedvalue="00"/>
    </field>
    <field name="ip.len" showname="Total Length: 100" size="2" pos="20" show="100" value="0064"/>
    <field name="ip.id" showname="Identification: 0x0001 (1)" size="2" pos="22" show="0x00000001" value="0001"/>
    <field name="ip.flags" showname="Flags: 0x00" size="1" pos="24" show="0x00000000" value="00">
      <field name="ip.flags.rb" showname="0... .... = Reserved bit: Not set" size="1" pos="24" show="0" value="00"/>
      <field name="ip.flags.df" showname=".0.. .... = Don&#x27;t fragment: Not set" size="1" pos="24" show="0" value="00"/>
      <field name="ip.flags.mf" showname="..0. .... = More fragments: Not set" size="1" pos="24" show="0" value="00"/>
    </field>
    <field name="ip.frag_offset" showname="Fragment offset: 0" size="2" pos="24" show="0" value="0000"/>
    <field name="ip.ttl" showname="Time to live: 255" size="1" pos="26" show="255" value="ff"/>
    <field name="ip.proto" showname="Protocol: ICMP (1)" size="1" pos="27" show="1" value="01"/>
    <field name="ip.checksum" showname="Header checksum: 0xb592 [validation disabled]" size="2" pos="28" show="0x0000b592" value="b592"/>
    <field name="ip.checksum.status" showname="Header checksum status: Unverified" size="0" pos="28" show="2"/>
    <field name="ip.src" showname="Source: 1.1.1.1" size="4" pos="30" show="1.1.1.1" value="01010101"/>
    <field name="ip.addr" showname="Source or Destination Address: 1.1.1.1" hide="yes" size="4" pos="30" show="1.1.1.1" value="01010101"/>
    <field name="ip.src_host" showname="Source Host: 1.1.1.1" hide="yes" size="4" pos="30" show="1.1.1.1" value="01010101"/>
    <field name="ip.host" showname="Source or Destination Host: 1.1.1.1" hide="yes" size="4" pos="30" show="1.1.1.1" value="01010101"/>
    <field name="ip.dst" showname="Destination: 2.2.2.2" size="4" pos="34" show="2.2.2.2" value="02020202"/>
    <field name="ip.addr" showname="Source or Destination Address: 2.2.2.2" hide="yes" size="4" pos="34" show="2.2.2.2" value="02020202"/>
    <field name="ip.dst_host" showname="Destination Host: 2.2.2.2" hide="yes" size="4" pos="34" show="2.2.2.2" value="02020202"/>
    <field name="ip.host" showname="Source or Destination Host: 2.2.2.2" hide="yes" size="4" pos="34" show="2.2.2.2" value="02020202"/>
    <field name="" show="Source GeoIP: Unknown" size="4" pos="30" value="01010101"/>
    <field name="" show="Destination GeoIP: Unknown" size="4" pos="34" value="02020202"/>
  </proto>
  <proto name="icmp" showname="Internet Control Message Protocol" size="80" pos="38">
    <field name="icmp.type" showname="Type: 8 (Echo (ping) request)" size="1" pos="38" show="8" value="08"/>
    <field name="icmp.code" showname="Code: 0" size="1" pos="39" show="0" value="00"/>
    <field name="icmp.checksum" showname="Checksum: 0x28ce [correct]" size="2" pos="40" show="0x000028ce" value="28ce"/>
    <field name="icmp.checksum.status" showname="Checksum Status: Good" size="0" pos="40" show="1"/>
    <field name="icmp.ident" showname="Identifier (BE): 0 (0x0000)" size="2" pos="42" show="0" value="0000"/>
    <field name="icmp.ident" showname="Identifier (LE): 0 (0x0000)" size="2" pos="42" show="0" value="0000"/>
    <field name="icmp.seq" showname="Sequence number (BE): 1 (0x0001)" size="2" pos="44" show="1" value="0001"/>
    <field name="icmp.seq_le" showname="Sequence number (LE): 256 (0x0100)" size="2" pos="44" show="256" value="0001"/>
    <field name="icmp.resp_in" showname="Response frame: 169" size="0" pos="38" show="169"/>
    <field name="data" value="000000000011556aabcdabcdabcdabcdabcdabcdabcdabcdabcdabcdabcdabcdabcdabcdabcdabcdabcdabcdabcdabcdabcdabcdabcdabcdabcdabcdabcdabcdabcdabcdabcdabcd">
      <field name="data.data" showname="Data: 000000000011556aabcdabcdabcdabcdabcdabcdabcdabcd..." size="72" pos="46" show="00:00:00:00:00:11:55:6a:ab:cd:ab:cd:ab:cd:ab:cd:ab:cd:ab:cd:ab:cd:ab:cd:ab:cd:ab:cd:ab:cd:ab:cd:ab:cd:ab:cd:ab:cd:ab:cd:ab:cd:ab:cd:ab:cd:ab:cd:ab:cd:ab:cd:ab:cd:ab:cd:ab:cd:ab:cd:ab:cd:ab:cd:ab:cd:ab:cd:ab:cd:ab:cd" value="000000000011556aabcdabcdabcdabcdabcdabcdabcdabcdabcdabcdabcdabcdabcdabcdabcdabcdabcdabcdabcdabcdabcdabcdabcdabcdabcdabcdabcdabcdabcdabcdabcdabcd"/>
      <field name="data.len" showname="Length: 72" size="0" pos="46" show="72"/>
    </field>
  </proto>
</packet>

<packet>
  <proto name="geninfo" pos="0" showname="General information" size="118">
    <field name="num" pos="0" show="169" showname="Number" value="a9" size="118"/>
    <field name="len" pos="0" show="118" showname="Frame Length" value="76" size="118"/>
    <field name="caplen" pos="0" show="118" showname="Captured Length" value="76" size="118"/>
    <field name="timestamp" pos="0" show="Feb  1, 2020 23:21:10.596686000 India Standard Time" showname="Captured Time" value="1580579470.596686000" size="118"/>
  </proto>
  <proto name="frame" showname="Frame 169: 118 bytes on wire (944 bits), 118 bytes captured (944 bits) on interface 0" size="118" pos="0">
    <field name="frame.interface_id" showname="Interface id: 0 (-)" size="0" pos="0" show="0"/>
    <field name="frame.encap_type" showname="Encapsulation type: Ethernet (1)" size="0" pos="0" show="1"/>
    <field name="frame.time" showname="Arrival Time: Feb  1, 2020 23:21:10.596686000 India Standard Time" size="0" pos="0" show="Feb  1, 2020 23:21:10.596686000 India Standard Time"/>
    <field name="frame.offset_shift" showname="Time shift for this packet: 0.000000000 seconds" size="0" pos="0" show="0.000000000"/>
    <field name="frame.time_epoch" showname="Epoch Time: 1580579470.596686000 seconds" size="0" pos="0" show="1580579470.596686000"/>
    <field name="frame.time_delta" showname="Time delta from previous captured frame: 0.001213000 seconds" size="0" pos="0" show="0.001213000"/>
    <field name="frame.time_delta_displayed" showname="Time delta from previous displayed frame: 0.001213000 seconds" size="0" pos="0" show="0.001213000"/>
    <field name="frame.time_relative" showname="Time since reference or first frame: 68.313024000 seconds" size="0" pos="0" show="68.313024000"/>
    <field name="frame.number" showname="Frame Number: 169" size="0" pos="0" show="169"/>
    <field name="frame.len" showname="Frame Length: 118 bytes (944 bits)" size="0" pos="0" show="118"/>
    <field name="frame.cap_len" showname="Capture Length: 118 bytes (944 bits)" size="0" pos="0" show="118"/>
    <field name="frame.marked" showname="Frame is marked: False" size="0" pos="0" show="0"/>
    <field name="frame.ignored" showname="Frame is ignored: False" size="0" pos="0" show="0"/>
    <field name="frame.protocols" showname="Protocols in frame: eth:ethertype:mpls:ip:icmp:data" size="0" pos="0" show="eth:ethertype:mpls:ip:icmp:data"/>
    <field name="frame.coloring_rule.name" showname="Coloring Rule Name: ICMP" size="0" pos="0" show="ICMP"/>
    <field name="frame.coloring_rule.string" showname="Coloring Rule String: icmp || icmpv6" size="0" pos="0" show="icmp || icmpv6"/>
  </proto>
  <proto name="eth" showname="Ethernet II, Src: aa:bb:cc:00:02:20 (aa:bb:cc:00:02:20), Dst: aa:bb:cc:00:01:20 (aa:bb:cc:00:01:20)" size="14" pos="0">
    <field name="eth.dst" showname="Destination: aa:bb:cc:00:01:20 (aa:bb:cc:00:01:20)" size="6" pos="0" show="aa:bb:cc:00:01:20" value="aabbcc000120">
      <field name="eth.dst_resolved" showname="Destination (resolved): aa:bb:cc:00:01:20" hide="yes" size="6" pos="0" show="aa:bb:cc:00:01:20" value="aabbcc000120"/>
      <field name="eth.addr" showname="Address: aa:bb:cc:00:01:20 (aa:bb:cc:00:01:20)" size="6" pos="0" show="aa:bb:cc:00:01:20" value="aabbcc000120"/>
      <field name="eth.addr_resolved" showname="Address (resolved): aa:bb:cc:00:01:20" hide="yes" size="6" pos="0" show="aa:bb:cc:00:01:20" value="aabbcc000120"/>
      <field name="eth.lg" showname=".... ..1. .... .... .... .... = LG bit: Locally administered address (this is NOT the factory default)" size="3" pos="0" show="1" value="1" unmaskedvalue="aabbcc"/>
      <field name="eth.ig" showname=".... ...0 .... .... .... .... = IG bit: Individual address (unicast)" size="3" pos="0" show="0" value="0" unmaskedvalue="aabbcc"/>
    </field>
    <field name="eth.src" showname="Source: aa:bb:cc:00:02:20 (aa:bb:cc:00:02:20)" size="6" pos="6" show="aa:bb:cc:00:02:20" value="aabbcc000220">
      <field name="eth.src_resolved" showname="Source (resolved): aa:bb:cc:00:02:20" hide="yes" size="6" pos="6" show="aa:bb:cc:00:02:20" value="aabbcc000220"/>
      <field name="eth.addr" showname="Address: aa:bb:cc:00:02:20 (aa:bb:cc:00:02:20)" size="6" pos="6" show="aa:bb:cc:00:02:20" value="aabbcc000220"/>
      <field name="eth.addr_resolved" showname="Address (resolved): aa:bb:cc:00:02:20" hide="yes" size="6" pos="6" show="aa:bb:cc:00:02:20" value="aabbcc000220"/>
      <field name="eth.lg" showname=".... ..1. .... .... .... .... = LG bit: Locally administered address (this is NOT the factory default)" size="3" pos="6" show="1" value="1" unmaskedvalue="aabbcc"/>
      <field name="eth.ig" showname=".... ...0 .... .... .... .... = IG bit: Individual address (unicast)" size="3" pos="6" show="0" value="0" unmaskedvalue="aabbcc"/>
    </field>
    <field name="eth.type" showname="Type: MPLS label switched packet (0x8847)" size="2" pos="12" show="0x00008847" value="8847"/>
  </proto>
  <proto name="mpls" showname="MultiProtocol Label Switching Header, Label: 307, Exp: 0, S: 1, TTL: 254" size="4" pos="14">
    <field name="mpls.label" showname="0000 0000 0001 0011 0011 .... .... .... = MPLS Label: 307" size="4" pos="14" show="307" value="133" unmaskedvalue="001331fe"/>
    <field name="mpls.exp" showname=".... .... .... .... .... 000. .... .... = MPLS Experimental Bits: 0" size="4" pos="14" show="0" value="0" unmaskedvalue="001331fe"/>
    <field name="mpls.bottom" showname=".... .... .... .... .... ...1 .... .... = MPLS Bottom Of Label Stack: 1" size="4" pos="14" show="1" value="1" unmaskedvalue="001331fe"/>
    <field name="mpls.ttl" showname=".... .... .... .... .... .... 1111 1110 = MPLS TTL: 254" size="4" pos="14" show="254" value="FE" unmaskedvalue="001331fe"/>
  </proto>
  <proto name="ip" showname="Internet Protocol Version 4, Src: 2.2.2.2, Dst: 1.1.1.1" size="20" pos="18">
    <field name="ip.version" showname="0100 .... = Version: 4" size="1" pos="18" show="4" value="4" unmaskedvalue="45"/>
    <field name="ip.hdr_len" showname=".... 0101 = Header Length: 20 bytes (5)" size="1" pos="18" show="20" value="45"/>
    <field name="ip.dsfield" showname="Differentiated Services Field: 0x00 (DSCP: CS0, ECN: Not-ECT)" size="1" pos="19" show="0x00000000" value="00">
      <field name="ip.dsfield.dscp" showname="0000 00.. = Differentiated Services Codepoint: Default (0)" size="1" pos="19" show="0" value="0" unmaskedvalue="00"/>
      <field name="ip.dsfield.ecn" showname=".... ..00 = Explicit Congestion Notification: Not ECN-Capable Transport (0)" size="1" pos="19" show="0" value="0" unmaskedvalue="00"/>
    </field>
    <field name="ip.len" showname="Total Length: 100" size="2" pos="20" show="100" value="0064"/>
    <field name="ip.id" showname="Identification: 0x0001 (1)" size="2" pos="22" show="0x00000001" value="0001"/>
    <field name="ip.flags" showname="Flags: 0x00" size="1" pos="24" show="0x00000000" value="00">
      <field name="ip.flags.rb" showname="0... .... = Reserved bit: Not set" size="1" pos="24" show="0" value="00"/>
      <field name="ip.flags.df" showname=".0.. .... = Don&#x27;t fragment: Not set" size="1" pos="24" show="0" value="00"/>
      <field name="ip.flags.mf" showname="..0. .... = More fragments: Not set" size="1" pos="24" show="0" value="00"/>
    </field>
    <field name="ip.frag_offset" showname="Fragment offset: 0" size="2" pos="24" show="0" value="0000"/>
    <field name="ip.ttl" showname="Time to live: 255" size="1" pos="26" show="255" value="ff"/>
    <field name="ip.proto" showname="Protocol: ICMP (1)" size="1" pos="27" show="1" value="01"/>
    <field name="ip.checksum" showname="Header checksum: 0xb592 [validation disabled]" size="2" pos="28" show="0x0000b592" value="b592"/>
    <field name="ip.checksum.status" showname="Header checksum status: Unverified" size="0" pos="28" show="2"/>
    <field name="ip.src" showname="Source: 2.2.2.2" size="4" pos="30" show="2.2.2.2" value="02020202"/>
    <field name="ip.addr" showname="Source or Destination Address: 2.2.2.2" hide="yes" size="4" pos="30" show="2.2.2.2" value="02020202"/>
    <field name="ip.src_host" showname="Source Host: 2.2.2.2" hide="yes" size="4" pos="30" show="2.2.2.2" value="02020202"/>
    <field name="ip.host" showname="Source or Destination Host: 2.2.2.2" hide="yes" size="4" pos="30" show="2.2.2.2" value="02020202"/>
    <field name="ip.dst" showname="Destination: 1.1.1.1" size="4" pos="34" show="1.1.1.1" value="01010101"/>
    <field name="ip.addr" showname="Source or Destination Address: 1.1.1.1" hide="yes" size="4" pos="34" show="1.1.1.1" value="01010101"/>
    <field name="ip.dst_host" showname="Destination Host: 1.1.1.1" hide="yes" size="4" pos="34" show="1.1.1.1" value="01010101"/>
    <field name="ip.host" showname="Source or Destination Host: 1.1.1.1" hide="yes" size="4" pos="34" show="1.1.1.1" value="01010101"/>
    <field name="" show="Source GeoIP: Unknown" size="4" pos="30" value="02020202"/>
    <field name="" show="Destination GeoIP: Unknown" size="4" pos="34" value="01010101"/>
  </proto>
  <proto name="icmp" showname="Internet Control Message Protocol" size="80" pos="38">
    <field name="icmp.type" showname="Type: 0 (Echo (ping) reply)" size="1" pos="38" show="0" value="00"/>
    <field name="icmp.code" showname="Code: 0" size="1" pos="39" show="0" value="00"/>
    <field name="icmp.checksum" showname="Checksum: 0x30ce [correct]" size="2" pos="40" show="0x000030ce" value="30ce"/>
    <field name="icmp.checksum.status" showname="Checksum Status: Good" size="0" pos="40" show="1"/>
    <field name="icmp.ident" showname="Identifier (BE): 0 (0x0000)" size="2" pos="42" show="0" value="0000"/>
    <field name="icmp.ident" showname="Identifier (LE): 0 (0x0000)" size="2" pos="42" show="0" value="0000"/>
    <field name="icmp.seq" showname="Sequence number (BE): 1 (0x0001)" size="2" pos="44" show="1" value="0001"/>
    <field name="icmp.seq_le" showname="Sequence number (LE): 256 (0x0100)" size="2" pos="44" show="256" value="0001"/>
    <field name="icmp.resp_to" showname="Request frame: 168" size="0" pos="38" show="168"/>
    <field name="icmp.resptime" showname="Response time: 1.213 ms" size="0" pos="38" show="1.213"/>
    <field name="data" value="000000000011556aabcdabcdabcdabcdabcdabcdabcdabcdabcdabcdabcdabcdabcdabcdabcdabcdabcdabcdabcdabcdabcdabcdabcdabcdabcdabcdabcdabcdabcdabcdabcdabcd">
      <field name="data.data" showname="Data: 000000000011556aabcdabcdabcdabcdabcdabcdabcdabcd..." size="72" pos="46" show="00:00:00:00:00:11:55:6a:ab:cd:ab:cd:ab:cd:ab:cd:ab:cd:ab:cd:ab:cd:ab:cd:ab:cd:ab:cd:ab:cd:ab:cd:ab:cd:ab:cd:ab:cd:ab:cd:ab:cd:ab:cd:ab:cd:ab:cd:ab:cd:ab:cd:ab:cd:ab:cd:ab:cd:ab:cd:ab:cd:ab:cd:ab:cd:ab:cd:ab:cd:ab:cd" value="000000000011556aabcdabcdabcdabcdabcdabcdabcdabcdabcdabcdabcdabcdabcdabcdabcdabcdabcdabcdabcdabcdabcdabcdabcdabcdabcdabcdabcdabcdabcdabcdabcdabcd"/>
      <field name="data.len" showname="Length: 72" size="0" pos="46" show="72"/>
    </field>
  </proto>
</packet>

<packet>
  <proto name="geninfo" pos="0" showname="General information" size="118">
    <field name="num" pos="0" show="170" showname="Number" value="aa" size="118"/>
    <field name="len" pos="0" show="118" showname="Frame Length" value="76" size="118"/>
    <field name="caplen" pos="0" show="118" showname="Captured Length" value="76" size="118"/>
    <field name="timestamp" pos="0" show="Feb  1, 2020 23:21:10.621963000 India Standard Time" showname="Captured Time" value="1580579470.621963000" size="118"/>
  </proto>
  <proto name="frame" showname="Frame 170: 118 bytes on wire (944 bits), 118 bytes captured (944 bits) on interface 0" size="118" pos="0">
    <field name="frame.interface_id" showname="Interface id: 0 (-)" size="0" pos="0" show="0"/>
    <field name="frame.encap_type" showname="Encapsulation type: Ethernet (1)" size="0" pos="0" show="1"/>
    <field name="frame.time" showname="Arrival Time: Feb  1, 2020 23:21:10.621963000 India Standard Time" size="0" pos="0" show="Feb  1, 2020 23:21:10.621963000 India Standard Time"/>
    <field name="frame.offset_shift" showname="Time shift for this packet: 0.000000000 seconds" size="0" pos="0" show="0.000000000"/>
    <field name="frame.time_epoch" showname="Epoch Time: 1580579470.621963000 seconds" size="0" pos="0" show="1580579470.621963000"/>
    <field name="frame.time_delta" showname="Time delta from previous captured frame: 0.025277000 seconds" size="0" pos="0" show="0.025277000"/>
    <field name="frame.time_delta_displayed" showname="Time delta from previous displayed frame: 0.025277000 seconds" size="0" pos="0" show="0.025277000"/>
    <field name="frame.time_relative" showname="Time since reference or first frame: 68.338301000 seconds" size="0" pos="0" show="68.338301000"/>
    <field name="frame.number" showname="Frame Number: 170" size="0" pos="0" show="170"/>
    <field name="frame.len" showname="Frame Length: 118 bytes (944 bits)" size="0" pos="0" show="118"/>
    <field name="frame.cap_len" showname="Capture Length: 118 bytes (944 bits)" size="0" pos="0" show="118"/>
    <field name="frame.marked" showname="Frame is marked: False" size="0" pos="0" show="0"/>
    <field name="frame.ignored" showname="Frame is ignored: False" size="0" pos="0" show="0"/>
    <field name="frame.protocols" showname="Protocols in frame: eth:ethertype:mpls:ip:icmp:data" size="0" pos="0" show="eth:ethertype:mpls:ip:icmp:data"/>
    <field name="frame.coloring_rule.name" showname="Coloring Rule Name: ICMP" size="0" pos="0" show="ICMP"/>
    <field name="frame.coloring_rule.string" showname="Coloring Rule String: icmp || icmpv6" size="0" pos="0" show="icmp || icmpv6"/>
  </proto>
  <proto name="eth" showname="Ethernet II, Src: aa:bb:cc:00:01:20 (aa:bb:cc:00:01:20), Dst: aa:bb:cc:00:02:20 (aa:bb:cc:00:02:20)" size="14" pos="0">
    <field name="eth.dst" showname="Destination: aa:bb:cc:00:02:20 (aa:bb:cc:00:02:20)" size="6" pos="0" show="aa:bb:cc:00:02:20" value="aabbcc000220">
      <field name="eth.dst_resolved" showname="Destination (resolved): aa:bb:cc:00:02:20" hide="yes" size="6" pos="0" show="aa:bb:cc:00:02:20" value="aabbcc000220"/>
      <field name="eth.addr" showname="Address: aa:bb:cc:00:02:20 (aa:bb:cc:00:02:20)" size="6" pos="0" show="aa:bb:cc:00:02:20" value="aabbcc000220"/>
      <field name="eth.addr_resolved" showname="Address (resolved): aa:bb:cc:00:02:20" hide="yes" size="6" pos="0" show="aa:bb:cc:00:02:20" value="aabbcc000220"/>
      <field name="eth.lg" showname=".... ..1. .... .... .... .... = LG bit: Locally administered address (this is NOT the factory default)" size="3" pos="0" show="1" value="1" unmaskedvalue="aabbcc"/>
      <field name="eth.ig" showname=".... ...0 .... .... .... .... = IG bit: Individual address (unicast)" size="3" pos="0" show="0" value="0" unmaskedvalue="aabbcc"/>
    </field>
    <field name="eth.src" showname="Source: aa:bb:cc:00:01:20 (aa:bb:cc:00:01:20)" size="6" pos="6" show="aa:bb:cc:00:01:20" value="aabbcc000120">
      <field name="eth.src_resolved" showname="Source (resolved): aa:bb:cc:00:01:20" hide="yes" size="6" pos="6" show="aa:bb:cc:00:01:20" value="aabbcc000120"/>
      <field name="eth.addr" showname="Address: aa:bb:cc:00:01:20 (aa:bb:cc:00:01:20)" size="6" pos="6" show="aa:bb:cc:00:01:20" value="aabbcc000120"/>
      <field name="eth.addr_resolved" showname="Address (resolved): aa:bb:cc:00:01:20" hide="yes" size="6" pos="6" show="aa:bb:cc:00:01:20" value="aabbcc000120"/>
      <field name="eth.lg" showname=".... ..1. .... .... .... .... = LG bit: Locally administered address (this is NOT the factory default)" size="3" pos="6" show="1" value="1" unmaskedvalue="aabbcc"/>
      <field name="eth.ig" showname=".... ...0 .... .... .... .... = IG bit: Individual address (unicast)" size="3" pos="6" show="0" value="0" unmaskedvalue="aabbcc"/>
    </field>
    <field name="eth.type" showname="Type: MPLS label switched packet (0x8847)" size="2" pos="12" show="0x00008847" value="8847"/>
  </proto>
  <proto name="mpls" showname="MultiProtocol Label Switching Header, Label: 404, Exp: 0, S: 1, TTL: 254" size="4" pos="14">
    <field name="mpls.label" showname="0000 0000 0001 1001 0100 .... .... .... = MPLS Label: 404" size="4" pos="14" show="404" value="194" unmaskedvalue="001941fe"/>
    <field name="mpls.exp" showname=".... .... .... .... .... 000. .... .... = MPLS Experimental Bits: 0" size="4" pos="14" show="0" value="0" unmaskedvalue="001941fe"/>
    <field name="mpls.bottom" showname=".... .... .... .... .... ...1 .... .... = MPLS Bottom Of Label Stack: 1" size="4" pos="14" show="1" value="1" unmaskedvalue="001941fe"/>
    <field name="mpls.ttl" showname=".... .... .... .... .... .... 1111 1110 = MPLS TTL: 254" size="4" pos="14" show="254" value="FE" unmaskedvalue="001941fe"/>
  </proto>
  <proto name="ip" showname="Internet Protocol Version 4, Src: 1.1.1.1, Dst: 2.2.2.2" size="20" pos="18">
    <field name="ip.version" showname="0100 .... = Version: 4" size="1" pos="18" show="4" value="4" unmaskedvalue="45"/>
    <field name="ip.hdr_len" showname=".... 0101 = Header Length: 20 bytes (5)" size="1" pos="18" show="20" value="45"/>
    <field name="ip.dsfield" showname="Differentiated Services Field: 0x00 (DSCP: CS0, ECN: Not-ECT)" size="1" pos="19" show="0x00000000" value="00">
      <field name="ip.dsfield.dscp" showname="0000 00.. = Differentiated Services Codepoint: Default (0)" size="1" pos="19" show="0" value="0" unmaskedvalue="00"/>
      <field name="ip.dsfield.ecn" showname=".... ..00 = Explicit Congestion Notification: Not ECN-Capable Transport (0)" size="1" pos="19" show="0" value="0" unmaskedvalue="00"/>
    </field>
    <field name="ip.len" showname="Total Length: 100" size="2" pos="20" show="100" value="0064"/>
    <field name="ip.id" showname="Identification: 0x0002 (2)" size="2" pos="22" show="0x00000002" value="0002"/>
    <field name="ip.flags" showname="Flags: 0x00" size="1" pos="24" show="0x00000000" value="00">
      <field name="ip.flags.rb" showname="0... .... = Reserved bit: Not set" size="1" pos="24" show="0" value="00"/>
      <field name="ip.flags.df" showname=".0.. .... = Don&#x27;t fragment: Not set" size="1" pos="24" show="0" value="00"/>
      <field name="ip.flags.mf" showname="..0. .... = More fragments: Not set" size="1" pos="24" show="0" value="00"/>
    </field>
    <field name="ip.frag_offset" showname="Fragment offset: 0" size="2" pos="24" show="0" value="0000"/>
    <field name="ip.ttl" showname="Time to live: 255" size="1" pos="26" show="255" value="ff"/>
    <field name="ip.proto" showname="Protocol: ICMP (1)" size="1" pos="27" show="1" value="01"/>
    <field name="ip.checksum" showname="Header checksum: 0xb591 [validation disabled]" size="2" pos="28" show="0x0000b591" value="b591"/>
    <field name="ip.checksum.status" showname="Header checksum status: Unverified" size="0" pos="28" show="2"/>
    <field name="ip.src" showname="Source: 1.1.1.1" size="4" pos="30" show="1.1.1.1" value="01010101"/>
    <field name="ip.addr" showname="Source or Destination Address: 1.1.1.1" hide="yes" size="4" pos="30" show="1.1.1.1" value="01010101"/>
    <field name="ip.src_host" showname="Source Host: 1.1.1.1" hide="yes" size="4" pos="30" show="1.1.1.1" value="01010101"/>
    <field name="ip.host" showname="Source or Destination Host: 1.1.1.1" hide="yes" size="4" pos="30" show="1.1.1.1" value="01010101"/>
    <field name="ip.dst" showname="Destination: 2.2.2.2" size="4" pos="34" show="2.2.2.2" value="02020202"/>
    <field name="ip.addr" showname="Source or Destination Address: 2.2.2.2" hide="yes" size="4" pos="34" show="2.2.2.2" value="02020202"/>
    <field name="ip.dst_host" showname="Destination Host: 2.2.2.2" hide="yes" size="4" pos="34" show="2.2.2.2" value="02020202"/>
    <field name="ip.host" showname="Source or Destination Host: 2.2.2.2" hide="yes" size="4" pos="34" show="2.2.2.2" value="02020202"/>
    <field name="" show="Source GeoIP: Unknown" size="4" pos="30" value="01010101"/>
    <field name="" show="Destination GeoIP: Unknown" size="4" pos="34" value="02020202"/>
  </proto>
  <proto name="icmp" showname="Internet Control Message Protocol" size="80" pos="38">
    <field name="icmp.type" showname="Type: 8 (Echo (ping) request)" size="1" pos="38" show="8" value="08"/>
    <field name="icmp.code" showname="Code: 0" size="1" pos="39" show="0" value="00"/>
    <field name="icmp.checksum" showname="Checksum: 0x28bd [correct]" size="2" pos="40" show="0x000028bd" value="28bd"/>
    <field name="icmp.checksum.status" showname="Checksum Status: Good" size="0" pos="40" show="1"/>
    <field name="icmp.ident" showname="Identifier (BE): 0 (0x0000)" size="2" pos="42" show="0" value="0000"/>
    <field name="icmp.ident" showname="Identifier (LE): 0 (0x0000)" size="2" pos="42" show="0" value="0000"/>
    <field name="icmp.seq" showname="Sequence number (BE): 2 (0x0002)" size="2" pos="44" show="2" value="0002"/>
    <field name="icmp.seq_le" showname="Sequence number (LE): 512 (0x0200)" size="2" pos="44" show="512" value="0002"/>
    <field name="icmp.resp_in" showname="Response frame: 171" size="0" pos="38" show="171"/>
    <field name="data" value="000000000011557aabcdabcdabcdabcdabcdabcdabcdabcdabcdabcdabcdabcdabcdabcdabcdabcdabcdabcdabcdabcdabcdabcdabcdabcdabcdabcdabcdabcdabcdabcdabcdabcd">
      <field name="data.data" showname="Data: 000000000011557aabcdabcdabcdabcdabcdabcdabcdabcd..." size="72" pos="46" show="00:00:00:00:00:11:55:7a:ab:cd:ab:cd:ab:cd:ab:cd:ab:cd:ab:cd:ab:cd:ab:cd:ab:cd:ab:cd:ab:cd:ab:cd:ab:cd:ab:cd:ab:cd:ab:cd:ab:cd:ab:cd:ab:cd:ab:cd:ab:cd:ab:cd:ab:cd:ab:cd:ab:cd:ab:cd:ab:cd:ab:cd:ab:cd:ab:cd:ab:cd:ab:cd" value="000000000011557aabcdabcdabcdabcdabcdabcdabcdabcdabcdabcdabcdabcdabcdabcdabcdabcdabcdabcdabcdabcdabcdabcdabcdabcdabcdabcdabcdabcdabcdabcdabcdabcd"/>
      <field name="data.len" showname="Length: 72" size="0" pos="46" show="72"/>
    </field>
  </proto>
</packet>

<packet>
  <proto name="geninfo" pos="0" showname="General information" size="118">
    <field name="num" pos="0" show="171" showname="Number" value="ab" size="118"/>
    <field name="len" pos="0" show="118" showname="Frame Length" value="76" size="118"/>
    <field name="caplen" pos="0" show="118" showname="Captured Length" value="76" size="118"/>
    <field name="timestamp" pos="0" show="Feb  1, 2020 23:21:10.623064000 India Standard Time" showname="Captured Time" value="1580579470.623064000" size="118"/>
  </proto>
  <proto name="frame" showname="Frame 171: 118 bytes on wire (944 bits), 118 bytes captured (944 bits) on interface 0" size="118" pos="0">
    <field name="frame.interface_id" showname="Interface id: 0 (-)" size="0" pos="0" show="0"/>
    <field name="frame.encap_type" showname="Encapsulation type: Ethernet (1)" size="0" pos="0" show="1"/>
    <field name="frame.time" showname="Arrival Time: Feb  1, 2020 23:21:10.623064000 India Standard Time" size="0" pos="0" show="Feb  1, 2020 23:21:10.623064000 India Standard Time"/>
    <field name="frame.offset_shift" showname="Time shift for this packet: 0.000000000 seconds" size="0" pos="0" show="0.000000000"/>
    <field name="frame.time_epoch" showname="Epoch Time: 1580579470.623064000 seconds" size="0" pos="0" show="1580579470.623064000"/>
    <field name="frame.time_delta" showname="Time delta from previous captured frame: 0.001101000 seconds" size="0" pos="0" show="0.001101000"/>
    <field name="frame.time_delta_displayed" showname="Time delta from previous displayed frame: 0.001101000 seconds" size="0" pos="0" show="0.001101000"/>
    <field name="frame.time_relative" showname="Time since reference or first frame: 68.339402000 seconds" size="0" pos="0" show="68.339402000"/>
    <field name="frame.number" showname="Frame Number: 171" size="0" pos="0" show="171"/>
    <field name="frame.len" showname="Frame Length: 118 bytes (944 bits)" size="0" pos="0" show="118"/>
    <field name="frame.cap_len" showname="Capture Length: 118 bytes (944 bits)" size="0" pos="0" show="118"/>
    <field name="frame.marked" showname="Frame is marked: False" size="0" pos="0" show="0"/>
    <field name="frame.ignored" showname="Frame is ignored: False" size="0" pos="0" show="0"/>
    <field name="frame.protocols" showname="Protocols in frame: eth:ethertype:mpls:ip:icmp:data" size="0" pos="0" show="eth:ethertype:mpls:ip:icmp:data"/>
    <field name="frame.coloring_rule.name" showname="Coloring Rule Name: ICMP" size="0" pos="0" show="ICMP"/>
    <field name="frame.coloring_rule.string" showname="Coloring Rule String: icmp || icmpv6" size="0" pos="0" show="icmp || icmpv6"/>
  </proto>
  <proto name="eth" showname="Ethernet II, Src: aa:bb:cc:00:02:20 (aa:bb:cc:00:02:20), Dst: aa:bb:cc:00:01:20 (aa:bb:cc:00:01:20)" size="14" pos="0">
    <field name="eth.dst" showname="Destination: aa:bb:cc:00:01:20 (aa:bb:cc:00:01:20)" size="6" pos="0" show="aa:bb:cc:00:01:20" value="aabbcc000120">
      <field name="eth.dst_resolved" showname="Destination (resolved): aa:bb:cc:00:01:20" hide="yes" size="6" pos="0" show="aa:bb:cc:00:01:20" value="aabbcc000120"/>
      <field name="eth.addr" showname="Address: aa:bb:cc:00:01:20 (aa:bb:cc:00:01:20)" size="6" pos="0" show="aa:bb:cc:00:01:20" value="aabbcc000120"/>
      <field name="eth.addr_resolved" showname="Address (resolved): aa:bb:cc:00:01:20" hide="yes" size="6" pos="0" show="aa:bb:cc:00:01:20" value="aabbcc000120"/>
      <field name="eth.lg" showname=".... ..1. .... .... .... .... = LG bit: Locally administered address (this is NOT the factory default)" size="3" pos="0" show="1" value="1" unmaskedvalue="aabbcc"/>
      <field name="eth.ig" showname=".... ...0 .... .... .... .... = IG bit: Individual address (unicast)" size="3" pos="0" show="0" value="0" unmaskedvalue="aabbcc"/>
    </field>
    <field name="eth.src" showname="Source: aa:bb:cc:00:02:20 (aa:bb:cc:00:02:20)" size="6" pos="6" show="aa:bb:cc:00:02:20" value="aabbcc000220">
      <field name="eth.src_resolved" showname="Source (resolved): aa:bb:cc:00:02:20" hide="yes" size="6" pos="6" show="aa:bb:cc:00:02:20" value="aabbcc000220"/>
      <field name="eth.addr" showname="Address: aa:bb:cc:00:02:20 (aa:bb:cc:00:02:20)" size="6" pos="6" show="aa:bb:cc:00:02:20" value="aabbcc000220"/>
      <field name="eth.addr_resolved" showname="Address (resolved): aa:bb:cc:00:02:20" hide="yes" size="6" pos="6" show="aa:bb:cc:00:02:20" value="aabbcc000220"/>
      <field name="eth.lg" showname=".... ..1. .... .... .... .... = LG bit: Locally administered address (this is NOT the factory default)" size="3" pos="6" show="1" value="1" unmaskedvalue="aabbcc"/>
      <field name="eth.ig" showname=".... ...0 .... .... .... .... = IG bit: Individual address (unicast)" size="3" pos="6" show="0" value="0" unmaskedvalue="aabbcc"/>
    </field>
    <field name="eth.type" showname="Type: MPLS label switched packet (0x8847)" size="2" pos="12" show="0x00008847" value="8847"/>
  </proto>
  <proto name="mpls" showname="MultiProtocol Label Switching Header, Label: 307, Exp: 0, S: 1, TTL: 254" size="4" pos="14">
    <field name="mpls.label" showname="0000 0000 0001 0011 0011 .... .... .... = MPLS Label: 307" size="4" pos="14" show="307" value="133" unmaskedvalue="001331fe"/>
    <field name="mpls.exp" showname=".... .... .... .... .... 000. .... .... = MPLS Experimental Bits: 0" size="4" pos="14" show="0" value="0" unmaskedvalue="001331fe"/>
    <field name="mpls.bottom" showname=".... .... .... .... .... ...1 .... .... = MPLS Bottom Of Label Stack: 1" size="4" pos="14" show="1" value="1" unmaskedvalue="001331fe"/>
    <field name="mpls.ttl" showname=".... .... .... .... .... .... 1111 1110 = MPLS TTL: 254" size="4" pos="14" show="254" value="FE" unmaskedvalue="001331fe"/>
  </proto>
  <proto name="ip" showname="Internet Protocol Version 4, Src: 2.2.2.2, Dst: 1.1.1.1" size="20" pos="18">
    <field name="ip.version" showname="0100 .... = Version: 4" size="1" pos="18" show="4" value="4" unmaskedvalue="45"/>
    <field name="ip.hdr_len" showname=".... 0101 = Header Length: 20 bytes (5)" size="1" pos="18" show="20" value="45"/>
    <field name="ip.dsfield" showname="Differentiated Services Field: 0x00 (DSCP: CS0, ECN: Not-ECT)" size="1" pos="19" show="0x00000000" value="00">
      <field name="ip.dsfield.dscp" showname="0000 00.. = Differentiated Services Codepoint: Default (0)" size="1" pos="19" show="0" value="0" unmaskedvalue="00"/>
      <field name="ip.dsfield.ecn" showname=".... ..00 = Explicit Congestion Notification: Not ECN-Capable Transport (0)" size="1" pos="19" show="0" value="0" unmaskedvalue="00"/>
    </field>
    <field name="ip.len" showname="Total Length: 100" size="2" pos="20" show="100" value="0064"/>
    <field name="ip.id" showname="Identification: 0x0002 (2)" size="2" pos="22" show="0x00000002" value="0002"/>
    <field name="ip.flags" showname="Flags: 0x00" size="1" pos="24" show="0x00000000" value="00">
      <field name="ip.flags.rb" showname="0... .... = Reserved bit: Not set" size="1" pos="24" show="0" value="00"/>
      <field name="ip.flags.df" showname=".0.. .... = Don&#x27;t fragment: Not set" size="1" pos="24" show="0" value="00"/>
      <field name="ip.flags.mf" showname="..0. .... = More fragments: Not set" size="1" pos="24" show="0" value="00"/>
    </field>
    <field name="ip.frag_offset" showname="Fragment offset: 0" size="2" pos="24" show="0" value="0000"/>
    <field name="ip.ttl" showname="Time to live: 255" size="1" pos="26" show="255" value="ff"/>
    <field name="ip.proto" showname="Protocol: ICMP (1)" size="1" pos="27" show="1" value="01"/>
    <field name="ip.checksum" showname="Header checksum: 0xb591 [validation disabled]" size="2" pos="28" show="0x0000b591" value="b591"/>
    <field name="ip.checksum.status" showname="Header checksum status: Unverified" size="0" pos="28" show="2"/>
    <field name="ip.src" showname="Source: 2.2.2.2" size="4" pos="30" show="2.2.2.2" value="02020202"/>
    <field name="ip.addr" showname="Source or Destination Address: 2.2.2.2" hide="yes" size="4" pos="30" show="2.2.2.2" value="02020202"/>
    <field name="ip.src_host" showname="Source Host: 2.2.2.2" hide="yes" size="4" pos="30" show="2.2.2.2" value="02020202"/>
    <field name="ip.host" showname="Source or Destination Host: 2.2.2.2" hide="yes" size="4" pos="30" show="2.2.2.2" value="02020202"/>
    <field name="ip.dst" showname="Destination: 1.1.1.1" size="4" pos="34" show="1.1.1.1" value="01010101"/>
    <field name="ip.addr" showname="Source or Destination Address: 1.1.1.1" hide="yes" size="4" pos="34" show="1.1.1.1" value="01010101"/>
    <field name="ip.dst_host" showname="Destination Host: 1.1.1.1" hide="yes" size="4" pos="34" show="1.1.1.1" value="01010101"/>
    <field name="ip.host" showname="Source or Destination Host: 1.1.1.1" hide="yes" size="4" pos="34" show="1.1.1.1" value="01010101"/>
    <field name="" show="Source GeoIP: Unknown" size="4" pos="30" value="02020202"/>
    <field name="" show="Destination GeoIP: Unknown" size="4" pos="34" value="01010101"/>
  </proto>
  <proto name="icmp" showname="Internet Control Message Protocol" size="80" pos="38">
    <field name="icmp.type" showname="Type: 0 (Echo (ping) reply)" size="1" pos="38" show="0" value="00"/>
    <field name="icmp.code" showname="Code: 0" size="1" pos="39" show="0" value="00"/>
    <field name="icmp.checksum" showname="Checksum: 0x30bd [correct]" size="2" pos="40" show="0x000030bd" value="30bd"/>
    <field name="icmp.checksum.status" showname="Checksum Status: Good" size="0" pos="40" show="1"/>
    <field name="icmp.ident" showname="Identifier (BE): 0 (0x0000)" size="2" pos="42" show="0" value="0000"/>
    <field name="icmp.ident" showname="Identifier (LE): 0 (0x0000)" size="2" pos="42" show="0" value="0000"/>
    <field name="icmp.seq" showname="Sequence number (BE): 2 (0x0002)" size="2" pos="44" show="2" value="0002"/>
    <field name="icmp.seq_le" showname="Sequence number (LE): 512 (0x0200)" size="2" pos="44" show="512" value="0002"/>
    <field name="icmp.resp_to" showname="Request frame: 170" size="0" pos="38" show="170"/>
    <field name="icmp.resptime" showname="Response time: 1.101 ms" size="0" pos="38" show="1.101"/>
    <field name="data" value="000000000011557aabcdabcdabcdabcdabcdabcdabcdabcdabcdabcdabcdabcdabcdabcdabcdabcdabcdabcdabcdabcdabcdabcdabcdabcdabcdabcdabcdabcdabcdabcdabcdabcd">
      <field name="data.data" showname="Data: 000000000011557aabcdabcdabcdabcdabcdabcdabcdabcd..." size="72" pos="46" show="00:00:00:00:00:11:55:7a:ab:cd:ab:cd:ab:cd:ab:cd:ab:cd:ab:cd:ab:cd:ab:cd:ab:cd:ab:cd:ab:cd:ab:cd:ab:cd:ab:cd:ab:cd:ab:cd:ab:cd:ab:cd:ab:cd:ab:cd:ab:cd:ab:cd:ab:cd:ab:cd:ab:cd:ab:cd:ab:cd:ab:cd:ab:cd:ab:cd:ab:cd:ab:cd" value="000000000011557aabcdabcdabcdabcdabcdabcdabcdabcdabcdabcdabcdabcdabcdabcdabcdabcdabcdabcdabcdabcdabcdabcdabcdabcdabcdabcdabcdabcdabcdabcdabcdabcd"/>
      <field name="data.len" showname="Length: 72" size="0" pos="46" show="72"/>
    </field>
  </proto>
</packet>

<packet>
  <proto name="geninfo" pos="0" showname="General information" size="118">
    <field name="num" pos="0" show="172" showname="Number" value="ac" size="118"/>
    <field name="len" pos="0" show="118" showname="Frame Length" value="76" size="118"/>
    <field name="caplen" pos="0" show="118" showname="Captured Length" value="76" size="118"/>
    <field name="timestamp" pos="0" show="Feb  1, 2020 23:21:10.629635000 India Standard Time" showname="Captured Time" value="1580579470.629635000" size="118"/>
  </proto>
  <proto name="frame" showname="Frame 172: 118 bytes on wire (944 bits), 118 bytes captured (944 bits) on interface 0" size="118" pos="0">
    <field name="frame.interface_id" showname="Interface id: 0 (-)" size="0" pos="0" show="0"/>
    <field name="frame.encap_type" showname="Encapsulation type: Ethernet (1)" size="0" pos="0" show="1"/>
    <field name="frame.time" showname="Arrival Time: Feb  1, 2020 23:21:10.629635000 India Standard Time" size="0" pos="0" show="Feb  1, 2020 23:21:10.629635000 India Standard Time"/>
    <field name="frame.offset_shift" showname="Time shift for this packet: 0.000000000 seconds" size="0" pos="0" show="0.000000000"/>
    <field name="frame.time_epoch" showname="Epoch Time: 1580579470.629635000 seconds" size="0" pos="0" show="1580579470.629635000"/>
    <field name="frame.time_delta" showname="Time delta from previous captured frame: 0.006571000 seconds" size="0" pos="0" show="0.006571000"/>
    <field name="frame.time_delta_displayed" showname="Time delta from previous displayed frame: 0.006571000 seconds" size="0" pos="0" show="0.006571000"/>
    <field name="frame.time_relative" showname="Time since reference or first frame: 68.345973000 seconds" size="0" pos="0" show="68.345973000"/>
    <field name="frame.number" showname="Frame Number: 172" size="0" pos="0" show="172"/>
    <field name="frame.len" showname="Frame Length: 118 bytes (944 bits)" size="0" pos="0" show="118"/>
    <field name="frame.cap_len" showname="Capture Length: 118 bytes (944 bits)" size="0" pos="0" show="118"/>
    <field name="frame.marked" showname="Frame is marked: False" size="0" pos="0" show="0"/>
    <field name="frame.ignored" showname="Frame is ignored: False" size="0" pos="0" show="0"/>
    <field name="frame.protocols" showname="Protocols in frame: eth:ethertype:mpls:ip:icmp:data" size="0" pos="0" show="eth:ethertype:mpls:ip:icmp:data"/>
    <field name="frame.coloring_rule.name" showname="Coloring Rule Name: ICMP" size="0" pos="0" show="ICMP"/>
    <field name="frame.coloring_rule.string" showname="Coloring Rule String: icmp || icmpv6" size="0" pos="0" show="icmp || icmpv6"/>
  </proto>
  <proto name="eth" showname="Ethernet II, Src: aa:bb:cc:00:01:20 (aa:bb:cc:00:01:20), Dst: aa:bb:cc:00:02:20 (aa:bb:cc:00:02:20)" size="14" pos="0">
    <field name="eth.dst" showname="Destination: aa:bb:cc:00:02:20 (aa:bb:cc:00:02:20)" size="6" pos="0" show="aa:bb:cc:00:02:20" value="aabbcc000220">
      <field name="eth.dst_resolved" showname="Destination (resolved): aa:bb:cc:00:02:20" hide="yes" size="6" pos="0" show="aa:bb:cc:00:02:20" value="aabbcc000220"/>
      <field name="eth.addr" showname="Address: aa:bb:cc:00:02:20 (aa:bb:cc:00:02:20)" size="6" pos="0" show="aa:bb:cc:00:02:20" value="aabbcc000220"/>
      <field name="eth.addr_resolved" showname="Address (resolved): aa:bb:cc:00:02:20" hide="yes" size="6" pos="0" show="aa:bb:cc:00:02:20" value="aabbcc000220"/>
      <field name="eth.lg" showname=".... ..1. .... .... .... .... = LG bit: Locally administered address (this is NOT the factory default)" size="3" pos="0" show="1" value="1" unmaskedvalue="aabbcc"/>
      <field name="eth.ig" showname=".... ...0 .... .... .... .... = IG bit: Individual address (unicast)" size="3" pos="0" show="0" value="0" unmaskedvalue="aabbcc"/>
    </field>
    <field name="eth.src" showname="Source: aa:bb:cc:00:01:20 (aa:bb:cc:00:01:20)" size="6" pos="6" show="aa:bb:cc:00:01:20" value="aabbcc000120">
      <field name="eth.src_resolved" showname="Source (resolved): aa:bb:cc:00:01:20" hide="yes" size="6" pos="6" show="aa:bb:cc:00:01:20" value="aabbcc000120"/>
      <field name="eth.addr" showname="Address: aa:bb:cc:00:01:20 (aa:bb:cc:00:01:20)" size="6" pos="6" show="aa:bb:cc:00:01:20" value="aabbcc000120"/>
      <field name="eth.addr_resolved" showname="Address (resolved): aa:bb:cc:00:01:20" hide="yes" size="6" pos="6" show="aa:bb:cc:00:01:20" value="aabbcc000120"/>
      <field name="eth.lg" showname=".... ..1. .... .... .... .... = LG bit: Locally administered address (this is NOT the factory default)" size="3" pos="6" show="1" value="1" unmaskedvalue="aabbcc"/>
      <field name="eth.ig" showname=".... ...0 .... .... .... .... = IG bit: Individual address (unicast)" size="3" pos="6" show="0" value="0" unmaskedvalue="aabbcc"/>
    </field>
    <field name="eth.type" showname="Type: MPLS label switched packet (0x8847)" size="2" pos="12" show="0x00008847" value="8847"/>
  </proto>
  <proto name="mpls" showname="MultiProtocol Label Switching Header, Label: 404, Exp: 0, S: 1, TTL: 254" size="4" pos="14">
    <field name="mpls.label" showname="0000 0000 0001 1001 0100 .... .... .... = MPLS Label: 404" size="4" pos="14" show="404" value="194" unmaskedvalue="001941fe"/>
    <field name="mpls.exp" showname=".... .... .... .... .... 000. .... .... = MPLS Experimental Bits: 0" size="4" pos="14" show="0" value="0" unmaskedvalue="001941fe"/>
    <field name="mpls.bottom" showname=".... .... .... .... .... ...1 .... .... = MPLS Bottom Of Label Stack: 1" size="4" pos="14" show="1" value="1" unmaskedvalue="001941fe"/>
    <field name="mpls.ttl" showname=".... .... .... .... .... .... 1111 1110 = MPLS TTL: 254" size="4" pos="14" show="254" value="FE" unmaskedvalue="001941fe"/>
  </proto>
  <proto name="ip" showname="Internet Protocol Version 4, Src: 1.1.1.1, Dst: 2.2.2.2" size="20" pos="18">
    <field name="ip.version" showname="0100 .... = Version: 4" size="1" pos="18" show="4" value="4" unmaskedvalue="45"/>
    <field name="ip.hdr_len" showname=".... 0101 = Header Length: 20 bytes (5)" size="1" pos="18" show="20" value="45"/>
    <field name="ip.dsfield" showname="Differentiated Services Field: 0x00 (DSCP: CS0, ECN: Not-ECT)" size="1" pos="19" show="0x00000000" value="00">
      <field name="ip.dsfield.dscp" showname="0000 00.. = Differentiated Services Codepoint: Default (0)" size="1" pos="19" show="0" value="0" unmaskedvalue="00"/>
      <field name="ip.dsfield.ecn" showname=".... ..00 = Explicit Congestion Notification: Not ECN-Capable Transport (0)" size="1" pos="19" show="0" value="0" unmaskedvalue="00"/>
    </field>
    <field name="ip.len" showname="Total Length: 100" size="2" pos="20" show="100" value="0064"/>
    <field name="ip.id" showname="Identification: 0x0003 (3)" size="2" pos="22" show="0x00000003" value="0003"/>
    <field name="ip.flags" showname="Flags: 0x00" size="1" pos="24" show="0x00000000" value="00">
      <field name="ip.flags.rb" showname="0... .... = Reserved bit: Not set" size="1" pos="24" show="0" value="00"/>
      <field name="ip.flags.df" showname=".0.. .... = Don&#x27;t fragment: Not set" size="1" pos="24" show="0" value="00"/>
      <field name="ip.flags.mf" showname="..0. .... = More fragments: Not set" size="1" pos="24" show="0" value="00"/>
    </field>
    <field name="ip.frag_offset" showname="Fragment offset: 0" size="2" pos="24" show="0" value="0000"/>
    <field name="ip.ttl" showname="Time to live: 255" size="1" pos="26" show="255" value="ff"/>
    <field name="ip.proto" showname="Protocol: ICMP (1)" size="1" pos="27" show="1" value="01"/>
    <field name="ip.checksum" showname="Header checksum: 0xb590 [validation disabled]" size="2" pos="28" show="0x0000b590" value="b590"/>
    <field name="ip.checksum.status" showname="Header checksum status: Unverified" size="0" pos="28" show="2"/>
    <field name="ip.src" showname="Source: 1.1.1.1" size="4" pos="30" show="1.1.1.1" value="01010101"/>
    <field name="ip.addr" showname="Source or Destination Address: 1.1.1.1" hide="yes" size="4" pos="30" show="1.1.1.1" value="01010101"/>
    <field name="ip.src_host" showname="Source Host: 1.1.1.1" hide="yes" size="4" pos="30" show="1.1.1.1" value="01010101"/>
    <field name="ip.host" showname="Source or Destination Host: 1.1.1.1" hide="yes" size="4" pos="30" show="1.1.1.1" value="01010101"/>
    <field name="ip.dst" showname="Destination: 2.2.2.2" size="4" pos="34" show="2.2.2.2" value="02020202"/>
    <field name="ip.addr" showname="Source or Destination Address: 2.2.2.2" hide="yes" size="4" pos="34" show="2.2.2.2" value="02020202"/>
    <field name="ip.dst_host" showname="Destination Host: 2.2.2.2" hide="yes" size="4" pos="34" show="2.2.2.2" value="02020202"/>
    <field name="ip.host" showname="Source or Destination Host: 2.2.2.2" hide="yes" size="4" pos="34" show="2.2.2.2" value="02020202"/>
    <field name="" show="Source GeoIP: Unknown" size="4" pos="30" value="01010101"/>
    <field name="" show="Destination GeoIP: Unknown" size="4" pos="34" value="02020202"/>
  </proto>
  <proto name="icmp" showname="Internet Control Message Protocol" size="80" pos="38">
    <field name="icmp.type" showname="Type: 8 (Echo (ping) request)" size="1" pos="38" show="8" value="08"/>
    <field name="icmp.code" showname="Code: 0" size="1" pos="39" show="0" value="00"/>
    <field name="icmp.checksum" showname="Checksum: 0x28b8 [correct]" size="2" pos="40" show="0x000028b8" value="28b8"/>
    <field name="icmp.checksum.status" showname="Checksum Status: Good" size="0" pos="40" show="1"/>
    <field name="icmp.ident" showname="Identifier (BE): 0 (0x0000)" size="2" pos="42" show="0" value="0000"/>
    <field name="icmp.ident" showname="Identifier (LE): 0 (0x0000)" size="2" pos="42" show="0" value="0000"/>
    <field name="icmp.seq" showname="Sequence number (BE): 3 (0x0003)" size="2" pos="44" show="3" value="0003"/>
    <field name="icmp.seq_le" showname="Sequence number (LE): 768 (0x0300)" size="2" pos="44" show="768" value="0003"/>
    <field name="icmp.resp_in" showname="Response frame: 173" size="0" pos="38" show="173"/>
    <field name="data" value="000000000011557eabcdabcdabcdabcdabcdabcdabcdabcdabcdabcdabcdabcdabcdabcdabcdabcdabcdabcdabcdabcdabcdabcdabcdabcdabcdabcdabcdabcdabcdabcdabcdabcd">
      <field name="data.data" showname="Data: 000000000011557eabcdabcdabcdabcdabcdabcdabcdabcd..." size="72" pos="46" show="00:00:00:00:00:11:55:7e:ab:cd:ab:cd:ab:cd:ab:cd:ab:cd:ab:cd:ab:cd:ab:cd:ab:cd:ab:cd:ab:cd:ab:cd:ab:cd:ab:cd:ab:cd:ab:cd:ab:cd:ab:cd:ab:cd:ab:cd:ab:cd:ab:cd:ab:cd:ab:cd:ab:cd:ab:cd:ab:cd:ab:cd:ab:cd:ab:cd:ab:cd:ab:cd" value="000000000011557eabcdabcdabcdabcdabcdabcdabcdabcdabcdabcdabcdabcdabcdabcdabcdabcdabcdabcdabcdabcdabcdabcdabcdabcdabcdabcdabcdabcdabcdabcdabcdabcd"/>
      <field name="data.len" showname="Length: 72" size="0" pos="46" show="72"/>
    </field>
  </proto>
</packet>

<packet>
  <proto name="geninfo" pos="0" showname="General information" size="118">
    <field name="num" pos="0" show="173" showname="Number" value="ad" size="118"/>
    <field name="len" pos="0" show="118" showname="Frame Length" value="76" size="118"/>
    <field name="caplen" pos="0" show="118" showname="Captured Length" value="76" size="118"/>
    <field name="timestamp" pos="0" show="Feb  1, 2020 23:21:10.631726000 India Standard Time" showname="Captured Time" value="1580579470.631726000" size="118"/>
  </proto>
  <proto name="frame" showname="Frame 173: 118 bytes on wire (944 bits), 118 bytes captured (944 bits) on interface 0" size="118" pos="0">
    <field name="frame.interface_id" showname="Interface id: 0 (-)" size="0" pos="0" show="0"/>
    <field name="frame.encap_type" showname="Encapsulation type: Ethernet (1)" size="0" pos="0" show="1"/>
    <field name="frame.time" showname="Arrival Time: Feb  1, 2020 23:21:10.631726000 India Standard Time" size="0" pos="0" show="Feb  1, 2020 23:21:10.631726000 India Standard Time"/>
    <field name="frame.offset_shift" showname="Time shift for this packet: 0.000000000 seconds" size="0" pos="0" show="0.000000000"/>
    <field name="frame.time_epoch" showname="Epoch Time: 1580579470.631726000 seconds" size="0" pos="0" show="1580579470.631726000"/>
    <field name="frame.time_delta" showname="Time delta from previous captured frame: 0.002091000 seconds" size="0" pos="0" show="0.002091000"/>
    <field name="frame.time_delta_displayed" showname="Time delta from previous displayed frame: 0.002091000 seconds" size="0" pos="0" show="0.002091000"/>
    <field name="frame.time_relative" showname="Time since reference or first frame: 68.348064000 seconds" size="0" pos="0" show="68.348064000"/>
    <field name="frame.number" showname="Frame Number: 173" size="0" pos="0" show="173"/>
    <field name="frame.len" showname="Frame Length: 118 bytes (944 bits)" size="0" pos="0" show="118"/>
    <field name="frame.cap_len" showname="Capture Length: 118 bytes (944 bits)" size="0" pos="0" show="118"/>
    <field name="frame.marked" showname="Frame is marked: False" size="0" pos="0" show="0"/>
    <field name="frame.ignored" showname="Frame is ignored: False" size="0" pos="0" show="0"/>
    <field name="frame.protocols" showname="Protocols in frame: eth:ethertype:mpls:ip:icmp:data" size="0" pos="0" show="eth:ethertype:mpls:ip:icmp:data"/>
    <field name="frame.coloring_rule.name" showname="Coloring Rule Name: ICMP" size="0" pos="0" show="ICMP"/>
    <field name="frame.coloring_rule.string" showname="Coloring Rule String: icmp || icmpv6" size="0" pos="0" show="icmp || icmpv6"/>
  </proto>
  <proto name="eth" showname="Ethernet II, Src: aa:bb:cc:00:02:20 (aa:bb:cc:00:02:20), Dst: aa:bb:cc:00:01:20 (aa:bb:cc:00:01:20)" size="14" pos="0">
    <field name="eth.dst" showname="Destination: aa:bb:cc:00:01:20 (aa:bb:cc:00:01:20)" size="6" pos="0" show="aa:bb:cc:00:01:20" value="aabbcc000120">
      <field name="eth.dst_resolved" showname="Destination (resolved): aa:bb:cc:00:01:20" hide="yes" size="6" pos="0" show="aa:bb:cc:00:01:20" value="aabbcc000120"/>
      <field name="eth.addr" showname="Address: aa:bb:cc:00:01:20 (aa:bb:cc:00:01:20)" size="6" pos="0" show="aa:bb:cc:00:01:20" value="aabbcc000120"/>
      <field name="eth.addr_resolved" showname="Address (resolved): aa:bb:cc:00:01:20" hide="yes" size="6" pos="0" show="aa:bb:cc:00:01:20" value="aabbcc000120"/>
      <field name="eth.lg" showname=".... ..1. .... .... .... .... = LG bit: Locally administered address (this is NOT the factory default)" size="3" pos="0" show="1" value="1" unmaskedvalue="aabbcc"/>
      <field name="eth.ig" showname=".... ...0 .... .... .... .... = IG bit: Individual address (unicast)" size="3" pos="0" show="0" value="0" unmaskedvalue="aabbcc"/>
    </field>
    <field name="eth.src" showname="Source: aa:bb:cc:00:02:20 (aa:bb:cc:00:02:20)" size="6" pos="6" show="aa:bb:cc:00:02:20" value="aabbcc000220">
      <field name="eth.src_resolved" showname="Source (resolved): aa:bb:cc:00:02:20" hide="yes" size="6" pos="6" show="aa:bb:cc:00:02:20" value="aabbcc000220"/>
      <field name="eth.addr" showname="Address: aa:bb:cc:00:02:20 (aa:bb:cc:00:02:20)" size="6" pos="6" show="aa:bb:cc:00:02:20" value="aabbcc000220"/>
      <field name="eth.addr_resolved" showname="Address (resolved): aa:bb:cc:00:02:20" hide="yes" size="6" pos="6" show="aa:bb:cc:00:02:20" value="aabbcc000220"/>
      <field name="eth.lg" showname=".... ..1. .... .... .... .... = LG bit: Locally administered address (this is NOT the factory default)" size="3" pos="6" show="1" value="1" unmaskedvalue="aabbcc"/>
      <field name="eth.ig" showname=".... ...0 .... .... .... .... = IG bit: Individual address (unicast)" size="3" pos="6" show="0" value="0" unmaskedvalue="aabbcc"/>
    </field>
    <field name="eth.type" showname="Type: MPLS label switched packet (0x8847)" size="2" pos="12" show="0x00008847" value="8847"/>
  </proto>
  <proto name="mpls" showname="MultiProtocol Label Switching Header, Label: 307, Exp: 0, S: 1, TTL: 254" size="4" pos="14">
    <field name="mpls.label" showname="0000 0000 0001 0011 0011 .... .... .... = MPLS Label: 307" size="4" pos="14" show="307" value="133" unmaskedvalue="001331fe"/>
    <field name="mpls.exp" showname=".... .... .... .... .... 000. .... .... = MPLS Experimental Bits: 0" size="4" pos="14" show="0" value="0" unmaskedvalue="001331fe"/>
    <field name="mpls.bottom" showname=".... .... .... .... .... ...1 .... .... = MPLS Bottom Of Label Stack: 1" size="4" pos="14" show="1" value="1" unmaskedvalue="001331fe"/>
    <field name="mpls.ttl" showname=".... .... .... .... .... .... 1111 1110 = MPLS TTL: 254" size="4" pos="14" show="254" value="FE" unmaskedvalue="001331fe"/>
  </proto>
  <proto name="ip" showname="Internet Protocol Version 4, Src: 2.2.2.2, Dst: 1.1.1.1" size="20" pos="18">
    <field name="ip.version" showname="0100 .... = Version: 4" size="1" pos="18" show="4" value="4" unmaskedvalue="45"/>
    <field name="ip.hdr_len" showname=".... 0101 = Header Length: 20 bytes (5)" size="1" pos="18" show="20" value="45"/>
    <field name="ip.dsfield" showname="Differentiated Services Field: 0x00 (DSCP: CS0, ECN: Not-ECT)" size="1" pos="19" show="0x00000000" value="00">
      <field name="ip.dsfield.dscp" showname="0000 00.. = Differentiated Services Codepoint: Default (0)" size="1" pos="19" show="0" value="0" unmaskedvalue="00"/>
      <field name="ip.dsfield.ecn" showname=".... ..00 = Explicit Congestion Notification: Not ECN-Capable Transport (0)" size="1" pos="19" show="0" value="0" unmaskedvalue="00"/>
    </field>
    <field name="ip.len" showname="Total Length: 100" size="2" pos="20" show="100" value="0064"/>
    <field name="ip.id" showname="Identification: 0x0003 (3)" size="2" pos="22" show="0x00000003" value="0003"/>
    <field name="ip.flags" showname="Flags: 0x00" size="1" pos="24" show="0x00000000" value="00">
      <field name="ip.flags.rb" showname="0... .... = Reserved bit: Not set" size="1" pos="24" show="0" value="00"/>
      <field name="ip.flags.df" showname=".0.. .... = Don&#x27;t fragment: Not set" size="1" pos="24" show="0" value="00"/>
      <field name="ip.flags.mf" showname="..0. .... = More fragments: Not set" size="1" pos="24" show="0" value="00"/>
    </field>
    <field name="ip.frag_offset" showname="Fragment offset: 0" size="2" pos="24" show="0" value="0000"/>
    <field name="ip.ttl" showname="Time to live: 255" size="1" pos="26" show="255" value="ff"/>
    <field name="ip.proto" showname="Protocol: ICMP (1)" size="1" pos="27" show="1" value="01"/>
    <field name="ip.checksum" showname="Header checksum: 0xb590 [validation disabled]" size="2" pos="28" show="0x0000b590" value="b590"/>
    <field name="ip.checksum.status" showname="Header checksum status: Unverified" size="0" pos="28" show="2"/>
    <field name="ip.src" showname="Source: 2.2.2.2" size="4" pos="30" show="2.2.2.2" value="02020202"/>
    <field name="ip.addr" showname="Source or Destination Address: 2.2.2.2" hide="yes" size="4" pos="30" show="2.2.2.2" value="02020202"/>
    <field name="ip.src_host" showname="Source Host: 2.2.2.2" hide="yes" size="4" pos="30" show="2.2.2.2" value="02020202"/>
    <field name="ip.host" showname="Source or Destination Host: 2.2.2.2" hide="yes" size="4" pos="30" show="2.2.2.2" value="02020202"/>
    <field name="ip.dst" showname="Destination: 1.1.1.1" size="4" pos="34" show="1.1.1.1" value="01010101"/>
    <field name="ip.addr" showname="Source or Destination Address: 1.1.1.1" hide="yes" size="4" pos="34" show="1.1.1.1" value="01010101"/>
    <field name="ip.dst_host" showname="Destination Host: 1.1.1.1" hide="yes" size="4" pos="34" show="1.1.1.1" value="01010101"/>
    <field name="ip.host" showname="Source or Destination Host: 1.1.1.1" hide="yes" size="4" pos="34" show="1.1.1.1" value="01010101"/>
    <field name="" show="Source GeoIP: Unknown" size="4" pos="30" value="02020202"/>
    <field name="" show="Destination GeoIP: Unknown" size="4" pos="34" value="01010101"/>
  </proto>
  <proto name="icmp" showname="Internet Control Message Protocol" size="80" pos="38">
    <field name="icmp.type" showname="Type: 0 (Echo (ping) reply)" size="1" pos="38" show="0" value="00"/>
    <field name="icmp.code" showname="Code: 0" size="1" pos="39" show="0" value="00"/>
    <field name="icmp.checksum" showname="Checksum: 0x30b8 [correct]" size="2" pos="40" show="0x000030b8" value="30b8"/>
    <field name="icmp.checksum.status" showname="Checksum Status: Good" size="0" pos="40" show="1"/>
    <field name="icmp.ident" showname="Identifier (BE): 0 (0x0000)" size="2" pos="42" show="0" value="0000"/>
    <field name="icmp.ident" showname="Identifier (LE): 0 (0x0000)" size="2" pos="42" show="0" value="0000"/>
    <field name="icmp.seq" showname="Sequence number (BE): 3 (0x0003)" size="2" pos="44" show="3" value="0003"/>
    <field name="icmp.seq_le" showname="Sequence number (LE): 768 (0x0300)" size="2" pos="44" show="768" value="0003"/>
    <field name="icmp.resp_to" showname="Request frame: 172" size="0" pos="38" show="172"/>
    <field name="icmp.resptime" showname="Response time: 2.091 ms" size="0" pos="38" show="2.091"/>
    <field name="data" value="000000000011557eabcdabcdabcdabcdabcdabcdabcdabcdabcdabcdabcdabcdabcdabcdabcdabcdabcdabcdabcdabcdabcdabcdabcdabcdabcdabcdabcdabcdabcdabcdabcdabcd">
      <field name="data.data" showname="Data: 000000000011557eabcdabcdabcdabcdabcdabcdabcdabcd..." size="72" pos="46" show="00:00:00:00:00:11:55:7e:ab:cd:ab:cd:ab:cd:ab:cd:ab:cd:ab:cd:ab:cd:ab:cd:ab:cd:ab:cd:ab:cd:ab:cd:ab:cd:ab:cd:ab:cd:ab:cd:ab:cd:ab:cd:ab:cd:ab:cd:ab:cd:ab:cd:ab:cd:ab:cd:ab:cd:ab:cd:ab:cd:ab:cd:ab:cd:ab:cd:ab:cd:ab:cd" value="000000000011557eabcdabcdabcdabcdabcdabcdabcdabcdabcdabcdabcdabcdabcdabcdabcdabcdabcdabcdabcdabcdabcdabcdabcdabcdabcdabcdabcdabcdabcdabcdabcdabcd"/>
      <field name="data.len" showname="Length: 72" size="0" pos="46" show="72"/>
    </field>
  </proto>
</packet>

<packet>
  <proto name="geninfo" pos="0" showname="General information" size="118">
    <field name="num" pos="0" show="174" showname="Number" value="ae" size="118"/>
    <field name="len" pos="0" show="118" showname="Frame Length" value="76" size="118"/>
    <field name="caplen" pos="0" show="118" showname="Captured Length" value="76" size="118"/>
    <field name="timestamp" pos="0" show="Feb  1, 2020 23:21:10.639439000 India Standard Time" showname="Captured Time" value="1580579470.639439000" size="118"/>
  </proto>
  <proto name="frame" showname="Frame 174: 118 bytes on wire (944 bits), 118 bytes captured (944 bits) on interface 0" size="118" pos="0">
    <field name="frame.interface_id" showname="Interface id: 0 (-)" size="0" pos="0" show="0"/>
    <field name="frame.encap_type" showname="Encapsulation type: Ethernet (1)" size="0" pos="0" show="1"/>
    <field name="frame.time" showname="Arrival Time: Feb  1, 2020 23:21:10.639439000 India Standard Time" size="0" pos="0" show="Feb  1, 2020 23:21:10.639439000 India Standard Time"/>
    <field name="frame.offset_shift" showname="Time shift for this packet: 0.000000000 seconds" size="0" pos="0" show="0.000000000"/>
    <field name="frame.time_epoch" showname="Epoch Time: 1580579470.639439000 seconds" size="0" pos="0" show="1580579470.639439000"/>
    <field name="frame.time_delta" showname="Time delta from previous captured frame: 0.007713000 seconds" size="0" pos="0" show="0.007713000"/>
    <field name="frame.time_delta_displayed" showname="Time delta from previous displayed frame: 0.007713000 seconds" size="0" pos="0" show="0.007713000"/>
    <field name="frame.time_relative" showname="Time since reference or first frame: 68.355777000 seconds" size="0" pos="0" show="68.355777000"/>
    <field name="frame.number" showname="Frame Number: 174" size="0" pos="0" show="174"/>
    <field name="frame.len" showname="Frame Length: 118 bytes (944 bits)" size="0" pos="0" show="118"/>
    <field name="frame.cap_len" showname="Capture Length: 118 bytes (944 bits)" size="0" pos="0" show="118"/>
    <field name="frame.marked" showname="Frame is marked: False" size="0" pos="0" show="0"/>
    <field name="frame.ignored" showname="Frame is ignored: False" size="0" pos="0" show="0"/>
    <field name="frame.protocols" showname="Protocols in frame: eth:ethertype:mpls:ip:icmp:data" size="0" pos="0" show="eth:ethertype:mpls:ip:icmp:data"/>
    <field name="frame.coloring_rule.name" showname="Coloring Rule Name: ICMP" size="0" pos="0" show="ICMP"/>
    <field name="frame.coloring_rule.string" showname="Coloring Rule String: icmp || icmpv6" size="0" pos="0" show="icmp || icmpv6"/>
  </proto>
  <proto name="eth" showname="Ethernet II, Src: aa:bb:cc:00:01:20 (aa:bb:cc:00:01:20), Dst: aa:bb:cc:00:02:20 (aa:bb:cc:00:02:20)" size="14" pos="0">
    <field name="eth.dst" showname="Destination: aa:bb:cc:00:02:20 (aa:bb:cc:00:02:20)" size="6" pos="0" show="aa:bb:cc:00:02:20" value="aabbcc000220">
      <field name="eth.dst_resolved" showname="Destination (resolved): aa:bb:cc:00:02:20" hide="yes" size="6" pos="0" show="aa:bb:cc:00:02:20" value="aabbcc000220"/>
      <field name="eth.addr" showname="Address: aa:bb:cc:00:02:20 (aa:bb:cc:00:02:20)" size="6" pos="0" show="aa:bb:cc:00:02:20" value="aabbcc000220"/>
      <field name="eth.addr_resolved" showname="Address (resolved): aa:bb:cc:00:02:20" hide="yes" size="6" pos="0" show="aa:bb:cc:00:02:20" value="aabbcc000220"/>
      <field name="eth.lg" showname=".... ..1. .... .... .... .... = LG bit: Locally administered address (this is NOT the factory default)" size="3" pos="0" show="1" value="1" unmaskedvalue="aabbcc"/>
      <field name="eth.ig" showname=".... ...0 .... .... .... .... = IG bit: Individual address (unicast)" size="3" pos="0" show="0" value="0" unmaskedvalue="aabbcc"/>
    </field>
    <field name="eth.src" showname="Source: aa:bb:cc:00:01:20 (aa:bb:cc:00:01:20)" size="6" pos="6" show="aa:bb:cc:00:01:20" value="aabbcc000120">
      <field name="eth.src_resolved" showname="Source (resolved): aa:bb:cc:00:01:20" hide="yes" size="6" pos="6" show="aa:bb:cc:00:01:20" value="aabbcc000120"/>
      <field name="eth.addr" showname="Address: aa:bb:cc:00:01:20 (aa:bb:cc:00:01:20)" size="6" pos="6" show="aa:bb:cc:00:01:20" value="aabbcc000120"/>
      <field name="eth.addr_resolved" showname="Address (resolved): aa:bb:cc:00:01:20" hide="yes" size="6" pos="6" show="aa:bb:cc:00:01:20" value="aabbcc000120"/>
      <field name="eth.lg" showname=".... ..1. .... .... .... .... = LG bit: Locally administered address (this is NOT the factory default)" size="3" pos="6" show="1" value="1" unmaskedvalue="aabbcc"/>
      <field name="eth.ig" showname=".... ...0 .... .... .... .... = IG bit: Individual address (unicast)" size="3" pos="6" show="0" value="0" unmaskedvalue="aabbcc"/>
    </field>
    <field name="eth.type" showname="Type: MPLS label switched packet (0x8847)" size="2" pos="12" show="0x00008847" value="8847"/>
  </proto>
  <proto name="mpls" showname="MultiProtocol Label Switching Header, Label: 404, Exp: 0, S: 1, TTL: 254" size="4" pos="14">
    <field name="mpls.label" showname="0000 0000 0001 1001 0100 .... .... .... = MPLS Label: 404" size="4" pos="14" show="404" value="194" unmaskedvalue="001941fe"/>
    <field name="mpls.exp" showname=".... .... .... .... .... 000. .... .... = MPLS Experimental Bits: 0" size="4" pos="14" show="0" value="0" unmaskedvalue="001941fe"/>
    <field name="mpls.bottom" showname=".... .... .... .... .... ...1 .... .... = MPLS Bottom Of Label Stack: 1" size="4" pos="14" show="1" value="1" unmaskedvalue="001941fe"/>
    <field name="mpls.ttl" showname=".... .... .... .... .... .... 1111 1110 = MPLS TTL: 254" size="4" pos="14" show="254" value="FE" unmaskedvalue="001941fe"/>
  </proto>
  <proto name="ip" showname="Internet Protocol Version 4, Src: 1.1.1.1, Dst: 2.2.2.2" size="20" pos="18">
    <field name="ip.version" showname="0100 .... = Version: 4" size="1" pos="18" show="4" value="4" unmaskedvalue="45"/>
    <field name="ip.hdr_len" showname=".... 0101 = Header Length: 20 bytes (5)" size="1" pos="18" show="20" value="45"/>
    <field name="ip.dsfield" showname="Differentiated Services Field: 0x00 (DSCP: CS0, ECN: Not-ECT)" size="1" pos="19" show="0x00000000" value="00">
      <field name="ip.dsfield.dscp" showname="0000 00.. = Differentiated Services Codepoint: Default (0)" size="1" pos="19" show="0" value="0" unmaskedvalue="00"/>
      <field name="ip.dsfield.ecn" showname=".... ..00 = Explicit Congestion Notification: Not ECN-Capable Transport (0)" size="1" pos="19" show="0" value="0" unmaskedvalue="00"/>
    </field>
    <field name="ip.len" showname="Total Length: 100" size="2" pos="20" show="100" value="0064"/>
    <field name="ip.id" showname="Identification: 0x0004 (4)" size="2" pos="22" show="0x00000004" value="0004"/>
    <field name="ip.flags" showname="Flags: 0x00" size="1" pos="24" show="0x00000000" value="00">
      <field name="ip.flags.rb" showname="0... .... = Reserved bit: Not set" size="1" pos="24" show="0" value="00"/>
      <field name="ip.flags.df" showname=".0.. .... = Don&#x27;t fragment: Not set" size="1" pos="24" show="0" value="00"/>
      <field name="ip.flags.mf" showname="..0. .... = More fragments: Not set" size="1" pos="24" show="0" value="00"/>
    </field>
    <field name="ip.frag_offset" showname="Fragment offset: 0" size="2" pos="24" show="0" value="0000"/>
    <field name="ip.ttl" showname="Time to live: 255" size="1" pos="26" show="255" value="ff"/>
    <field name="ip.proto" showname="Protocol: ICMP (1)" size="1" pos="27" show="1" value="01"/>
    <field name="ip.checksum" showname="Header checksum: 0xb58f [validation disabled]" size="2" pos="28" show="0x0000b58f" value="b58f"/>
    <field name="ip.checksum.status" showname="Header checksum status: Unverified" size="0" pos="28" show="2"/>
    <field name="ip.src" showname="Source: 1.1.1.1" size="4" pos="30" show="1.1.1.1" value="01010101"/>
    <field name="ip.addr" showname="Source or Destination Address: 1.1.1.1" hide="yes" size="4" pos="30" show="1.1.1.1" value="01010101"/>
    <field name="ip.src_host" showname="Source Host: 1.1.1.1" hide="yes" size="4" pos="30" show="1.1.1.1" value="01010101"/>
    <field name="ip.host" showname="Source or Destination Host: 1.1.1.1" hide="yes" size="4" pos="30" show="1.1.1.1" value="01010101"/>
    <field name="ip.dst" showname="Destination: 2.2.2.2" size="4" pos="34" show="2.2.2.2" value="02020202"/>
    <field name="ip.addr" showname="Source or Destination Address: 2.2.2.2" hide="yes" size="4" pos="34" show="2.2.2.2" value="02020202"/>
    <field name="ip.dst_host" showname="Destination Host: 2.2.2.2" hide="yes" size="4" pos="34" show="2.2.2.2" value="02020202"/>
    <field name="ip.host" showname="Source or Destination Host: 2.2.2.2" hide="yes" size="4" pos="34" show="2.2.2.2" value="02020202"/>
    <field name="" show="Source GeoIP: Unknown" size="4" pos="30" value="01010101"/>
    <field name="" show="Destination GeoIP: Unknown" size="4" pos="34" value="02020202"/>
  </proto>
  <proto name="icmp" showname="Internet Control Message Protocol" size="80" pos="38">
    <field name="icmp.type" showname="Type: 8 (Echo (ping) request)" size="1" pos="38" show="8" value="08"/>
    <field name="icmp.code" showname="Code: 0" size="1" pos="39" show="0" value="00"/>
    <field name="icmp.checksum" showname="Checksum: 0x28af [correct]" size="2" pos="40" show="0x000028af" value="28af"/>
    <field name="icmp.checksum.status" showname="Checksum Status: Good" size="0" pos="40" show="1"/>
    <field name="icmp.ident" showname="Identifier (BE): 0 (0x0000)" size="2" pos="42" show="0" value="0000"/>
    <field name="icmp.ident" showname="Identifier (LE): 0 (0x0000)" size="2" pos="42" show="0" value="0000"/>
    <field name="icmp.seq" showname="Sequence number (BE): 4 (0x0004)" size="2" pos="44" show="4" value="0004"/>
    <field name="icmp.seq_le" showname="Sequence number (LE): 1024 (0x0400)" size="2" pos="44" show="1024" value="0004"/>
    <field name="icmp.resp_in" showname="Response frame: 175" size="0" pos="38" show="175"/>
    <field name="data" value="0000000000115586abcdabcdabcdabcdabcdabcdabcdabcdabcdabcdabcdabcdabcdabcdabcdabcdabcdabcdabcdabcdabcdabcdabcdabcdabcdabcdabcdabcdabcdabcdabcdabcd">
      <field name="data.data" showname="Data: 0000000000115586abcdabcdabcdabcdabcdabcdabcdabcd..." size="72" pos="46" show="00:00:00:00:00:11:55:86:ab:cd:ab:cd:ab:cd:ab:cd:ab:cd:ab:cd:ab:cd:ab:cd:ab:cd:ab:cd:ab:cd:ab:cd:ab:cd:ab:cd:ab:cd:ab:cd:ab:cd:ab:cd:ab:cd:ab:cd:ab:cd:ab:cd:ab:cd:ab:cd:ab:cd:ab:cd:ab:cd:ab:cd:ab:cd:ab:cd:ab:cd:ab:cd" value="0000000000115586abcdabcdabcdabcdabcdabcdabcdabcdabcdabcdabcdabcdabcdabcdabcdabcdabcdabcdabcdabcdabcdabcdabcdabcdabcdabcdabcdabcdabcdabcdabcdabcd"/>
      <field name="data.len" showname="Length: 72" size="0" pos="46" show="72"/>
    </field>
  </proto>
</packet>

<packet>
  <proto name="geninfo" pos="0" showname="General information" size="118">
    <field name="num" pos="0" show="175" showname="Number" value="af" size="118"/>
    <field name="len" pos="0" show="118" showname="Frame Length" value="76" size="118"/>
    <field name="caplen" pos="0" show="118" showname="Captured Length" value="76" size="118"/>
    <field name="timestamp" pos="0" show="Feb  1, 2020 23:21:10.644244000 India Standard Time" showname="Captured Time" value="1580579470.644244000" size="118"/>
  </proto>
  <proto name="frame" showname="Frame 175: 118 bytes on wire (944 bits), 118 bytes captured (944 bits) on interface 0" size="118" pos="0">
    <field name="frame.interface_id" showname="Interface id: 0 (-)" size="0" pos="0" show="0"/>
    <field name="frame.encap_type" showname="Encapsulation type: Ethernet (1)" size="0" pos="0" show="1"/>
    <field name="frame.time" showname="Arrival Time: Feb  1, 2020 23:21:10.644244000 India Standard Time" size="0" pos="0" show="Feb  1, 2020 23:21:10.644244000 India Standard Time"/>
    <field name="frame.offset_shift" showname="Time shift for this packet: 0.000000000 seconds" size="0" pos="0" show="0.000000000"/>
    <field name="frame.time_epoch" showname="Epoch Time: 1580579470.644244000 seconds" size="0" pos="0" show="1580579470.644244000"/>
    <field name="frame.time_delta" showname="Time delta from previous captured frame: 0.004805000 seconds" size="0" pos="0" show="0.004805000"/>
    <field name="frame.time_delta_displayed" showname="Time delta from previous displayed frame: 0.004805000 seconds" size="0" pos="0" show="0.004805000"/>
    <field name="frame.time_relative" showname="Time since reference or first frame: 68.360582000 seconds" size="0" pos="0" show="68.360582000"/>
    <field name="frame.number" showname="Frame Number: 175" size="0" pos="0" show="175"/>
    <field name="frame.len" showname="Frame Length: 118 bytes (944 bits)" size="0" pos="0" show="118"/>
    <field name="frame.cap_len" showname="Capture Length: 118 bytes (944 bits)" size="0" pos="0" show="118"/>
    <field name="frame.marked" showname="Frame is marked: False" size="0" pos="0" show="0"/>
    <field name="frame.ignored" showname="Frame is ignored: False" size="0" pos="0" show="0"/>
    <field name="frame.protocols" showname="Protocols in frame: eth:ethertype:mpls:ip:icmp:data" size="0" pos="0" show="eth:ethertype:mpls:ip:icmp:data"/>
    <field name="frame.coloring_rule.name" showname="Coloring Rule Name: ICMP" size="0" pos="0" show="ICMP"/>
    <field name="frame.coloring_rule.string" showname="Coloring Rule String: icmp || icmpv6" size="0" pos="0" show="icmp || icmpv6"/>
  </proto>
  <proto name="eth" showname="Ethernet II, Src: aa:bb:cc:00:02:20 (aa:bb:cc:00:02:20), Dst: aa:bb:cc:00:01:20 (aa:bb:cc:00:01:20)" size="14" pos="0">
    <field name="eth.dst" showname="Destination: aa:bb:cc:00:01:20 (aa:bb:cc:00:01:20)" size="6" pos="0" show="aa:bb:cc:00:01:20" value="aabbcc000120">
      <field name="eth.dst_resolved" showname="Destination (resolved): aa:bb:cc:00:01:20" hide="yes" size="6" pos="0" show="aa:bb:cc:00:01:20" value="aabbcc000120"/>
      <field name="eth.addr" showname="Address: aa:bb:cc:00:01:20 (aa:bb:cc:00:01:20)" size="6" pos="0" show="aa:bb:cc:00:01:20" value="aabbcc000120"/>
      <field name="eth.addr_resolved" showname="Address (resolved): aa:bb:cc:00:01:20" hide="yes" size="6" pos="0" show="aa:bb:cc:00:01:20" value="aabbcc000120"/>
      <field name="eth.lg" showname=".... ..1. .... .... .... .... = LG bit: Locally administered address (this is NOT the factory default)" size="3" pos="0" show="1" value="1" unmaskedvalue="aabbcc"/>
      <field name="eth.ig" showname=".... ...0 .... .... .... .... = IG bit: Individual address (unicast)" size="3" pos="0" show="0" value="0" unmaskedvalue="aabbcc"/>
    </field>
    <field name="eth.src" showname="Source: aa:bb:cc:00:02:20 (aa:bb:cc:00:02:20)" size="6" pos="6" show="aa:bb:cc:00:02:20" value="aabbcc000220">
      <field name="eth.src_resolved" showname="Source (resolved): aa:bb:cc:00:02:20" hide="yes" size="6" pos="6" show="aa:bb:cc:00:02:20" value="aabbcc000220"/>
      <field name="eth.addr" showname="Address: aa:bb:cc:00:02:20 (aa:bb:cc:00:02:20)" size="6" pos="6" show="aa:bb:cc:00:02:20" value="aabbcc000220"/>
      <field name="eth.addr_resolved" showname="Address (resolved): aa:bb:cc:00:02:20" hide="yes" size="6" pos="6" show="aa:bb:cc:00:02:20" value="aabbcc000220"/>
      <field name="eth.lg" showname=".... ..1. .... .... .... .... = LG bit: Locally administered address (this is NOT the factory default)" size="3" pos="6" show="1" value="1" unmaskedvalue="aabbcc"/>
      <field name="eth.ig" showname=".... ...0 .... .... .... .... = IG bit: Individual address (unicast)" size="3" pos="6" show="0" value="0" unmaskedvalue="aabbcc"/>
    </field>
    <field name="eth.type" showname="Type: MPLS label switched packet (0x8847)" size="2" pos="12" show="0x00008847" value="8847"/>
  </proto>
  <proto name="mpls" showname="MultiProtocol Label Switching Header, Label: 307, Exp: 0, S: 1, TTL: 254" size="4" pos="14">
    <field name="mpls.label" showname="0000 0000 0001 0011 0011 .... .... .... = MPLS Label: 307" size="4" pos="14" show="307" value="133" unmaskedvalue="001331fe"/>
    <field name="mpls.exp" showname=".... .... .... .... .... 000. .... .... = MPLS Experimental Bits: 0" size="4" pos="14" show="0" value="0" unmaskedvalue="001331fe"/>
    <field name="mpls.bottom" showname=".... .... .... .... .... ...1 .... .... = MPLS Bottom Of Label Stack: 1" size="4" pos="14" show="1" value="1" unmaskedvalue="001331fe"/>
    <field name="mpls.ttl" showname=".... .... .... .... .... .... 1111 1110 = MPLS TTL: 254" size="4" pos="14" show="254" value="FE" unmaskedvalue="001331fe"/>
  </proto>
  <proto name="ip" showname="Internet Protocol Version 4, Src: 2.2.2.2, Dst: 1.1.1.1" size="20" pos="18">
    <field name="ip.version" showname="0100 .... = Version: 4" size="1" pos="18" show="4" value="4" unmaskedvalue="45"/>
    <field name="ip.hdr_len" showname=".... 0101 = Header Length: 20 bytes (5)" size="1" pos="18" show="20" value="45"/>
    <field name="ip.dsfield" showname="Differentiated Services Field: 0x00 (DSCP: CS0, ECN: Not-ECT)" size="1" pos="19" show="0x00000000" value="00">
      <field name="ip.dsfield.dscp" showname="0000 00.. = Differentiated Services Codepoint: Default (0)" size="1" pos="19" show="0" value="0" unmaskedvalue="00"/>
      <field name="ip.dsfield.ecn" showname=".... ..00 = Explicit Congestion Notification: Not ECN-Capable Transport (0)" size="1" pos="19" show="0" value="0" unmaskedvalue="00"/>
    </field>
    <field name="ip.len" showname="Total Length: 100" size="2" pos="20" show="100" value="0064"/>
    <field name="ip.id" showname="Identification: 0x0004 (4)" size="2" pos="22" show="0x00000004" value="0004"/>
    <field name="ip.flags" showname="Flags: 0x00" size="1" pos="24" show="0x00000000" value="00">
      <field name="ip.flags.rb" showname="0... .... = Reserved bit: Not set" size="1" pos="24" show="0" value="00"/>
      <field name="ip.flags.df" showname=".0.. .... = Don&#x27;t fragment: Not set" size="1" pos="24" show="0" value="00"/>
      <field name="ip.flags.mf" showname="..0. .... = More fragments: Not set" size="1" pos="24" show="0" value="00"/>
    </field>
    <field name="ip.frag_offset" showname="Fragment offset: 0" size="2" pos="24" show="0" value="0000"/>
    <field name="ip.ttl" showname="Time to live: 255" size="1" pos="26" show="255" value="ff"/>
    <field name="ip.proto" showname="Protocol: ICMP (1)" size="1" pos="27" show="1" value="01"/>
    <field name="ip.checksum" showname="Header checksum: 0xb58f [validation disabled]" size="2" pos="28" show="0x0000b58f" value="b58f"/>
    <field name="ip.checksum.status" showname="Header checksum status: Unverified" size="0" pos="28" show="2"/>
    <field name="ip.src" showname="Source: 2.2.2.2" size="4" pos="30" show="2.2.2.2" value="02020202"/>
    <field name="ip.addr" showname="Source or Destination Address: 2.2.2.2" hide="yes" size="4" pos="30" show="2.2.2.2" value="02020202"/>
    <field name="ip.src_host" showname="Source Host: 2.2.2.2" hide="yes" size="4" pos="30" show="2.2.2.2" value="02020202"/>
    <field name="ip.host" showname="Source or Destination Host: 2.2.2.2" hide="yes" size="4" pos="30" show="2.2.2.2" value="02020202"/>
    <field name="ip.dst" showname="Destination: 1.1.1.1" size="4" pos="34" show="1.1.1.1" value="01010101"/>
    <field name="ip.addr" showname="Source or Destination Address: 1.1.1.1" hide="yes" size="4" pos="34" show="1.1.1.1" value="01010101"/>
    <field name="ip.dst_host" showname="Destination Host: 1.1.1.1" hide="yes" size="4" pos="34" show="1.1.1.1" value="01010101"/>
    <field name="ip.host" showname="Source or Destination Host: 1.1.1.1" hide="yes" size="4" pos="34" show="1.1.1.1" value="01010101"/>
    <field name="" show="Source GeoIP: Unknown" size="4" pos="30" value="02020202"/>
    <field name="" show="Destination GeoIP: Unknown" size="4" pos="34" value="01010101"/>
  </proto>
  <proto name="icmp" showname="Internet Control Message Protocol" size="80" pos="38">
    <field name="icmp.type" showname="Type: 0 (Echo (ping) reply)" size="1" pos="38" show="0" value="00"/>
    <field name="icmp.code" showname="Code: 0" size="1" pos="39" show="0" value="00"/>
    <field name="icmp.checksum" showname="Checksum: 0x30af [correct]" size="2" pos="40" show="0x000030af" value="30af"/>
    <field name="icmp.checksum.status" showname="Checksum Status: Good" size="0" pos="40" show="1"/>
    <field name="icmp.ident" showname="Identifier (BE): 0 (0x0000)" size="2" pos="42" show="0" value="0000"/>
    <field name="icmp.ident" showname="Identifier (LE): 0 (0x0000)" size="2" pos="42" show="0" value="0000"/>
    <field name="icmp.seq" showname="Sequence number (BE): 4 (0x0004)" size="2" pos="44" show="4" value="0004"/>
    <field name="icmp.seq_le" showname="Sequence number (LE): 1024 (0x0400)" size="2" pos="44" show="1024" value="0004"/>
    <field name="icmp.resp_to" showname="Request frame: 174" size="0" pos="38" show="174"/>
    <field name="icmp.resptime" showname="Response time: 4.805 ms" size="0" pos="38" show="4.805"/>
    <field name="data" value="0000000000115586abcdabcdabcdabcdabcdabcdabcdabcdabcdabcdabcdabcdabcdabcdabcdabcdabcdabcdabcdabcdabcdabcdabcdabcdabcdabcdabcdabcdabcdabcdabcdabcd">
      <field name="data.data" showname="Data: 0000000000115586abcdabcdabcdabcdabcdabcdabcdabcd..." size="72" pos="46" show="00:00:00:00:00:11:55:86:ab:cd:ab:cd:ab:cd:ab:cd:ab:cd:ab:cd:ab:cd:ab:cd:ab:cd:ab:cd:ab:cd:ab:cd:ab:cd:ab:cd:ab:cd:ab:cd:ab:cd:ab:cd:ab:cd:ab:cd:ab:cd:ab:cd:ab:cd:ab:cd:ab:cd:ab:cd:ab:cd:ab:cd:ab:cd:ab:cd:ab:cd:ab:cd" value="0000000000115586abcdabcdabcdabcdabcdabcdabcdabcdabcdabcdabcdabcdabcdabcdabcdabcdabcdabcdabcdabcdabcdabcdabcdabcdabcdabcdabcdabcdabcdabcdabcdabcd"/>
      <field name="data.len" showname="Length: 72" size="0" pos="46" show="72"/>
    </field>
  </proto>
</packet>

<packet>
  <proto name="geninfo" pos="0" showname="General information" size="140">
    <field name="num" pos="0" show="322" showname="Number" value="142" size="140"/>
    <field name="len" pos="0" show="140" showname="Frame Length" value="8c" size="140"/>
    <field name="caplen" pos="0" show="140" showname="Captured Length" value="8c" size="140"/>
    <field name="timestamp" pos="0" show="Feb  1, 2020 23:22:12.145460000 India Standard Time" showname="Captured Time" value="1580579532.145460000" size="140"/>
  </proto>
  <proto name="frame" showname="Frame 322: 140 bytes on wire (1120 bits), 140 bytes captured (1120 bits) on interface 0" size="140" pos="0">
    <field name="frame.interface_id" showname="Interface id: 0 (-)" size="0" pos="0" show="0"/>
    <field name="frame.encap_type" showname="Encapsulation type: Ethernet (1)" size="0" pos="0" show="1"/>
    <field name="frame.time" showname="Arrival Time: Feb  1, 2020 23:22:12.145460000 India Standard Time" size="0" pos="0" show="Feb  1, 2020 23:22:12.145460000 India Standard Time"/>
    <field name="frame.offset_shift" showname="Time shift for this packet: 0.000000000 seconds" size="0" pos="0" show="0.000000000"/>
    <field name="frame.time_epoch" showname="Epoch Time: 1580579532.145460000 seconds" size="0" pos="0" show="1580579532.145460000"/>
    <field name="frame.time_delta" showname="Time delta from previous captured frame: 1.337379000 seconds" size="0" pos="0" show="1.337379000"/>
    <field name="frame.time_delta_displayed" showname="Time delta from previous displayed frame: 61.501216000 seconds" size="0" pos="0" show="61.501216000"/>
    <field name="frame.time_relative" showname="Time since reference or first frame: 129.861798000 seconds" size="0" pos="0" show="129.861798000"/>
    <field name="frame.number" showname="Frame Number: 322" size="0" pos="0" show="322"/>
    <field name="frame.len" showname="Frame Length: 140 bytes (1120 bits)" size="0" pos="0" show="140"/>
    <field name="frame.cap_len" showname="Capture Length: 140 bytes (1120 bits)" size="0" pos="0" show="140"/>
    <field name="frame.marked" showname="Frame is marked: False" size="0" pos="0" show="0"/>
    <field name="frame.ignored" showname="Frame is ignored: False" size="0" pos="0" show="0"/>
    <field name="frame.protocols" showname="Protocols in frame: eth:ethertype:mpls:pwethheuristic:pwethcw:eth:ethertype:ip:icmp:data" size="0" pos="0" show="eth:ethertype:mpls:pwethheuristic:pwethcw:eth:ethertype:ip:icmp:data"/>
    <field name="frame.coloring_rule.name" showname="Coloring Rule Name: ICMP" size="0" pos="0" show="ICMP"/>
    <field name="frame.coloring_rule.string" showname="Coloring Rule String: icmp || icmpv6" size="0" pos="0" show="icmp || icmpv6"/>
  </proto>
  <proto name="eth" showname="Ethernet II, Src: aa:bb:cc:00:01:20 (aa:bb:cc:00:01:20), Dst: aa:bb:cc:00:02:20 (aa:bb:cc:00:02:20)" size="14" pos="0">
    <field name="eth.dst" showname="Destination: aa:bb:cc:00:02:20 (aa:bb:cc:00:02:20)" size="6" pos="0" show="aa:bb:cc:00:02:20" value="aabbcc000220">
      <field name="eth.dst_resolved" showname="Destination (resolved): aa:bb:cc:00:02:20" hide="yes" size="6" pos="0" show="aa:bb:cc:00:02:20" value="aabbcc000220"/>
      <field name="eth.addr" showname="Address: aa:bb:cc:00:02:20 (aa:bb:cc:00:02:20)" size="6" pos="0" show="aa:bb:cc:00:02:20" value="aabbcc000220"/>
      <field name="eth.addr_resolved" showname="Address (resolved): aa:bb:cc:00:02:20" hide="yes" size="6" pos="0" show="aa:bb:cc:00:02:20" value="aabbcc000220"/>
      <field name="eth.lg" showname=".... ..1. .... .... .... .... = LG bit: Locally administered address (this is NOT the factory default)" size="3" pos="0" show="1" value="1" unmaskedvalue="aabbcc"/>
      <field name="eth.ig" showname=".... ...0 .... .... .... .... = IG bit: Individual address (unicast)" size="3" pos="0" show="0" value="0" unmaskedvalue="aabbcc"/>
    </field>
    <field name="eth.src" showname="Source: aa:bb:cc:00:01:20 (aa:bb:cc:00:01:20)" size="6" pos="6" show="aa:bb:cc:00:01:20" value="aabbcc000120">
      <field name="eth.src_resolved" showname="Source (resolved): aa:bb:cc:00:01:20" hide="yes" size="6" pos="6" show="aa:bb:cc:00:01:20" value="aabbcc000120"/>
      <field name="eth.addr" showname="Address: aa:bb:cc:00:01:20 (aa:bb:cc:00:01:20)" size="6" pos="6" show="aa:bb:cc:00:01:20" value="aabbcc000120"/>
      <field name="eth.addr_resolved" showname="Address (resolved): aa:bb:cc:00:01:20" hide="yes" size="6" pos="6" show="aa:bb:cc:00:01:20" value="aabbcc000120"/>
      <field name="eth.lg" showname=".... ..1. .... .... .... .... = LG bit: Locally administered address (this is NOT the factory default)" size="3" pos="6" show="1" value="1" unmaskedvalue="aabbcc"/>
      <field name="eth.ig" showname=".... ...0 .... .... .... .... = IG bit: Individual address (unicast)" size="3" pos="6" show="0" value="0" unmaskedvalue="aabbcc"/>
    </field>
    <field name="eth.type" showname="Type: MPLS label switched packet (0x8847)" size="2" pos="12" show="0x00008847" value="8847"/>
  </proto>
  <proto name="mpls" showname="MultiProtocol Label Switching Header, Label: 404, Exp: 0, S: 0, TTL: 254" size="4" pos="14">
    <field name="mpls.label" showname="0000 0000 0001 1001 0100 .... .... .... = MPLS Label: 404" size="4" pos="14" show="404" value="194" unmaskedvalue="001940fe"/>
    <field name="mpls.exp" showname=".... .... .... .... .... 000. .... .... = MPLS Experimental Bits: 0" size="4" pos="14" show="0" value="0" unmaskedvalue="001940fe"/>
    <field name="mpls.bottom" showname=".... .... .... .... .... ...0 .... .... = MPLS Bottom Of Label Stack: 0" size="4" pos="14" show="0" value="0" unmaskedvalue="001940fe"/>
    <field name="mpls.ttl" showname=".... .... .... .... .... .... 1111 1110 = MPLS TTL: 254" size="4" pos="14" show="254" value="FE" unmaskedvalue="001940fe"/>
  </proto>
  <proto name="mpls" showname="MultiProtocol Label Switching Header, Label: 201, Exp: 0, S: 1, TTL: 255" size="4" pos="18">
    <field name="mpls.label" showname="0000 0000 0000 1100 1001 .... .... .... = MPLS Label: 201" size="4" pos="18" show="201" value="C9" unmaskedvalue="000c91ff"/>
    <field name="mpls.exp" showname=".... .... .... .... .... 000. .... .... = MPLS Experimental Bits: 0" size="4" pos="18" show="0" value="0" unmaskedvalue="000c91ff"/>
    <field name="mpls.bottom" showname=".... .... .... .... .... ...1 .... .... = MPLS Bottom Of Label Stack: 1" size="4" pos="18" show="1" value="1" unmaskedvalue="000c91ff"/>
    <field name="mpls.ttl" showname=".... .... .... .... .... .... 1111 1111 = MPLS TTL: 255" size="4" pos="18" show="255" value="FF" unmaskedvalue="000c91ff"/>
  </proto>
  <proto name="fake-field-wrapper">
    <field name="pweth.cw" showname="PW Control Word (ethernet): True" hide="yes" size="0" pos="22" show="1"/>
</proto>
  <proto name="pwethcw" showname="PW Ethernet Control Word" size="4" pos="22">
    <field name="pweth.cw.sequence_number" showname="Sequence Number: 0" size="2" pos="24" show="0" value="0000"/>
  </proto>
  <proto name="eth" showname="Ethernet II, Src: aa:bb:cc:80:07:00 (aa:bb:cc:80:07:00), Dst: aa:bb:cc:80:09:00 (aa:bb:cc:80:09:00)" size="14" pos="26">
    <field name="eth.dst" showname="Destination: aa:bb:cc:80:09:00 (aa:bb:cc:80:09:00)" size="6" pos="26" show="aa:bb:cc:80:09:00" value="aabbcc800900">
      <field name="eth.dst_resolved" showname="Destination (resolved): aa:bb:cc:80:09:00" hide="yes" size="6" pos="26" show="aa:bb:cc:80:09:00" value="aabbcc800900"/>
      <field name="eth.addr" showname="Address: aa:bb:cc:80:09:00 (aa:bb:cc:80:09:00)" size="6" pos="26" show="aa:bb:cc:80:09:00" value="aabbcc800900"/>
      <field name="eth.addr_resolved" showname="Address (resolved): aa:bb:cc:80:09:00" hide="yes" size="6" pos="26" show="aa:bb:cc:80:09:00" value="aabbcc800900"/>
      <field name="eth.lg" showname=".... ..1. .... .... .... .... = LG bit: Locally administered address (this is NOT the factory default)" size="3" pos="26" show="1" value="1" unmaskedvalue="aabbcc"/>
      <field name="eth.ig" showname=".... ...0 .... .... .... .... = IG bit: Individual address (unicast)" size="3" pos="26" show="0" value="0" unmaskedvalue="aabbcc"/>
    </field>
    <field name="eth.src" showname="Source: aa:bb:cc:80:07:00 (aa:bb:cc:80:07:00)" size="6" pos="32" show="aa:bb:cc:80:07:00" value="aabbcc800700">
      <field name="eth.src_resolved" showname="Source (resolved): aa:bb:cc:80:07:00" hide="yes" size="6" pos="32" show="aa:bb:cc:80:07:00" value="aabbcc800700"/>
      <field name="eth.addr" showname="Address: aa:bb:cc:80:07:00 (aa:bb:cc:80:07:00)" size="6" pos="32" show="aa:bb:cc:80:07:00" value="aabbcc800700"/>
      <field name="eth.addr_resolved" showname="Address (resolved): aa:bb:cc:80:07:00" hide="yes" size="6" pos="32" show="aa:bb:cc:80:07:00" value="aabbcc800700"/>
      <field name="eth.lg" showname=".... ..1. .... .... .... .... = LG bit: Locally administered address (this is NOT the factory default)" size="3" pos="32" show="1" value="1" unmaskedvalue="aabbcc"/>
      <field name="eth.ig" showname=".... ...0 .... .... .... .... = IG bit: Individual address (unicast)" size="3" pos="32" show="0" value="0" unmaskedvalue="aabbcc"/>
    </field>
    <field name="eth.type" showname="Type: IPv4 (0x0800)" size="2" pos="38" show="0x00000800" value="0800"/>
  </proto>
  <proto name="ip" showname="Internet Protocol Version 4, Src: 192.168.0.1, Dst: 192.168.0.2" size="20" pos="40">
    <field name="ip.version" showname="0100 .... = Version: 4" size="1" pos="40" show="4" value="4" unmaskedvalue="45"/>
    <field name="ip.hdr_len" showname=".... 0101 = Header Length: 20 bytes (5)" size="1" pos="40" show="20" value="45"/>
    <field name="ip.dsfield" showname="Differentiated Services Field: 0x00 (DSCP: CS0, ECN: Not-ECT)" size="1" pos="41" show="0x00000000" value="00">
      <field name="ip.dsfield.dscp" showname="0000 00.. = Differentiated Services Codepoint: Default (0)" size="1" pos="41" show="0" value="0" unmaskedvalue="00"/>
      <field name="ip.dsfield.ecn" showname=".... ..00 = Explicit Congestion Notification: Not ECN-Capable Transport (0)" size="1" pos="41" show="0" value="0" unmaskedvalue="00"/>
    </field>
    <field name="ip.len" showname="Total Length: 100" size="2" pos="42" show="100" value="0064"/>
    <field name="ip.id" showname="Identification: 0x0001 (1)" size="2" pos="44" show="0x00000001" value="0001"/>
    <field name="ip.flags" showname="Flags: 0x00" size="1" pos="46" show="0x00000000" value="00">
      <field name="ip.flags.rb" showname="0... .... = Reserved bit: Not set" size="1" pos="46" show="0" value="00"/>
      <field name="ip.flags.df" showname=".0.. .... = Don&#x27;t fragment: Not set" size="1" pos="46" show="0" value="00"/>
      <field name="ip.flags.mf" showname="..0. .... = More fragments: Not set" size="1" pos="46" show="0" value="00"/>
    </field>
    <field name="ip.frag_offset" showname="Fragment offset: 0" size="2" pos="46" show="0" value="0000"/>
    <field name="ip.ttl" showname="Time to live: 255" size="1" pos="48" show="255" value="ff"/>
    <field name="ip.proto" showname="Protocol: ICMP (1)" size="1" pos="49" show="1" value="01"/>
    <field name="ip.checksum" showname="Header checksum: 0x3a44 [validation disabled]" size="2" pos="50" show="0x00003a44" value="3a44"/>
    <field name="ip.checksum.status" showname="Header checksum status: Unverified" size="0" pos="50" show="2"/>
    <field name="ip.src" showname="Source: 192.168.0.1" size="4" pos="52" show="192.168.0.1" value="c0a80001"/>
    <field name="ip.addr" showname="Source or Destination Address: 192.168.0.1" hide="yes" size="4" pos="52" show="192.168.0.1" value="c0a80001"/>
    <field name="ip.src_host" showname="Source Host: 192.168.0.1" hide="yes" size="4" pos="52" show="192.168.0.1" value="c0a80001"/>
    <field name="ip.host" showname="Source or Destination Host: 192.168.0.1" hide="yes" size="4" pos="52" show="192.168.0.1" value="c0a80001"/>
    <field name="ip.dst" showname="Destination: 192.168.0.2" size="4" pos="56" show="192.168.0.2" value="c0a80002"/>
    <field name="ip.addr" showname="Source or Destination Address: 192.168.0.2" hide="yes" size="4" pos="56" show="192.168.0.2" value="c0a80002"/>
    <field name="ip.dst_host" showname="Destination Host: 192.168.0.2" hide="yes" size="4" pos="56" show="192.168.0.2" value="c0a80002"/>
    <field name="ip.host" showname="Source or Destination Host: 192.168.0.2" hide="yes" size="4" pos="56" show="192.168.0.2" value="c0a80002"/>
    <field name="" show="Source GeoIP: Unknown" size="4" pos="52" value="c0a80001"/>
    <field name="" show="Destination GeoIP: Unknown" size="4" pos="56" value="c0a80002"/>
  </proto>
  <proto name="icmp" showname="Internet Control Message Protocol" size="80" pos="60">
    <field name="icmp.type" showname="Type: 8 (Echo (ping) request)" size="1" pos="60" show="8" value="08"/>
    <field name="icmp.code" showname="Code: 0" size="1" pos="61" show="0" value="00"/>
    <field name="icmp.checksum" showname="Checksum: 0x19e0 [correct]" size="2" pos="62" show="0x000019e0" value="19e0"/>
    <field name="icmp.checksum.status" showname="Checksum Status: Good" size="0" pos="62" show="1"/>
    <field name="icmp.ident" showname="Identifier (BE): 0 (0x0000)" size="2" pos="64" show="0" value="0000"/>
    <field name="icmp.ident" showname="Identifier (LE): 0 (0x0000)" size="2" pos="64" show="0" value="0000"/>
    <field name="icmp.seq" showname="Sequence number (BE): 1 (0x0001)" size="2" pos="66" show="1" value="0001"/>
    <field name="icmp.seq_le" showname="Sequence number (LE): 256 (0x0100)" size="2" pos="66" show="256" value="0001"/>
    <field name="icmp.resp_in" showname="Response frame: 323" size="0" pos="60" show="323"/>
    <field name="data" value="0000000000136456abcdabcdabcdabcdabcdabcdabcdabcdabcdabcdabcdabcdabcdabcdabcdabcdabcdabcdabcdabcdabcdabcdabcdabcdabcdabcdabcdabcdabcdabcdabcdabcd">
      <field name="data.data" showname="Data: 0000000000136456abcdabcdabcdabcdabcdabcdabcdabcd..." size="72" pos="68" show="00:00:00:00:00:13:64:56:ab:cd:ab:cd:ab:cd:ab:cd:ab:cd:ab:cd:ab:cd:ab:cd:ab:cd:ab:cd:ab:cd:ab:cd:ab:cd:ab:cd:ab:cd:ab:cd:ab:cd:ab:cd:ab:cd:ab:cd:ab:cd:ab:cd:ab:cd:ab:cd:ab:cd:ab:cd:ab:cd:ab:cd:ab:cd:ab:cd:ab:cd:ab:cd" value="0000000000136456abcdabcdabcdabcdabcdabcdabcdabcdabcdabcdabcdabcdabcdabcdabcdabcdabcdabcdabcdabcdabcdabcdabcdabcdabcdabcdabcdabcdabcdabcdabcdabcd"/>
      <field name="data.len" showname="Length: 72" size="0" pos="68" show="72"/>
    </field>
  </proto>
</packet>

<packet>
  <proto name="geninfo" pos="0" showname="General information" size="140">
    <field name="num" pos="0" show="323" showname="Number" value="143" size="140"/>
    <field name="len" pos="0" show="140" showname="Frame Length" value="8c" size="140"/>
    <field name="caplen" pos="0" show="140" showname="Captured Length" value="8c" size="140"/>
    <field name="timestamp" pos="0" show="Feb  1, 2020 23:22:12.147321000 India Standard Time" showname="Captured Time" value="1580579532.147321000" size="140"/>
  </proto>
  <proto name="frame" showname="Frame 323: 140 bytes on wire (1120 bits), 140 bytes captured (1120 bits) on interface 0" size="140" pos="0">
    <field name="frame.interface_id" showname="Interface id: 0 (-)" size="0" pos="0" show="0"/>
    <field name="frame.encap_type" showname="Encapsulation type: Ethernet (1)" size="0" pos="0" show="1"/>
    <field name="frame.time" showname="Arrival Time: Feb  1, 2020 23:22:12.147321000 India Standard Time" size="0" pos="0" show="Feb  1, 2020 23:22:12.147321000 India Standard Time"/>
    <field name="frame.offset_shift" showname="Time shift for this packet: 0.000000000 seconds" size="0" pos="0" show="0.000000000"/>
    <field name="frame.time_epoch" showname="Epoch Time: 1580579532.147321000 seconds" size="0" pos="0" show="1580579532.147321000"/>
    <field name="frame.time_delta" showname="Time delta from previous captured frame: 0.001861000 seconds" size="0" pos="0" show="0.001861000"/>
    <field name="frame.time_delta_displayed" showname="Time delta from previous displayed frame: 0.001861000 seconds" size="0" pos="0" show="0.001861000"/>
    <field name="frame.time_relative" showname="Time since reference or first frame: 129.863659000 seconds" size="0" pos="0" show="129.863659000"/>
    <field name="frame.number" showname="Frame Number: 323" size="0" pos="0" show="323"/>
    <field name="frame.len" showname="Frame Length: 140 bytes (1120 bits)" size="0" pos="0" show="140"/>
    <field name="frame.cap_len" showname="Capture Length: 140 bytes (1120 bits)" size="0" pos="0" show="140"/>
    <field name="frame.marked" showname="Frame is marked: False" size="0" pos="0" show="0"/>
    <field name="frame.ignored" showname="Frame is ignored: False" size="0" pos="0" show="0"/>
    <field name="frame.protocols" showname="Protocols in frame: eth:ethertype:mpls:pwethheuristic:pwethcw:eth:ethertype:ip:icmp:data" size="0" pos="0" show="eth:ethertype:mpls:pwethheuristic:pwethcw:eth:ethertype:ip:icmp:data"/>
    <field name="frame.coloring_rule.name" showname="Coloring Rule Name: ICMP" size="0" pos="0" show="ICMP"/>
    <field name="frame.coloring_rule.string" showname="Coloring Rule String: icmp || icmpv6" size="0" pos="0" show="icmp || icmpv6"/>
  </proto>
  <proto name="eth" showname="Ethernet II, Src: aa:bb:cc:00:02:20 (aa:bb:cc:00:02:20), Dst: aa:bb:cc:00:01:20 (aa:bb:cc:00:01:20)" size="14" pos="0">
    <field name="eth.dst" showname="Destination: aa:bb:cc:00:01:20 (aa:bb:cc:00:01:20)" size="6" pos="0" show="aa:bb:cc:00:01:20" value="aabbcc000120">
      <field name="eth.dst_resolved" showname="Destination (resolved): aa:bb:cc:00:01:20" hide="yes" size="6" pos="0" show="aa:bb:cc:00:01:20" value="aabbcc000120"/>
      <field name="eth.addr" showname="Address: aa:bb:cc:00:01:20 (aa:bb:cc:00:01:20)" size="6" pos="0" show="aa:bb:cc:00:01:20" value="aabbcc000120"/>
      <field name="eth.addr_resolved" showname="Address (resolved): aa:bb:cc:00:01:20" hide="yes" size="6" pos="0" show="aa:bb:cc:00:01:20" value="aabbcc000120"/>
      <field name="eth.lg" showname=".... ..1. .... .... .... .... = LG bit: Locally administered address (this is NOT the factory default)" size="3" pos="0" show="1" value="1" unmaskedvalue="aabbcc"/>
      <field name="eth.ig" showname=".... ...0 .... .... .... .... = IG bit: Individual address (unicast)" size="3" pos="0" show="0" value="0" unmaskedvalue="aabbcc"/>
    </field>
    <field name="eth.src" showname="Source: aa:bb:cc:00:02:20 (aa:bb:cc:00:02:20)" size="6" pos="6" show="aa:bb:cc:00:02:20" value="aabbcc000220">
      <field name="eth.src_resolved" showname="Source (resolved): aa:bb:cc:00:02:20" hide="yes" size="6" pos="6" show="aa:bb:cc:00:02:20" value="aabbcc000220"/>
      <field name="eth.addr" showname="Address: aa:bb:cc:00:02:20 (aa:bb:cc:00:02:20)" size="6" pos="6" show="aa:bb:cc:00:02:20" value="aabbcc000220"/>
      <field name="eth.addr_resolved" showname="Address (resolved): aa:bb:cc:00:02:20" hide="yes" size="6" pos="6" show="aa:bb:cc:00:02:20" value="aabbcc000220"/>
      <field name="eth.lg" showname=".... ..1. .... .... .... .... = LG bit: Locally administered address (this is NOT the factory default)" size="3" pos="6" show="1" value="1" unmaskedvalue="aabbcc"/>
      <field name="eth.ig" showname=".... ...0 .... .... .... .... = IG bit: Individual address (unicast)" size="3" pos="6" show="0" value="0" unmaskedvalue="aabbcc"/>
    </field>
    <field name="eth.type" showname="Type: MPLS label switched packet (0x8847)" size="2" pos="12" show="0x00008847" value="8847"/>
  </proto>
  <proto name="mpls" showname="MultiProtocol Label Switching Header, Label: 307, Exp: 0, S: 0, TTL: 254" size="4" pos="14">
    <field name="mpls.label" showname="0000 0000 0001 0011 0011 .... .... .... = MPLS Label: 307" size="4" pos="14" show="307" value="133" unmaskedvalue="001330fe"/>
    <field name="mpls.exp" showname=".... .... .... .... .... 000. .... .... = MPLS Experimental Bits: 0" size="4" pos="14" show="0" value="0" unmaskedvalue="001330fe"/>
    <field name="mpls.bottom" showname=".... .... .... .... .... ...0 .... .... = MPLS Bottom Of Label Stack: 0" size="4" pos="14" show="0" value="0" unmaskedvalue="001330fe"/>
    <field name="mpls.ttl" showname=".... .... .... .... .... .... 1111 1110 = MPLS TTL: 254" size="4" pos="14" show="254" value="FE" unmaskedvalue="001330fe"/>
  </proto>
  <proto name="mpls" showname="MultiProtocol Label Switching Header, Label: 100, Exp: 0, S: 1, TTL: 255" size="4" pos="18">
    <field name="mpls.label" showname="0000 0000 0000 0110 0100 .... .... .... = MPLS Label: 100" size="4" pos="18" show="100" value="64" unmaskedvalue="000641ff"/>
    <field name="mpls.exp" showname=".... .... .... .... .... 000. .... .... = MPLS Experimental Bits: 0" size="4" pos="18" show="0" value="0" unmaskedvalue="000641ff"/>
    <field name="mpls.bottom" showname=".... .... .... .... .... ...1 .... .... = MPLS Bottom Of Label Stack: 1" size="4" pos="18" show="1" value="1" unmaskedvalue="000641ff"/>
    <field name="mpls.ttl" showname=".... .... .... .... .... .... 1111 1111 = MPLS TTL: 255" size="4" pos="18" show="255" value="FF" unmaskedvalue="000641ff"/>
  </proto>
  <proto name="fake-field-wrapper">
    <field name="pweth.cw" showname="PW Control Word (ethernet): True" hide="yes" size="0" pos="22" show="1"/>
</proto>
  <proto name="pwethcw" showname="PW Ethernet Control Word" size="4" pos="22">
    <field name="pweth.cw.sequence_number" showname="Sequence Number: 0" size="2" pos="24" show="0" value="0000"/>
  </proto>
  <proto name="eth" showname="Ethernet II, Src: aa:bb:cc:80:09:00 (aa:bb:cc:80:09:00), Dst: aa:bb:cc:80:07:00 (aa:bb:cc:80:07:00)" size="14" pos="26">
    <field name="eth.dst" showname="Destination: aa:bb:cc:80:07:00 (aa:bb:cc:80:07:00)" size="6" pos="26" show="aa:bb:cc:80:07:00" value="aabbcc800700">
      <field name="eth.dst_resolved" showname="Destination (resolved): aa:bb:cc:80:07:00" hide="yes" size="6" pos="26" show="aa:bb:cc:80:07:00" value="aabbcc800700"/>
      <field name="eth.addr" showname="Address: aa:bb:cc:80:07:00 (aa:bb:cc:80:07:00)" size="6" pos="26" show="aa:bb:cc:80:07:00" value="aabbcc800700"/>
      <field name="eth.addr_resolved" showname="Address (resolved): aa:bb:cc:80:07:00" hide="yes" size="6" pos="26" show="aa:bb:cc:80:07:00" value="aabbcc800700"/>
      <field name="eth.lg" showname=".... ..1. .... .... .... .... = LG bit: Locally administered address (this is NOT the factory default)" size="3" pos="26" show="1" value="1" unmaskedvalue="aabbcc"/>
      <field name="eth.ig" showname=".... ...0 .... .... .... .... = IG bit: Individual address (unicast)" size="3" pos="26" show="0" value="0" unmaskedvalue="aabbcc"/>
    </field>
    <field name="eth.src" showname="Source: aa:bb:cc:80:09:00 (aa:bb:cc:80:09:00)" size="6" pos="32" show="aa:bb:cc:80:09:00" value="aabbcc800900">
      <field name="eth.src_resolved" showname="Source (resolved): aa:bb:cc:80:09:00" hide="yes" size="6" pos="32" show="aa:bb:cc:80:09:00" value="aabbcc800900"/>
      <field name="eth.addr" showname="Address: aa:bb:cc:80:09:00 (aa:bb:cc:80:09:00)" size="6" pos="32" show="aa:bb:cc:80:09:00" value="aabbcc800900"/>
      <field name="eth.addr_resolved" showname="Address (resolved): aa:bb:cc:80:09:00" hide="yes" size="6" pos="32" show="aa:bb:cc:80:09:00" value="aabbcc800900"/>
      <field name="eth.lg" showname=".... ..1. .... .... .... .... = LG bit: Locally administered address (this is NOT the factory default)" size="3" pos="32" show="1" value="1" unmaskedvalue="aabbcc"/>
      <field name="eth.ig" showname=".... ...0 .... .... .... .... = IG bit: Individual address (unicast)" size="3" pos="32" show="0" value="0" unmaskedvalue="aabbcc"/>
    </field>
    <field name="eth.type" showname="Type: IPv4 (0x0800)" size="2" pos="38" show="0x00000800" value="0800"/>
  </proto>
  <proto name="ip" showname="Internet Protocol Version 4, Src: 192.168.0.2, Dst: 192.168.0.1" size="20" pos="40">
    <field name="ip.version" showname="0100 .... = Version: 4" size="1" pos="40" show="4" value="4" unmaskedvalue="45"/>
    <field name="ip.hdr_len" showname=".... 0101 = Header Length: 20 bytes (5)" size="1" pos="40" show="20" value="45"/>
    <field name="ip.dsfield" showname="Differentiated Services Field: 0x00 (DSCP: CS0, ECN: Not-ECT)" size="1" pos="41" show="0x00000000" value="00">
      <field name="ip.dsfield.dscp" showname="0000 00.. = Differentiated Services Codepoint: Default (0)" size="1" pos="41" show="0" value="0" unmaskedvalue="00"/>
      <field name="ip.dsfield.ecn" showname=".... ..00 = Explicit Congestion Notification: Not ECN-Capable Transport (0)" size="1" pos="41" show="0" value="0" unmaskedvalue="00"/>
    </field>
    <field name="ip.len" showname="Total Length: 100" size="2" pos="42" show="100" value="0064"/>
    <field name="ip.id" showname="Identification: 0x0001 (1)" size="2" pos="44" show="0x00000001" value="0001"/>
    <field name="ip.flags" showname="Flags: 0x00" size="1" pos="46" show="0x00000000" value="00">
      <field name="ip.flags.rb" showname="0... .... = Reserved bit: Not set" size="1" pos="46" show="0" value="00"/>
      <field name="ip.flags.df" showname=".0.. .... = Don&#x27;t fragment: Not set" size="1" pos="46" show="0" value="00"/>
      <field name="ip.flags.mf" showname="..0. .... = More fragments: Not set" size="1" pos="46" show="0" value="00"/>
    </field>
    <field name="ip.frag_offset" showname="Fragment offset: 0" size="2" pos="46" show="0" value="0000"/>
    <field name="ip.ttl" showname="Time to live: 255" size="1" pos="48" show="255" value="ff"/>
    <field name="ip.proto" showname="Protocol: ICMP (1)" size="1" pos="49" show="1" value="01"/>
    <field name="ip.checksum" showname="Header checksum: 0x3a44 [validation disabled]" size="2" pos="50" show="0x00003a44" value="3a44"/>
    <field name="ip.checksum.status" showname="Header checksum status: Unverified" size="0" pos="50" show="2"/>
    <field name="ip.src" showname="Source: 192.168.0.2" size="4" pos="52" show="192.168.0.2" value="c0a80002"/>
    <field name="ip.addr" showname="Source or Destination Address: 192.168.0.2" hide="yes" size="4" pos="52" show="192.168.0.2" value="c0a80002"/>
    <field name="ip.src_host" showname="Source Host: 192.168.0.2" hide="yes" size="4" pos="52" show="192.168.0.2" value="c0a80002"/>
    <field name="ip.host" showname="Source or Destination Host: 192.168.0.2" hide="yes" size="4" pos="52" show="192.168.0.2" value="c0a80002"/>
    <field name="ip.dst" showname="Destination: 192.168.0.1" size="4" pos="56" show="192.168.0.1" value="c0a80001"/>
    <field name="ip.addr" showname="Source or Destination Address: 192.168.0.1" hide="yes" size="4" pos="56" show="192.168.0.1" value="c0a80001"/>
    <field name="ip.dst_host" showname="Destination Host: 192.168.0.1" hide="yes" size="4" pos="56" show="192.168.0.1" value="c0a80001"/>
    <field name="ip.host" showname="Source or Destination Host: 192.168.0.1" hide="yes" size="4" pos="56" show="192.168.0.1" value="c0a80001"/>
    <field name="" show="Source GeoIP: Unknown" size="4" pos="52" value="c0a80002"/>
    <field name="" show="Destination GeoIP: Unknown" size="4" pos="56" value="c0a80001"/>
  </proto>
  <proto name="icmp" showname="Internet Control Message Protocol" size="80" pos="60">
    <field name="icmp.type" showname="Type: 0 (Echo (ping) reply)" size="1" pos="60" show="0" value="00"/>
    <field name="icmp.code" showname="Code: 0" size="1" pos="61" show="0" value="00"/>
    <field name="icmp.checksum" showname="Checksum: 0x21e0 [correct]" size="2" pos="62" show="0x000021e0" value="21e0"/>
    <field name="icmp.checksum.status" showname="Checksum Status: Good" size="0" pos="62" show="1"/>
    <field name="icmp.ident" showname="Identifier (BE): 0 (0x0000)" size="2" pos="64" show="0" value="0000"/>
    <field name="icmp.ident" showname="Identifier (LE): 0 (0x0000)" size="2" pos="64" show="0" value="0000"/>
    <field name="icmp.seq" showname="Sequence number (BE): 1 (0x0001)" size="2" pos="66" show="1" value="0001"/>
    <field name="icmp.seq_le" showname="Sequence number (LE): 256 (0x0100)" size="2" pos="66" show="256" value="0001"/>
    <field name="icmp.resp_to" showname="Request frame: 322" size="0" pos="60" show="322"/>
    <field name="icmp.resptime" showname="Response time: 1.861 ms" size="0" pos="60" show="1.861"/>
    <field name="data" value="0000000000136456abcdabcdabcdabcdabcdabcdabcdabcdabcdabcdabcdabcdabcdabcdabcdabcdabcdabcdabcdabcdabcdabcdabcdabcdabcdabcdabcdabcdabcdabcdabcdabcd">
      <field name="data.data" showname="Data: 0000000000136456abcdabcdabcdabcdabcdabcdabcdabcd..." size="72" pos="68" show="00:00:00:00:00:13:64:56:ab:cd:ab:cd:ab:cd:ab:cd:ab:cd:ab:cd:ab:cd:ab:cd:ab:cd:ab:cd:ab:cd:ab:cd:ab:cd:ab:cd:ab:cd:ab:cd:ab:cd:ab:cd:ab:cd:ab:cd:ab:cd:ab:cd:ab:cd:ab:cd:ab:cd:ab:cd:ab:cd:ab:cd:ab:cd:ab:cd:ab:cd:ab:cd" value="0000000000136456abcdabcdabcdabcdabcdabcdabcdabcdabcdabcdabcdabcdabcdabcdabcdabcdabcdabcdabcdabcdabcdabcdabcdabcdabcdabcdabcdabcdabcdabcdabcdabcd"/>
      <field name="data.len" showname="Length: 72" size="0" pos="68" show="72"/>
    </field>
  </proto>
</packet>

<packet>
  <proto name="geninfo" pos="0" showname="General information" size="140">
    <field name="num" pos="0" show="324" showname="Number" value="144" size="140"/>
    <field name="len" pos="0" show="140" showname="Frame Length" value="8c" size="140"/>
    <field name="caplen" pos="0" show="140" showname="Captured Length" value="8c" size="140"/>
    <field name="timestamp" pos="0" show="Feb  1, 2020 23:22:12.153106000 India Standard Time" showname="Captured Time" value="1580579532.153106000" size="140"/>
  </proto>
  <proto name="frame" showname="Frame 324: 140 bytes on wire (1120 bits), 140 bytes captured (1120 bits) on interface 0" size="140" pos="0">
    <field name="frame.interface_id" showname="Interface id: 0 (-)" size="0" pos="0" show="0"/>
    <field name="frame.encap_type" showname="Encapsulation type: Ethernet (1)" size="0" pos="0" show="1"/>
    <field name="frame.time" showname="Arrival Time: Feb  1, 2020 23:22:12.153106000 India Standard Time" size="0" pos="0" show="Feb  1, 2020 23:22:12.153106000 India Standard Time"/>
    <field name="frame.offset_shift" showname="Time shift for this packet: 0.000000000 seconds" size="0" pos="0" show="0.000000000"/>
    <field name="frame.time_epoch" showname="Epoch Time: 1580579532.153106000 seconds" size="0" pos="0" show="1580579532.153106000"/>
    <field name="frame.time_delta" showname="Time delta from previous captured frame: 0.005785000 seconds" size="0" pos="0" show="0.005785000"/>
    <field name="frame.time_delta_displayed" showname="Time delta from previous displayed frame: 0.005785000 seconds" size="0" pos="0" show="0.005785000"/>
    <field name="frame.time_relative" showname="Time since reference or first frame: 129.869444000 seconds" size="0" pos="0" show="129.869444000"/>
    <field name="frame.number" showname="Frame Number: 324" size="0" pos="0" show="324"/>
    <field name="frame.len" showname="Frame Length: 140 bytes (1120 bits)" size="0" pos="0" show="140"/>
    <field name="frame.cap_len" showname="Capture Length: 140 bytes (1120 bits)" size="0" pos="0" show="140"/>
    <field name="frame.marked" showname="Frame is marked: False" size="0" pos="0" show="0"/>
    <field name="frame.ignored" showname="Frame is ignored: False" size="0" pos="0" show="0"/>
    <field name="frame.protocols" showname="Protocols in frame: eth:ethertype:mpls:pwethheuristic:pwethcw:eth:ethertype:ip:icmp:data" size="0" pos="0" show="eth:ethertype:mpls:pwethheuristic:pwethcw:eth:ethertype:ip:icmp:data"/>
    <field name="frame.coloring_rule.name" showname="Coloring Rule Name: ICMP" size="0" pos="0" show="ICMP"/>
    <field name="frame.coloring_rule.string" showname="Coloring Rule String: icmp || icmpv6" size="0" pos="0" show="icmp || icmpv6"/>
  </proto>
  <proto name="eth" showname="Ethernet II, Src: aa:bb:cc:00:01:20 (aa:bb:cc:00:01:20), Dst: aa:bb:cc:00:02:20 (aa:bb:cc:00:02:20)" size="14" pos="0">
    <field name="eth.dst" showname="Destination: aa:bb:cc:00:02:20 (aa:bb:cc:00:02:20)" size="6" pos="0" show="aa:bb:cc:00:02:20" value="aabbcc000220">
      <field name="eth.dst_resolved" showname="Destination (resolved): aa:bb:cc:00:02:20" hide="yes" size="6" pos="0" show="aa:bb:cc:00:02:20" value="aabbcc000220"/>
      <field name="eth.addr" showname="Address: aa:bb:cc:00:02:20 (aa:bb:cc:00:02:20)" size="6" pos="0" show="aa:bb:cc:00:02:20" value="aabbcc000220"/>
      <field name="eth.addr_resolved" showname="Address (resolved): aa:bb:cc:00:02:20" hide="yes" size="6" pos="0" show="aa:bb:cc:00:02:20" value="aabbcc000220"/>
      <field name="eth.lg" showname=".... ..1. .... .... .... .... = LG bit: Locally administered address (this is NOT the factory default)" size="3" pos="0" show="1" value="1" unmaskedvalue="aabbcc"/>
      <field name="eth.ig" showname=".... ...0 .... .... .... .... = IG bit: Individual address (unicast)" size="3" pos="0" show="0" value="0" unmaskedvalue="aabbcc"/>
    </field>
    <field name="eth.src" showname="Source: aa:bb:cc:00:01:20 (aa:bb:cc:00:01:20)" size="6" pos="6" show="aa:bb:cc:00:01:20" value="aabbcc000120">
      <field name="eth.src_resolved" showname="Source (resolved): aa:bb:cc:00:01:20" hide="yes" size="6" pos="6" show="aa:bb:cc:00:01:20" value="aabbcc000120"/>
      <field name="eth.addr" showname="Address: aa:bb:cc:00:01:20 (aa:bb:cc:00:01:20)" size="6" pos="6" show="aa:bb:cc:00:01:20" value="aabbcc000120"/>
      <field name="eth.addr_resolved" showname="Address (resolved): aa:bb:cc:00:01:20" hide="yes" size="6" pos="6" show="aa:bb:cc:00:01:20" value="aabbcc000120"/>
      <field name="eth.lg" showname=".... ..1. .... .... .... .... = LG bit: Locally administered address (this is NOT the factory default)" size="3" pos="6" show="1" value="1" unmaskedvalue="aabbcc"/>
      <field name="eth.ig" showname=".... ...0 .... .... .... .... = IG bit: Individual address (unicast)" size="3" pos="6" show="0" value="0" unmaskedvalue="aabbcc"/>
    </field>
    <field name="eth.type" showname="Type: MPLS label switched packet (0x8847)" size="2" pos="12" show="0x00008847" value="8847"/>
  </proto>
  <proto name="mpls" showname="MultiProtocol Label Switching Header, Label: 404, Exp: 0, S: 0, TTL: 254" size="4" pos="14">
    <field name="mpls.label" showname="0000 0000 0001 1001 0100 .... .... .... = MPLS Label: 404" size="4" pos="14" show="404" value="194" unmaskedvalue="001940fe"/>
    <field name="mpls.exp" showname=".... .... .... .... .... 000. .... .... = MPLS Experimental Bits: 0" size="4" pos="14" show="0" value="0" unmaskedvalue="001940fe"/>
    <field name="mpls.bottom" showname=".... .... .... .... .... ...0 .... .... = MPLS Bottom Of Label Stack: 0" size="4" pos="14" show="0" value="0" unmaskedvalue="001940fe"/>
    <field name="mpls.ttl" showname=".... .... .... .... .... .... 1111 1110 = MPLS TTL: 254" size="4" pos="14" show="254" value="FE" unmaskedvalue="001940fe"/>
  </proto>
  <proto name="mpls" showname="MultiProtocol Label Switching Header, Label: 201, Exp: 0, S: 1, TTL: 255" size="4" pos="18">
    <field name="mpls.label" showname="0000 0000 0000 1100 1001 .... .... .... = MPLS Label: 201" size="4" pos="18" show="201" value="C9" unmaskedvalue="000c91ff"/>
    <field name="mpls.exp" showname=".... .... .... .... .... 000. .... .... = MPLS Experimental Bits: 0" size="4" pos="18" show="0" value="0" unmaskedvalue="000c91ff"/>
    <field name="mpls.bottom" showname=".... .... .... .... .... ...1 .... .... = MPLS Bottom Of Label Stack: 1" size="4" pos="18" show="1" value="1" unmaskedvalue="000c91ff"/>
    <field name="mpls.ttl" showname=".... .... .... .... .... .... 1111 1111 = MPLS TTL: 255" size="4" pos="18" show="255" value="FF" unmaskedvalue="000c91ff"/>
  </proto>
  <proto name="fake-field-wrapper">
    <field name="pweth.cw" showname="PW Control Word (ethernet): True" hide="yes" size="0" pos="22" show="1"/>
</proto>
  <proto name="pwethcw" showname="PW Ethernet Control Word" size="4" pos="22">
    <field name="pweth.cw.sequence_number" showname="Sequence Number: 0" size="2" pos="24" show="0" value="0000"/>
  </proto>
  <proto name="eth" showname="Ethernet II, Src: aa:bb:cc:80:07:00 (aa:bb:cc:80:07:00), Dst: aa:bb:cc:80:09:00 (aa:bb:cc:80:09:00)" size="14" pos="26">
    <field name="eth.dst" showname="Destination: aa:bb:cc:80:09:00 (aa:bb:cc:80:09:00)" size="6" pos="26" show="aa:bb:cc:80:09:00" value="aabbcc800900">
      <field name="eth.dst_resolved" showname="Destination (resolved): aa:bb:cc:80:09:00" hide="yes" size="6" pos="26" show="aa:bb:cc:80:09:00" value="aabbcc800900"/>
      <field name="eth.addr" showname="Address: aa:bb:cc:80:09:00 (aa:bb:cc:80:09:00)" size="6" pos="26" show="aa:bb:cc:80:09:00" value="aabbcc800900"/>
      <field name="eth.addr_resolved" showname="Address (resolved): aa:bb:cc:80:09:00" hide="yes" size="6" pos="26" show="aa:bb:cc:80:09:00" value="aabbcc800900"/>
      <field name="eth.lg" showname=".... ..1. .... .... .... .... = LG bit: Locally administered address (this is NOT the factory default)" size="3" pos="26" show="1" value="1" unmaskedvalue="aabbcc"/>
      <field name="eth.ig" showname=".... ...0 .... .... .... .... = IG bit: Individual address (unicast)" size="3" pos="26" show="0" value="0" unmaskedvalue="aabbcc"/>
    </field>
    <field name="eth.src" showname="Source: aa:bb:cc:80:07:00 (aa:bb:cc:80:07:00)" size="6" pos="32" show="aa:bb:cc:80:07:00" value="aabbcc800700">
      <field name="eth.src_resolved" showname="Source (resolved): aa:bb:cc:80:07:00" hide="yes" size="6" pos="32" show="aa:bb:cc:80:07:00" value="aabbcc800700"/>
      <field name="eth.addr" showname="Address: aa:bb:cc:80:07:00 (aa:bb:cc:80:07:00)" size="6" pos="32" show="aa:bb:cc:80:07:00" value="aabbcc800700"/>
      <field name="eth.addr_resolved" showname="Address (resolved): aa:bb:cc:80:07:00" hide="yes" size="6" pos="32" show="aa:bb:cc:80:07:00" value="aabbcc800700"/>
      <field name="eth.lg" showname=".... ..1. .... .... .... .... = LG bit: Locally administered address (this is NOT the factory default)" size="3" pos="32" show="1" value="1" unmaskedvalue="aabbcc"/>
      <field name="eth.ig" showname=".... ...0 .... .... .... .... = IG bit: Individual address (unicast)" size="3" pos="32" show="0" value="0" unmaskedvalue="aabbcc"/>
    </field>
    <field name="eth.type" showname="Type: IPv4 (0x0800)" size="2" pos="38" show="0x00000800" value="0800"/>
  </proto>
  <proto name="ip" showname="Internet Protocol Version 4, Src: 192.168.0.1, Dst: 192.168.0.2" size="20" pos="40">
    <field name="ip.version" showname="0100 .... = Version: 4" size="1" pos="40" show="4" value="4" unmaskedvalue="45"/>
    <field name="ip.hdr_len" showname=".... 0101 = Header Length: 20 bytes (5)" size="1" pos="40" show="20" value="45"/>
    <field name="ip.dsfield" showname="Differentiated Services Field: 0x00 (DSCP: CS0, ECN: Not-ECT)" size="1" pos="41" show="0x00000000" value="00">
      <field name="ip.dsfield.dscp" showname="0000 00.. = Differentiated Services Codepoint: Default (0)" size="1" pos="41" show="0" value="0" unmaskedvalue="00"/>
      <field name="ip.dsfield.ecn" showname=".... ..00 = Explicit Congestion Notification: Not ECN-Capable Transport (0)" size="1" pos="41" show="0" value="0" unmaskedvalue="00"/>
    </field>
    <field name="ip.len" showname="Total Length: 100" size="2" pos="42" show="100" value="0064"/>
    <field name="ip.id" showname="Identification: 0x0002 (2)" size="2" pos="44" show="0x00000002" value="0002"/>
    <field name="ip.flags" showname="Flags: 0x00" size="1" pos="46" show="0x00000000" value="00">
      <field name="ip.flags.rb" showname="0... .... = Reserved bit: Not set" size="1" pos="46" show="0" value="00"/>
      <field name="ip.flags.df" showname=".0.. .... = Don&#x27;t fragment: Not set" size="1" pos="46" show="0" value="00"/>
      <field name="ip.flags.mf" showname="..0. .... = More fragments: Not set" size="1" pos="46" show="0" value="00"/>
    </field>
    <field name="ip.frag_offset" showname="Fragment offset: 0" size="2" pos="46" show="0" value="0000"/>
    <field name="ip.ttl" showname="Time to live: 255" size="1" pos="48" show="255" value="ff"/>
    <field name="ip.proto" showname="Protocol: ICMP (1)" size="1" pos="49" show="1" value="01"/>
    <field name="ip.checksum" showname="Header checksum: 0x3a43 [validation disabled]" size="2" pos="50" show="0x00003a43" value="3a43"/>
    <field name="ip.checksum.status" showname="Header checksum status: Unverified" size="0" pos="50" show="2"/>
    <field name="ip.src" showname="Source: 192.168.0.1" size="4" pos="52" show="192.168.0.1" value="c0a80001"/>
    <field name="ip.addr" showname="Source or Destination Address: 192.168.0.1" hide="yes" size="4" pos="52" show="192.168.0.1" value="c0a80001"/>
    <field name="ip.src_host" showname="Source Host: 192.168.0.1" hide="yes" size="4" pos="52" show="192.168.0.1" value="c0a80001"/>
    <field name="ip.host" showname="Source or Destination Host: 192.168.0.1" hide="yes" size="4" pos="52" show="192.168.0.1" value="c0a80001"/>
    <field name="ip.dst" showname="Destination: 192.168.0.2" size="4" pos="56" show="192.168.0.2" value="c0a80002"/>
    <field name="ip.addr" showname="Source or Destination Address: 192.168.0.2" hide="yes" size="4" pos="56" show="192.168.0.2" value="c0a80002"/>
    <field name="ip.dst_host" showname="Destination Host: 192.168.0.2" hide="yes" size="4" pos="56" show="192.168.0.2" value="c0a80002"/>
    <field name="ip.host" showname="Source or Destination Host: 192.168.0.2" hide="yes" size="4" pos="56" show="192.168.0.2" value="c0a80002"/>
    <field name="" show="Source GeoIP: Unknown" size="4" pos="52" value="c0a80001"/>
    <field name="" show="Destination GeoIP: Unknown" size="4" pos="56" value="c0a80002"/>
  </proto>
  <proto name="icmp" showname="Internet Control Message Protocol" size="80" pos="60">
    <field name="icmp.type" showname="Type: 8 (Echo (ping) request)" size="1" pos="60" show="8" value="08"/>
    <field name="icmp.code" showname="Code: 0" size="1" pos="61" show="0" value="00"/>
    <field name="icmp.checksum" showname="Checksum: 0x19d7 [correct]" size="2" pos="62" show="0x000019d7" value="19d7"/>
    <field name="icmp.checksum.status" showname="Checksum Status: Good" size="0" pos="62" show="1"/>
    <field name="icmp.ident" showname="Identifier (BE): 0 (0x0000)" size="2" pos="64" show="0" value="0000"/>
    <field name="icmp.ident" showname="Identifier (LE): 0 (0x0000)" size="2" pos="64" show="0" value="0000"/>
    <field name="icmp.seq" showname="Sequence number (BE): 2 (0x0002)" size="2" pos="66" show="2" value="0002"/>
    <field name="icmp.seq_le" showname="Sequence number (LE): 512 (0x0200)" size="2" pos="66" show="512" value="0002"/>
    <field name="icmp.resp_in" showname="Response frame: 325" size="0" pos="60" show="325"/>
    <field name="data" value="000000000013645eabcdabcdabcdabcdabcdabcdabcdabcdabcdabcdabcdabcdabcdabcdabcdabcdabcdabcdabcdabcdabcdabcdabcdabcdabcdabcdabcdabcdabcdabcdabcdabcd">
      <field name="data.data" showname="Data: 000000000013645eabcdabcdabcdabcdabcdabcdabcdabcd..." size="72" pos="68" show="00:00:00:00:00:13:64:5e:ab:cd:ab:cd:ab:cd:ab:cd:ab:cd:ab:cd:ab:cd:ab:cd:ab:cd:ab:cd:ab:cd:ab:cd:ab:cd:ab:cd:ab:cd:ab:cd:ab:cd:ab:cd:ab:cd:ab:cd:ab:cd:ab:cd:ab:cd:ab:cd:ab:cd:ab:cd:ab:cd:ab:cd:ab:cd:ab:cd:ab:cd:ab:cd" value="000000000013645eabcdabcdabcdabcdabcdabcdabcdabcdabcdabcdabcdabcdabcdabcdabcdabcdabcdabcdabcdabcdabcdabcdabcdabcdabcdabcdabcdabcdabcdabcdabcdabcd"/>
      <field name="data.len" showname="Length: 72" size="0" pos="68" show="72"/>
    </field>
  </proto>
</packet>

<packet>
  <proto name="geninfo" pos="0" showname="General information" size="140">
    <field name="num" pos="0" show="325" showname="Number" value="145" size="140"/>
    <field name="len" pos="0" show="140" showname="Frame Length" value="8c" size="140"/>
    <field name="caplen" pos="0" show="140" showname="Captured Length" value="8c" size="140"/>
    <field name="timestamp" pos="0" show="Feb  1, 2020 23:22:12.155556000 India Standard Time" showname="Captured Time" value="1580579532.155556000" size="140"/>
  </proto>
  <proto name="frame" showname="Frame 325: 140 bytes on wire (1120 bits), 140 bytes captured (1120 bits) on interface 0" size="140" pos="0">
    <field name="frame.interface_id" showname="Interface id: 0 (-)" size="0" pos="0" show="0"/>
    <field name="frame.encap_type" showname="Encapsulation type: Ethernet (1)" size="0" pos="0" show="1"/>
    <field name="frame.time" showname="Arrival Time: Feb  1, 2020 23:22:12.155556000 India Standard Time" size="0" pos="0" show="Feb  1, 2020 23:22:12.155556000 India Standard Time"/>
    <field name="frame.offset_shift" showname="Time shift for this packet: 0.000000000 seconds" size="0" pos="0" show="0.000000000"/>
    <field name="frame.time_epoch" showname="Epoch Time: 1580579532.155556000 seconds" size="0" pos="0" show="1580579532.155556000"/>
    <field name="frame.time_delta" showname="Time delta from previous captured frame: 0.002450000 seconds" size="0" pos="0" show="0.002450000"/>
    <field name="frame.time_delta_displayed" showname="Time delta from previous displayed frame: 0.002450000 seconds" size="0" pos="0" show="0.002450000"/>
    <field name="frame.time_relative" showname="Time since reference or first frame: 129.871894000 seconds" size="0" pos="0" show="129.871894000"/>
    <field name="frame.number" showname="Frame Number: 325" size="0" pos="0" show="325"/>
    <field name="frame.len" showname="Frame Length: 140 bytes (1120 bits)" size="0" pos="0" show="140"/>
    <field name="frame.cap_len" showname="Capture Length: 140 bytes (1120 bits)" size="0" pos="0" show="140"/>
    <field name="frame.marked" showname="Frame is marked: False" size="0" pos="0" show="0"/>
    <field name="frame.ignored" showname="Frame is ignored: False" size="0" pos="0" show="0"/>
    <field name="frame.protocols" showname="Protocols in frame: eth:ethertype:mpls:pwethheuristic:pwethcw:eth:ethertype:ip:icmp:data" size="0" pos="0" show="eth:ethertype:mpls:pwethheuristic:pwethcw:eth:ethertype:ip:icmp:data"/>
    <field name="frame.coloring_rule.name" showname="Coloring Rule Name: ICMP" size="0" pos="0" show="ICMP"/>
    <field name="frame.coloring_rule.string" showname="Coloring Rule String: icmp || icmpv6" size="0" pos="0" show="icmp || icmpv6"/>
  </proto>
  <proto name="eth" showname="Ethernet II, Src: aa:bb:cc:00:02:20 (aa:bb:cc:00:02:20), Dst: aa:bb:cc:00:01:20 (aa:bb:cc:00:01:20)" size="14" pos="0">
    <field name="eth.dst" showname="Destination: aa:bb:cc:00:01:20 (aa:bb:cc:00:01:20)" size="6" pos="0" show="aa:bb:cc:00:01:20" value="aabbcc000120">
      <field name="eth.dst_resolved" showname="Destination (resolved): aa:bb:cc:00:01:20" hide="yes" size="6" pos="0" show="aa:bb:cc:00:01:20" value="aabbcc000120"/>
      <field name="eth.addr" showname="Address: aa:bb:cc:00:01:20 (aa:bb:cc:00:01:20)" size="6" pos="0" show="aa:bb:cc:00:01:20" value="aabbcc000120"/>
      <field name="eth.addr_resolved" showname="Address (resolved): aa:bb:cc:00:01:20" hide="yes" size="6" pos="0" show="aa:bb:cc:00:01:20" value="aabbcc000120"/>
      <field name="eth.lg" showname=".... ..1. .... .... .... .... = LG bit: Locally administered address (this is NOT the factory default)" size="3" pos="0" show="1" value="1" unmaskedvalue="aabbcc"/>
      <field name="eth.ig" showname=".... ...0 .... .... .... .... = IG bit: Individual address (unicast)" size="3" pos="0" show="0" value="0" unmaskedvalue="aabbcc"/>
    </field>
    <field name="eth.src" showname="Source: aa:bb:cc:00:02:20 (aa:bb:cc:00:02:20)" size="6" pos="6" show="aa:bb:cc:00:02:20" value="aabbcc000220">
      <field name="eth.src_resolved" showname="Source (resolved): aa:bb:cc:00:02:20" hide="yes" size="6" pos="6" show="aa:bb:cc:00:02:20" value="aabbcc000220"/>
      <field name="eth.addr" showname="Address: aa:bb:cc:00:02:20 (aa:bb:cc:00:02:20)" size="6" pos="6" show="aa:bb:cc:00:02:20" value="aabbcc000220"/>
      <field name="eth.addr_resolved" showname="Address (resolved): aa:bb:cc:00:02:20" hide="yes" size="6" pos="6" show="aa:bb:cc:00:02:20" value="aabbcc000220"/>
      <field name="eth.lg" showname=".... ..1. .... .... .... .... = LG bit: Locally administered address (this is NOT the factory default)" size="3" pos="6" show="1" value="1" unmaskedvalue="aabbcc"/>
      <field name="eth.ig" showname=".... ...0 .... .... .... .... = IG bit: Individual address (unicast)" size="3" pos="6" show="0" value="0" unmaskedvalue="aabbcc"/>
    </field>
    <field name="eth.type" showname="Type: MPLS label switched packet (0x8847)" size="2" pos="12" show="0x00008847" value="8847"/>
  </proto>
  <proto name="mpls" showname="MultiProtocol Label Switching Header, Label: 307, Exp: 0, S: 0, TTL: 254" size="4" pos="14">
    <field name="mpls.label" showname="0000 0000 0001 0011 0011 .... .... .... = MPLS Label: 307" size="4" pos="14" show="307" value="133" unmaskedvalue="001330fe"/>
    <field name="mpls.exp" showname=".... .... .... .... .... 000. .... .... = MPLS Experimental Bits: 0" size="4" pos="14" show="0" value="0" unmaskedvalue="001330fe"/>
    <field name="mpls.bottom" showname=".... .... .... .... .... ...0 .... .... = MPLS Bottom Of Label Stack: 0" size="4" pos="14" show="0" value="0" unmaskedvalue="001330fe"/>
    <field name="mpls.ttl" showname=".... .... .... .... .... .... 1111 1110 = MPLS TTL: 254" size="4" pos="14" show="254" value="FE" unmaskedvalue="001330fe"/>
  </proto>
  <proto name="mpls" showname="MultiProtocol Label Switching Header, Label: 100, Exp: 0, S: 1, TTL: 255" size="4" pos="18">
    <field name="mpls.label" showname="0000 0000 0000 0110 0100 .... .... .... = MPLS Label: 100" size="4" pos="18" show="100" value="64" unmaskedvalue="000641ff"/>
    <field name="mpls.exp" showname=".... .... .... .... .... 000. .... .... = MPLS Experimental Bits: 0" size="4" pos="18" show="0" value="0" unmaskedvalue="000641ff"/>
    <field name="mpls.bottom" showname=".... .... .... .... .... ...1 .... .... = MPLS Bottom Of Label Stack: 1" size="4" pos="18" show="1" value="1" unmaskedvalue="000641ff"/>
    <field name="mpls.ttl" showname=".... .... .... .... .... .... 1111 1111 = MPLS TTL: 255" size="4" pos="18" show="255" value="FF" unmaskedvalue="000641ff"/>
  </proto>
  <proto name="fake-field-wrapper">
    <field name="pweth.cw" showname="PW Control Word (ethernet): True" hide="yes" size="0" pos="22" show="1"/>
</proto>
  <proto name="pwethcw" showname="PW Ethernet Control Word" size="4" pos="22">
    <field name="pweth.cw.sequence_number" showname="Sequence Number: 0" size="2" pos="24" show="0" value="0000"/>
  </proto>
  <proto name="eth" showname="Ethernet II, Src: aa:bb:cc:80:09:00 (aa:bb:cc:80:09:00), Dst: aa:bb:cc:80:07:00 (aa:bb:cc:80:07:00)" size="14" pos="26">
    <field name="eth.dst" showname="Destination: aa:bb:cc:80:07:00 (aa:bb:cc:80:07:00)" size="6" pos="26" show="aa:bb:cc:80:07:00" value="aabbcc800700">
      <field name="eth.dst_resolved" showname="Destination (resolved): aa:bb:cc:80:07:00" hide="yes" size="6" pos="26" show="aa:bb:cc:80:07:00" value="aabbcc800700"/>
      <field name="eth.addr" showname="Address: aa:bb:cc:80:07:00 (aa:bb:cc:80:07:00)" size="6" pos="26" show="aa:bb:cc:80:07:00" value="aabbcc800700"/>
      <field name="eth.addr_resolved" showname="Address (resolved): aa:bb:cc:80:07:00" hide="yes" size="6" pos="26" show="aa:bb:cc:80:07:00" value="aabbcc800700"/>
      <field name="eth.lg" showname=".... ..1. .... .... .... .... = LG bit: Locally administered address (this is NOT the factory default)" size="3" pos="26" show="1" value="1" unmaskedvalue="aabbcc"/>
      <field name="eth.ig" showname=".... ...0 .... .... .... .... = IG bit: Individual address (unicast)" size="3" pos="26" show="0" value="0" unmaskedvalue="aabbcc"/>
    </field>
    <field name="eth.src" showname="Source: aa:bb:cc:80:09:00 (aa:bb:cc:80:09:00)" size="6" pos="32" show="aa:bb:cc:80:09:00" value="aabbcc800900">
      <field name="eth.src_resolved" showname="Source (resolved): aa:bb:cc:80:09:00" hide="yes" size="6" pos="32" show="aa:bb:cc:80:09:00" value="aabbcc800900"/>
      <field name="eth.addr" showname="Address: aa:bb:cc:80:09:00 (aa:bb:cc:80:09:00)" size="6" pos="32" show="aa:bb:cc:80:09:00" value="aabbcc800900"/>
      <field name="eth.addr_resolved" showname="Address (resolved): aa:bb:cc:80:09:00" hide="yes" size="6" pos="32" show="aa:bb:cc:80:09:00" value="aabbcc800900"/>
      <field name="eth.lg" showname=".... ..1. .... .... .... .... = LG bit: Locally administered address (this is NOT the factory default)" size="3" pos="32" show="1" value="1" unmaskedvalue="aabbcc"/>
      <field name="eth.ig" showname=".... ...0 .... .... .... .... = IG bit: Individual address (unicast)" size="3" pos="32" show="0" value="0" unmaskedvalue="aabbcc"/>
    </field>
    <field name="eth.type" showname="Type: IPv4 (0x0800)" size="2" pos="38" show="0x00000800" value="0800"/>
  </proto>
  <proto name="ip" showname="Internet Protocol Version 4, Src: 192.168.0.2, Dst: 192.168.0.1" size="20" pos="40">
    <field name="ip.version" showname="0100 .... = Version: 4" size="1" pos="40" show="4" value="4" unmaskedvalue="45"/>
    <field name="ip.hdr_len" showname=".... 0101 = Header Length: 20 bytes (5)" size="1" pos="40" show="20" value="45"/>
    <field name="ip.dsfield" showname="Differentiated Services Field: 0x00 (DSCP: CS0, ECN: Not-ECT)" size="1" pos="41" show="0x00000000" value="00">
      <field name="ip.dsfield.dscp" showname="0000 00.. = Differentiated Services Codepoint: Default (0)" size="1" pos="41" show="0" value="0" unmaskedvalue="00"/>
      <field name="ip.dsfield.ecn" showname=".... ..00 = Explicit Congestion Notification: Not ECN-Capable Transport (0)" size="1" pos="41" show="0" value="0" unmaskedvalue="00"/>
    </field>
    <field name="ip.len" showname="Total Length: 100" size="2" pos="42" show="100" value="0064"/>
    <field name="ip.id" showname="Identification: 0x0002 (2)" size="2" pos="44" show="0x00000002" value="0002"/>
    <field name="ip.flags" showname="Flags: 0x00" size="1" pos="46" show="0x00000000" value="00">
      <field name="ip.flags.rb" showname="0... .... = Reserved bit: Not set" size="1" pos="46" show="0" value="00"/>
      <field name="ip.flags.df" showname=".0.. .... = Don&#x27;t fragment: Not set" size="1" pos="46" show="0" value="00"/>
      <field name="ip.flags.mf" showname="..0. .... = More fragments: Not set" size="1" pos="46" show="0" value="00"/>
    </field>
    <field name="ip.frag_offset" showname="Fragment offset: 0" size="2" pos="46" show="0" value="0000"/>
    <field name="ip.ttl" showname="Time to live: 255" size="1" pos="48" show="255" value="ff"/>
    <field name="ip.proto" showname="Protocol: ICMP (1)" size="1" pos="49" show="1" value="01"/>
    <field name="ip.checksum" showname="Header checksum: 0x3a43 [validation disabled]" size="2" pos="50" show="0x00003a43" value="3a43"/>
    <field name="ip.checksum.status" showname="Header checksum status: Unverified" size="0" pos="50" show="2"/>
    <field name="ip.src" showname="Source: 192.168.0.2" size="4" pos="52" show="192.168.0.2" value="c0a80002"/>
    <field name="ip.addr" showname="Source or Destination Address: 192.168.0.2" hide="yes" size="4" pos="52" show="192.168.0.2" value="c0a80002"/>
    <field name="ip.src_host" showname="Source Host: 192.168.0.2" hide="yes" size="4" pos="52" show="192.168.0.2" value="c0a80002"/>
    <field name="ip.host" showname="Source or Destination Host: 192.168.0.2" hide="yes" size="4" pos="52" show="192.168.0.2" value="c0a80002"/>
    <field name="ip.dst" showname="Destination: 192.168.0.1" size="4" pos="56" show="192.168.0.1" value="c0a80001"/>
    <field name="ip.addr" showname="Source or Destination Address: 192.168.0.1" hide="yes" size="4" pos="56" show="192.168.0.1" value="c0a80001"/>
    <field name="ip.dst_host" showname="Destination Host: 192.168.0.1" hide="yes" size="4" pos="56" show="192.168.0.1" value="c0a80001"/>
    <field name="ip.host" showname="Source or Destination Host: 192.168.0.1" hide="yes" size="4" pos="56" show="192.168.0.1" value="c0a80001"/>
    <field name="" show="Source GeoIP: Unknown" size="4" pos="52" value="c0a80002"/>
    <field name="" show="Destination GeoIP: Unknown" size="4" pos="56" value="c0a80001"/>
  </proto>
  <proto name="icmp" showname="Internet Control Message Protocol" size="80" pos="60">
    <field name="icmp.type" showname="Type: 0 (Echo (ping) reply)" size="1" pos="60" show="0" value="00"/>
    <field name="icmp.code" showname="Code: 0" size="1" pos="61" show="0" value="00"/>
    <field name="icmp.checksum" showname="Checksum: 0x21d7 [correct]" size="2" pos="62" show="0x000021d7" value="21d7"/>
    <field name="icmp.checksum.status" showname="Checksum Status: Good" size="0" pos="62" show="1"/>
    <field name="icmp.ident" showname="Identifier (BE): 0 (0x0000)" size="2" pos="64" show="0" value="0000"/>
    <field name="icmp.ident" showname="Identifier (LE): 0 (0x0000)" size="2" pos="64" show="0" value="0000"/>
    <field name="icmp.seq" showname="Sequence number (BE): 2 (0x0002)" size="2" pos="66" show="2" value="0002"/>
    <field name="icmp.seq_le" showname="Sequence number (LE): 512 (0x0200)" size="2" pos="66" show="512" value="0002"/>
    <field name="icmp.resp_to" showname="Request frame: 324" size="0" pos="60" show="324"/>
    <field name="icmp.resptime" showname="Response time: 2.450 ms" size="0" pos="60" show="2.45"/>
    <field name="data" value="000000000013645eabcdabcdabcdabcdabcdabcdabcdabcdabcdabcdabcdabcdabcdabcdabcdabcdabcdabcdabcdabcdabcdabcdabcdabcdabcdabcdabcdabcdabcdabcdabcdabcd">
      <field name="data.data" showname="Data: 000000000013645eabcdabcdabcdabcdabcdabcdabcdabcd..." size="72" pos="68" show="00:00:00:00:00:13:64:5e:ab:cd:ab:cd:ab:cd:ab:cd:ab:cd:ab:cd:ab:cd:ab:cd:ab:cd:ab:cd:ab:cd:ab:cd:ab:cd:ab:cd:ab:cd:ab:cd:ab:cd:ab:cd:ab:cd:ab:cd:ab:cd:ab:cd:ab:cd:ab:cd:ab:cd:ab:cd:ab:cd:ab:cd:ab:cd:ab:cd:ab:cd:ab:cd" value="000000000013645eabcdabcdabcdabcdabcdabcdabcdabcdabcdabcdabcdabcdabcdabcdabcdabcdabcdabcdabcdabcdabcdabcdabcdabcdabcdabcdabcdabcdabcdabcdabcdabcd"/>
      <field name="data.len" showname="Length: 72" size="0" pos="68" show="72"/>
    </field>
  </proto>
</packet>

<packet>
  <proto name="geninfo" pos="0" showname="General information" size="140">
    <field name="num" pos="0" show="326" showname="Number" value="146" size="140"/>
    <field name="len" pos="0" show="140" showname="Frame Length" value="8c" size="140"/>
    <field name="caplen" pos="0" show="140" showname="Captured Length" value="8c" size="140"/>
    <field name="timestamp" pos="0" show="Feb  1, 2020 23:22:12.163528000 India Standard Time" showname="Captured Time" value="1580579532.163528000" size="140"/>
  </proto>
  <proto name="frame" showname="Frame 326: 140 bytes on wire (1120 bits), 140 bytes captured (1120 bits) on interface 0" size="140" pos="0">
    <field name="frame.interface_id" showname="Interface id: 0 (-)" size="0" pos="0" show="0"/>
    <field name="frame.encap_type" showname="Encapsulation type: Ethernet (1)" size="0" pos="0" show="1"/>
    <field name="frame.time" showname="Arrival Time: Feb  1, 2020 23:22:12.163528000 India Standard Time" size="0" pos="0" show="Feb  1, 2020 23:22:12.163528000 India Standard Time"/>
    <field name="frame.offset_shift" showname="Time shift for this packet: 0.000000000 seconds" size="0" pos="0" show="0.000000000"/>
    <field name="frame.time_epoch" showname="Epoch Time: 1580579532.163528000 seconds" size="0" pos="0" show="1580579532.163528000"/>
    <field name="frame.time_delta" showname="Time delta from previous captured frame: 0.007972000 seconds" size="0" pos="0" show="0.007972000"/>
    <field name="frame.time_delta_displayed" showname="Time delta from previous displayed frame: 0.007972000 seconds" size="0" pos="0" show="0.007972000"/>
    <field name="frame.time_relative" showname="Time since reference or first frame: 129.879866000 seconds" size="0" pos="0" show="129.879866000"/>
    <field name="frame.number" showname="Frame Number: 326" size="0" pos="0" show="326"/>
    <field name="frame.len" showname="Frame Length: 140 bytes (1120 bits)" size="0" pos="0" show="140"/>
    <field name="frame.cap_len" showname="Capture Length: 140 bytes (1120 bits)" size="0" pos="0" show="140"/>
    <field name="frame.marked" showname="Frame is marked: False" size="0" pos="0" show="0"/>
    <field name="frame.ignored" showname="Frame is ignored: False" size="0" pos="0" show="0"/>
    <field name="frame.protocols" showname="Protocols in frame: eth:ethertype:mpls:pwethheuristic:pwethcw:eth:ethertype:ip:icmp:data" size="0" pos="0" show="eth:ethertype:mpls:pwethheuristic:pwethcw:eth:ethertype:ip:icmp:data"/>
    <field name="frame.coloring_rule.name" showname="Coloring Rule Name: ICMP" size="0" pos="0" show="ICMP"/>
    <field name="frame.coloring_rule.string" showname="Coloring Rule String: icmp || icmpv6" size="0" pos="0" show="icmp || icmpv6"/>
  </proto>
  <proto name="eth" showname="Ethernet II, Src: aa:bb:cc:00:01:20 (aa:bb:cc:00:01:20), Dst: aa:bb:cc:00:02:20 (aa:bb:cc:00:02:20)" size="14" pos="0">
    <field name="eth.dst" showname="Destination: aa:bb:cc:00:02:20 (aa:bb:cc:00:02:20)" size="6" pos="0" show="aa:bb:cc:00:02:20" value="aabbcc000220">
      <field name="eth.dst_resolved" showname="Destination (resolved): aa:bb:cc:00:02:20" hide="yes" size="6" pos="0" show="aa:bb:cc:00:02:20" value="aabbcc000220"/>
      <field name="eth.addr" showname="Address: aa:bb:cc:00:02:20 (aa:bb:cc:00:02:20)" size="6" pos="0" show="aa:bb:cc:00:02:20" value="aabbcc000220"/>
      <field name="eth.addr_resolved" showname="Address (resolved): aa:bb:cc:00:02:20" hide="yes" size="6" pos="0" show="aa:bb:cc:00:02:20" value="aabbcc000220"/>
      <field name="eth.lg" showname=".... ..1. .... .... .... .... = LG bit: Locally administered address (this is NOT the factory default)" size="3" pos="0" show="1" value="1" unmaskedvalue="aabbcc"/>
      <field name="eth.ig" showname=".... ...0 .... .... .... .... = IG bit: Individual address (unicast)" size="3" pos="0" show="0" value="0" unmaskedvalue="aabbcc"/>
    </field>
    <field name="eth.src" showname="Source: aa:bb:cc:00:01:20 (aa:bb:cc:00:01:20)" size="6" pos="6" show="aa:bb:cc:00:01:20" value="aabbcc000120">
      <field name="eth.src_resolved" showname="Source (resolved): aa:bb:cc:00:01:20" hide="yes" size="6" pos="6" show="aa:bb:cc:00:01:20" value="aabbcc000120"/>
      <field name="eth.addr" showname="Address: aa:bb:cc:00:01:20 (aa:bb:cc:00:01:20)" size="6" pos="6" show="aa:bb:cc:00:01:20" value="aabbcc000120"/>
      <field name="eth.addr_resolved" showname="Address (resolved): aa:bb:cc:00:01:20" hide="yes" size="6" pos="6" show="aa:bb:cc:00:01:20" value="aabbcc000120"/>
      <field name="eth.lg" showname=".... ..1. .... .... .... .... = LG bit: Locally administered address (this is NOT the factory default)" size="3" pos="6" show="1" value="1" unmaskedvalue="aabbcc"/>
      <field name="eth.ig" showname=".... ...0 .... .... .... .... = IG bit: Individual address (unicast)" size="3" pos="6" show="0" value="0" unmaskedvalue="aabbcc"/>
    </field>
    <field name="eth.type" showname="Type: MPLS label switched packet (0x8847)" size="2" pos="12" show="0x00008847" value="8847"/>
  </proto>
  <proto name="mpls" showname="MultiProtocol Label Switching Header, Label: 404, Exp: 0, S: 0, TTL: 254" size="4" pos="14">
    <field name="mpls.label" showname="0000 0000 0001 1001 0100 .... .... .... = MPLS Label: 404" size="4" pos="14" show="404" value="194" unmaskedvalue="001940fe"/>
    <field name="mpls.exp" showname=".... .... .... .... .... 000. .... .... = MPLS Experimental Bits: 0" size="4" pos="14" show="0" value="0" unmaskedvalue="001940fe"/>
    <field name="mpls.bottom" showname=".... .... .... .... .... ...0 .... .... = MPLS Bottom Of Label Stack: 0" size="4" pos="14" show="0" value="0" unmaskedvalue="001940fe"/>
    <field name="mpls.ttl" showname=".... .... .... .... .... .... 1111 1110 = MPLS TTL: 254" size="4" pos="14" show="254" value="FE" unmaskedvalue="001940fe"/>
  </proto>
  <proto name="mpls" showname="MultiProtocol Label Switching Header, Label: 201, Exp: 0, S: 1, TTL: 255" size="4" pos="18">
    <field name="mpls.label" showname="0000 0000 0000 1100 1001 .... .... .... = MPLS Label: 201" size="4" pos="18" show="201" value="C9" unmaskedvalue="000c91ff"/>
    <field name="mpls.exp" showname=".... .... .... .... .... 000. .... .... = MPLS Experimental Bits: 0" size="4" pos="18" show="0" value="0" unmaskedvalue="000c91ff"/>
    <field name="mpls.bottom" showname=".... .... .... .... .... ...1 .... .... = MPLS Bottom Of Label Stack: 1" size="4" pos="18" show="1" value="1" unmaskedvalue="000c91ff"/>
    <field name="mpls.ttl" showname=".... .... .... .... .... .... 1111 1111 = MPLS TTL: 255" size="4" pos="18" show="255" value="FF" unmaskedvalue="000c91ff"/>
  </proto>
  <proto name="fake-field-wrapper">
    <field name="pweth.cw" showname="PW Control Word (ethernet): True" hide="yes" size="0" pos="22" show="1"/>
</proto>
  <proto name="pwethcw" showname="PW Ethernet Control Word" size="4" pos="22">
    <field name="pweth.cw.sequence_number" showname="Sequence Number: 0" size="2" pos="24" show="0" value="0000"/>
  </proto>
  <proto name="eth" showname="Ethernet II, Src: aa:bb:cc:80:07:00 (aa:bb:cc:80:07:00), Dst: aa:bb:cc:80:09:00 (aa:bb:cc:80:09:00)" size="14" pos="26">
    <field name="eth.dst" showname="Destination: aa:bb:cc:80:09:00 (aa:bb:cc:80:09:00)" size="6" pos="26" show="aa:bb:cc:80:09:00" value="aabbcc800900">
      <field name="eth.dst_resolved" showname="Destination (resolved): aa:bb:cc:80:09:00" hide="yes" size="6" pos="26" show="aa:bb:cc:80:09:00" value="aabbcc800900"/>
      <field name="eth.addr" showname="Address: aa:bb:cc:80:09:00 (aa:bb:cc:80:09:00)" size="6" pos="26" show="aa:bb:cc:80:09:00" value="aabbcc800900"/>
      <field name="eth.addr_resolved" showname="Address (resolved): aa:bb:cc:80:09:00" hide="yes" size="6" pos="26" show="aa:bb:cc:80:09:00" value="aabbcc800900"/>
      <field name="eth.lg" showname=".... ..1. .... .... .... .... = LG bit: Locally administered address (this is NOT the factory default)" size="3" pos="26" show="1" value="1" unmaskedvalue="aabbcc"/>
      <field name="eth.ig" showname=".... ...0 .... .... .... .... = IG bit: Individual address (unicast)" size="3" pos="26" show="0" value="0" unmaskedvalue="aabbcc"/>
    </field>
    <field name="eth.src" showname="Source: aa:bb:cc:80:07:00 (aa:bb:cc:80:07:00)" size="6" pos="32" show="aa:bb:cc:80:07:00" value="aabbcc800700">
      <field name="eth.src_resolved" showname="Source (resolved): aa:bb:cc:80:07:00" hide="yes" size="6" pos="32" show="aa:bb:cc:80:07:00" value="aabbcc800700"/>
      <field name="eth.addr" showname="Address: aa:bb:cc:80:07:00 (aa:bb:cc:80:07:00)" size="6" pos="32" show="aa:bb:cc:80:07:00" value="aabbcc800700"/>
      <field name="eth.addr_resolved" showname="Address (resolved): aa:bb:cc:80:07:00" hide="yes" size="6" pos="32" show="aa:bb:cc:80:07:00" value="aabbcc800700"/>
      <field name="eth.lg" showname=".... ..1. .... .... .... .... = LG bit: Locally administered address (this is NOT the factory default)" size="3" pos="32" show="1" value="1" unmaskedvalue="aabbcc"/>
      <field name="eth.ig" showname=".... ...0 .... .... .... .... = IG bit: Individual address (unicast)" size="3" pos="32" show="0" value="0" unmaskedvalue="aabbcc"/>
    </field>
    <field name="eth.type" showname="Type: IPv4 (0x0800)" size="2" pos="38" show="0x00000800" value="0800"/>
  </proto>
  <proto name="ip" showname="Internet Protocol Version 4, Src: 192.168.0.1, Dst: 192.168.0.2" size="20" pos="40">
    <field name="ip.version" showname="0100 .... = Version: 4" size="1" pos="40" show="4" value="4" unmaskedvalue="45"/>
    <field name="ip.hdr_len" showname=".... 0101 = Header Length: 20 bytes (5)" size="1" pos="40" show="20" value="45"/>
    <field name="ip.dsfield" showname="Differentiated Services Field: 0x00 (DSCP: CS0, ECN: Not-ECT)" size="1" pos="41" show="0x00000000" value="00">
      <field name="ip.dsfield.dscp" showname="0000 00.. = Differentiated Services Codepoint: Default (0)" size="1" pos="41" show="0" value="0" unmaskedvalue="00"/>
      <field name="ip.dsfield.ecn" showname=".... ..00 = Explicit Congestion Notification: Not ECN-Capable Transport (0)" size="1" pos="41" show="0" value="0" unmaskedvalue="00"/>
    </field>
    <field name="ip.len" showname="Total Length: 100" size="2" pos="42" show="100" value="0064"/>
    <field name="ip.id" showname="Identification: 0x0003 (3)" size="2" pos="44" show="0x00000003" value="0003"/>
    <field name="ip.flags" showname="Flags: 0x00" size="1" pos="46" show="0x00000000" value="00">
      <field name="ip.flags.rb" showname="0... .... = Reserved bit: Not set" size="1" pos="46" show="0" value="00"/>
      <field name="ip.flags.df" showname=".0.. .... = Don&#x27;t fragment: Not set" size="1" pos="46" show="0" value="00"/>
      <field name="ip.flags.mf" showname="..0. .... = More fragments: Not set" size="1" pos="46" show="0" value="00"/>
    </field>
    <field name="ip.frag_offset" showname="Fragment offset: 0" size="2" pos="46" show="0" value="0000"/>
    <field name="ip.ttl" showname="Time to live: 255" size="1" pos="48" show="255" value="ff"/>
    <field name="ip.proto" showname="Protocol: ICMP (1)" size="1" pos="49" show="1" value="01"/>
    <field name="ip.checksum" showname="Header checksum: 0x3a42 [validation disabled]" size="2" pos="50" show="0x00003a42" value="3a42"/>
    <field name="ip.checksum.status" showname="Header checksum status: Unverified" size="0" pos="50" show="2"/>
    <field name="ip.src" showname="Source: 192.168.0.1" size="4" pos="52" show="192.168.0.1" value="c0a80001"/>
    <field name="ip.addr" showname="Source or Destination Address: 192.168.0.1" hide="yes" size="4" pos="52" show="192.168.0.1" value="c0a80001"/>
    <field name="ip.src_host" showname="Source Host: 192.168.0.1" hide="yes" size="4" pos="52" show="192.168.0.1" value="c0a80001"/>
    <field name="ip.host" showname="Source or Destination Host: 192.168.0.1" hide="yes" size="4" pos="52" show="192.168.0.1" value="c0a80001"/>
    <field name="ip.dst" showname="Destination: 192.168.0.2" size="4" pos="56" show="192.168.0.2" value="c0a80002"/>
    <field name="ip.addr" showname="Source or Destination Address: 192.168.0.2" hide="yes" size="4" pos="56" show="192.168.0.2" value="c0a80002"/>
    <field name="ip.dst_host" showname="Destination Host: 192.168.0.2" hide="yes" size="4" pos="56" show="192.168.0.2" value="c0a80002"/>
    <field name="ip.host" showname="Source or Destination Host: 192.168.0.2" hide="yes" size="4" pos="56" show="192.168.0.2" value="c0a80002"/>
    <field name="" show="Source GeoIP: Unknown" size="4" pos="52" value="c0a80001"/>
    <field name="" show="Destination GeoIP: Unknown" size="4" pos="56" value="c0a80002"/>
  </proto>
  <proto name="icmp" showname="Internet Control Message Protocol" size="80" pos="60">
    <field name="icmp.type" showname="Type: 8 (Echo (ping) request)" size="1" pos="60" show="8" value="08"/>
    <field name="icmp.code" showname="Code: 0" size="1" pos="61" show="0" value="00"/>
    <field name="icmp.checksum" showname="Checksum: 0x19cc [correct]" size="2" pos="62" show="0x000019cc" value="19cc"/>
    <field name="icmp.checksum.status" showname="Checksum Status: Good" size="0" pos="62" show="1"/>
    <field name="icmp.ident" showname="Identifier (BE): 0 (0x0000)" size="2" pos="64" show="0" value="0000"/>
    <field name="icmp.ident" showname="Identifier (LE): 0 (0x0000)" size="2" pos="64" show="0" value="0000"/>
    <field name="icmp.seq" showname="Sequence number (BE): 3 (0x0003)" size="2" pos="66" show="3" value="0003"/>
    <field name="icmp.seq_le" showname="Sequence number (LE): 768 (0x0300)" size="2" pos="66" show="768" value="0003"/>
    <field name="icmp.resp_in" showname="Response frame: 327" size="0" pos="60" show="327"/>
    <field name="data" value="0000000000136468abcdabcdabcdabcdabcdabcdabcdabcdabcdabcdabcdabcdabcdabcdabcdabcdabcdabcdabcdabcdabcdabcdabcdabcdabcdabcdabcdabcdabcdabcdabcdabcd">
      <field name="data.data" showname="Data: 0000000000136468abcdabcdabcdabcdabcdabcdabcdabcd..." size="72" pos="68" show="00:00:00:00:00:13:64:68:ab:cd:ab:cd:ab:cd:ab:cd:ab:cd:ab:cd:ab:cd:ab:cd:ab:cd:ab:cd:ab:cd:ab:cd:ab:cd:ab:cd:ab:cd:ab:cd:ab:cd:ab:cd:ab:cd:ab:cd:ab:cd:ab:cd:ab:cd:ab:cd:ab:cd:ab:cd:ab:cd:ab:cd:ab:cd:ab:cd:ab:cd:ab:cd" value="0000000000136468abcdabcdabcdabcdabcdabcdabcdabcdabcdabcdabcdabcdabcdabcdabcdabcdabcdabcdabcdabcdabcdabcdabcdabcdabcdabcdabcdabcdabcdabcdabcdabcd"/>
      <field name="data.len" showname="Length: 72" size="0" pos="68" show="72"/>
    </field>
  </proto>
</packet>

<packet>
  <proto name="geninfo" pos="0" showname="General information" size="140">
    <field name="num" pos="0" show="327" showname="Number" value="147" size="140"/>
    <field name="len" pos="0" show="140" showname="Frame Length" value="8c" size="140"/>
    <field name="caplen" pos="0" show="140" showname="Captured Length" value="8c" size="140"/>
    <field name="timestamp" pos="0" show="Feb  1, 2020 23:22:12.165450000 India Standard Time" showname="Captured Time" value="1580579532.165450000" size="140"/>
  </proto>
  <proto name="frame" showname="Frame 327: 140 bytes on wire (1120 bits), 140 bytes captured (1120 bits) on interface 0" size="140" pos="0">
    <field name="frame.interface_id" showname="Interface id: 0 (-)" size="0" pos="0" show="0"/>
    <field name="frame.encap_type" showname="Encapsulation type: Ethernet (1)" size="0" pos="0" show="1"/>
    <field name="frame.time" showname="Arrival Time: Feb  1, 2020 23:22:12.165450000 India Standard Time" size="0" pos="0" show="Feb  1, 2020 23:22:12.165450000 India Standard Time"/>
    <field name="frame.offset_shift" showname="Time shift for this packet: 0.000000000 seconds" size="0" pos="0" show="0.000000000"/>
    <field name="frame.time_epoch" showname="Epoch Time: 1580579532.165450000 seconds" size="0" pos="0" show="1580579532.165450000"/>
    <field name="frame.time_delta" showname="Time delta from previous captured frame: 0.001922000 seconds" size="0" pos="0" show="0.001922000"/>
    <field name="frame.time_delta_displayed" showname="Time delta from previous displayed frame: 0.001922000 seconds" size="0" pos="0" show="0.001922000"/>
    <field name="frame.time_relative" showname="Time since reference or first frame: 129.881788000 seconds" size="0" pos="0" show="129.881788000"/>
    <field name="frame.number" showname="Frame Number: 327" size="0" pos="0" show="327"/>
    <field name="frame.len" showname="Frame Length: 140 bytes (1120 bits)" size="0" pos="0" show="140"/>
    <field name="frame.cap_len" showname="Capture Length: 140 bytes (1120 bits)" size="0" pos="0" show="140"/>
    <field name="frame.marked" showname="Frame is marked: False" size="0" pos="0" show="0"/>
    <field name="frame.ignored" showname="Frame is ignored: False" size="0" pos="0" show="0"/>
    <field name="frame.protocols" showname="Protocols in frame: eth:ethertype:mpls:pwethheuristic:pwethcw:eth:ethertype:ip:icmp:data" size="0" pos="0" show="eth:ethertype:mpls:pwethheuristic:pwethcw:eth:ethertype:ip:icmp:data"/>
    <field name="frame.coloring_rule.name" showname="Coloring Rule Name: ICMP" size="0" pos="0" show="ICMP"/>
    <field name="frame.coloring_rule.string" showname="Coloring Rule String: icmp || icmpv6" size="0" pos="0" show="icmp || icmpv6"/>
  </proto>
  <proto name="eth" showname="Ethernet II, Src: aa:bb:cc:00:02:20 (aa:bb:cc:00:02:20), Dst: aa:bb:cc:00:01:20 (aa:bb:cc:00:01:20)" size="14" pos="0">
    <field name="eth.dst" showname="Destination: aa:bb:cc:00:01:20 (aa:bb:cc:00:01:20)" size="6" pos="0" show="aa:bb:cc:00:01:20" value="aabbcc000120">
      <field name="eth.dst_resolved" showname="Destination (resolved): aa:bb:cc:00:01:20" hide="yes" size="6" pos="0" show="aa:bb:cc:00:01:20" value="aabbcc000120"/>
      <field name="eth.addr" showname="Address: aa:bb:cc:00:01:20 (aa:bb:cc:00:01:20)" size="6" pos="0" show="aa:bb:cc:00:01:20" value="aabbcc000120"/>
      <field name="eth.addr_resolved" showname="Address (resolved): aa:bb:cc:00:01:20" hide="yes" size="6" pos="0" show="aa:bb:cc:00:01:20" value="aabbcc000120"/>
      <field name="eth.lg" showname=".... ..1. .... .... .... .... = LG bit: Locally administered address (this is NOT the factory default)" size="3" pos="0" show="1" value="1" unmaskedvalue="aabbcc"/>
      <field name="eth.ig" showname=".... ...0 .... .... .... .... = IG bit: Individual address (unicast)" size="3" pos="0" show="0" value="0" unmaskedvalue="aabbcc"/>
    </field>
    <field name="eth.src" showname="Source: aa:bb:cc:00:02:20 (aa:bb:cc:00:02:20)" size="6" pos="6" show="aa:bb:cc:00:02:20" value="aabbcc000220">
      <field name="eth.src_resolved" showname="Source (resolved): aa:bb:cc:00:02:20" hide="yes" size="6" pos="6" show="aa:bb:cc:00:02:20" value="aabbcc000220"/>
      <field name="eth.addr" showname="Address: aa:bb:cc:00:02:20 (aa:bb:cc:00:02:20)" size="6" pos="6" show="aa:bb:cc:00:02:20" value="aabbcc000220"/>
      <field name="eth.addr_resolved" showname="Address (resolved): aa:bb:cc:00:02:20" hide="yes" size="6" pos="6" show="aa:bb:cc:00:02:20" value="aabbcc000220"/>
      <field name="eth.lg" showname=".... ..1. .... .... .... .... = LG bit: Locally administered address (this is NOT the factory default)" size="3" pos="6" show="1" value="1" unmaskedvalue="aabbcc"/>
      <field name="eth.ig" showname=".... ...0 .... .... .... .... = IG bit: Individual address (unicast)" size="3" pos="6" show="0" value="0" unmaskedvalue="aabbcc"/>
    </field>
    <field name="eth.type" showname="Type: MPLS label switched packet (0x8847)" size="2" pos="12" show="0x00008847" value="8847"/>
  </proto>
  <proto name="mpls" showname="MultiProtocol Label Switching Header, Label: 307, Exp: 0, S: 0, TTL: 254" size="4" pos="14">
    <field name="mpls.label" showname="0000 0000 0001 0011 0011 .... .... .... = MPLS Label: 307" size="4" pos="14" show="307" value="133" unmaskedvalue="001330fe"/>
    <field name="mpls.exp" showname=".... .... .... .... .... 000. .... .... = MPLS Experimental Bits: 0" size="4" pos="14" show="0" value="0" unmaskedvalue="001330fe"/>
    <field name="mpls.bottom" showname=".... .... .... .... .... ...0 .... .... = MPLS Bottom Of Label Stack: 0" size="4" pos="14" show="0" value="0" unmaskedvalue="001330fe"/>
    <field name="mpls.ttl" showname=".... .... .... .... .... .... 1111 1110 = MPLS TTL: 254" size="4" pos="14" show="254" value="FE" unmaskedvalue="001330fe"/>
  </proto>
  <proto name="mpls" showname="MultiProtocol Label Switching Header, Label: 100, Exp: 0, S: 1, TTL: 255" size="4" pos="18">
    <field name="mpls.label" showname="0000 0000 0000 0110 0100 .... .... .... = MPLS Label: 100" size="4" pos="18" show="100" value="64" unmaskedvalue="000641ff"/>
    <field name="mpls.exp" showname=".... .... .... .... .... 000. .... .... = MPLS Experimental Bits: 0" size="4" pos="18" show="0" value="0" unmaskedvalue="000641ff"/>
    <field name="mpls.bottom" showname=".... .... .... .... .... ...1 .... .... = MPLS Bottom Of Label Stack: 1" size="4" pos="18" show="1" value="1" unmaskedvalue="000641ff"/>
    <field name="mpls.ttl" showname=".... .... .... .... .... .... 1111 1111 = MPLS TTL: 255" size="4" pos="18" show="255" value="FF" unmaskedvalue="000641ff"/>
  </proto>
  <proto name="fake-field-wrapper">
    <field name="pweth.cw" showname="PW Control Word (ethernet): True" hide="yes" size="0" pos="22" show="1"/>
</proto>
  <proto name="pwethcw" showname="PW Ethernet Control Word" size="4" pos="22">
    <field name="pweth.cw.sequence_number" showname="Sequence Number: 0" size="2" pos="24" show="0" value="0000"/>
  </proto>
  <proto name="eth" showname="Ethernet II, Src: aa:bb:cc:80:09:00 (aa:bb:cc:80:09:00), Dst: aa:bb:cc:80:07:00 (aa:bb:cc:80:07:00)" size="14" pos="26">
    <field name="eth.dst" showname="Destination: aa:bb:cc:80:07:00 (aa:bb:cc:80:07:00)" size="6" pos="26" show="aa:bb:cc:80:07:00" value="aabbcc800700">
      <field name="eth.dst_resolved" showname="Destination (resolved): aa:bb:cc:80:07:00" hide="yes" size="6" pos="26" show="aa:bb:cc:80:07:00" value="aabbcc800700"/>
      <field name="eth.addr" showname="Address: aa:bb:cc:80:07:00 (aa:bb:cc:80:07:00)" size="6" pos="26" show="aa:bb:cc:80:07:00" value="aabbcc800700"/>
      <field name="eth.addr_resolved" showname="Address (resolved): aa:bb:cc:80:07:00" hide="yes" size="6" pos="26" show="aa:bb:cc:80:07:00" value="aabbcc800700"/>
      <field name="eth.lg" showname=".... ..1. .... .... .... .... = LG bit: Locally administered address (this is NOT the factory default)" size="3" pos="26" show="1" value="1" unmaskedvalue="aabbcc"/>
      <field name="eth.ig" showname=".... ...0 .... .... .... .... = IG bit: Individual address (unicast)" size="3" pos="26" show="0" value="0" unmaskedvalue="aabbcc"/>
    </field>
    <field name="eth.src" showname="Source: aa:bb:cc:80:09:00 (aa:bb:cc:80:09:00)" size="6" pos="32" show="aa:bb:cc:80:09:00" value="aabbcc800900">
      <field name="eth.src_resolved" showname="Source (resolved): aa:bb:cc:80:09:00" hide="yes" size="6" pos="32" show="aa:bb:cc:80:09:00" value="aabbcc800900"/>
      <field name="eth.addr" showname="Address: aa:bb:cc:80:09:00 (aa:bb:cc:80:09:00)" size="6" pos="32" show="aa:bb:cc:80:09:00" value="aabbcc800900"/>
      <field name="eth.addr_resolved" showname="Address (resolved): aa:bb:cc:80:09:00" hide="yes" size="6" pos="32" show="aa:bb:cc:80:09:00" value="aabbcc800900"/>
      <field name="eth.lg" showname=".... ..1. .... .... .... .... = LG bit: Locally administered address (this is NOT the factory default)" size="3" pos="32" show="1" value="1" unmaskedvalue="aabbcc"/>
      <field name="eth.ig" showname=".... ...0 .... .... .... .... = IG bit: Individual address (unicast)" size="3" pos="32" show="0" value="0" unmaskedvalue="aabbcc"/>
    </field>
    <field name="eth.type" showname="Type: IPv4 (0x0800)" size="2" pos="38" show="0x00000800" value="0800"/>
  </proto>
  <proto name="ip" showname="Internet Protocol Version 4, Src: 192.168.0.2, Dst: 192.168.0.1" size="20" pos="40">
    <field name="ip.version" showname="0100 .... = Version: 4" size="1" pos="40" show="4" value="4" unmaskedvalue="45"/>
    <field name="ip.hdr_len" showname=".... 0101 = Header Length: 20 bytes (5)" size="1" pos="40" show="20" value="45"/>
    <field name="ip.dsfield" showname="Differentiated Services Field: 0x00 (DSCP: CS0, ECN: Not-ECT)" size="1" pos="41" show="0x00000000" value="00">
      <field name="ip.dsfield.dscp" showname="0000 00.. = Differentiated Services Codepoint: Default (0)" size="1" pos="41" show="0" value="0" unmaskedvalue="00"/>
      <field name="ip.dsfield.ecn" showname=".... ..00 = Explicit Congestion Notification: Not ECN-Capable Transport (0)" size="1" pos="41" show="0" value="0" unmaskedvalue="00"/>
    </field>
    <field name="ip.len" showname="Total Length: 100" size="2" pos="42" show="100" value="0064"/>
    <field name="ip.id" showname="Identification: 0x0003 (3)" size="2" pos="44" show="0x00000003" value="0003"/>
    <field name="ip.flags" showname="Flags: 0x00" size="1" pos="46" show="0x00000000" value="00">
      <field name="ip.flags.rb" showname="0... .... = Reserved bit: Not set" size="1" pos="46" show="0" value="00"/>
      <field name="ip.flags.df" showname=".0.. .... = Don&#x27;t fragment: Not set" size="1" pos="46" show="0" value="00"/>
      <field name="ip.flags.mf" showname="..0. .... = More fragments: Not set" size="1" pos="46" show="0" value="00"/>
    </field>
    <field name="ip.frag_offset" showname="Fragment offset: 0" size="2" pos="46" show="0" value="0000"/>
    <field name="ip.ttl" showname="Time to live: 255" size="1" pos="48" show="255" value="ff"/>
    <field name="ip.proto" showname="Protocol: ICMP (1)" size="1" pos="49" show="1" value="01"/>
    <field name="ip.checksum" showname="Header checksum: 0x3a42 [validation disabled]" size="2" pos="50" show="0x00003a42" value="3a42"/>
    <field name="ip.checksum.status" showname="Header checksum status: Unverified" size="0" pos="50" show="2"/>
    <field name="ip.src" showname="Source: 192.168.0.2" size="4" pos="52" show="192.168.0.2" value="c0a80002"/>
    <field name="ip.addr" showname="Source or Destination Address: 192.168.0.2" hide="yes" size="4" pos="52" show="192.168.0.2" value="c0a80002"/>
    <field name="ip.src_host" showname="Source Host: 192.168.0.2" hide="yes" size="4" pos="52" show="192.168.0.2" value="c0a80002"/>
    <field name="ip.host" showname="Source or Destination Host: 192.168.0.2" hide="yes" size="4" pos="52" show="192.168.0.2" value="c0a80002"/>
    <field name="ip.dst" showname="Destination: 192.168.0.1" size="4" pos="56" show="192.168.0.1" value="c0a80001"/>
    <field name="ip.addr" showname="Source or Destination Address: 192.168.0.1" hide="yes" size="4" pos="56" show="192.168.0.1" value="c0a80001"/>
    <field name="ip.dst_host" showname="Destination Host: 192.168.0.1" hide="yes" size="4" pos="56" show="192.168.0.1" value="c0a80001"/>
    <field name="ip.host" showname="Source or Destination Host: 192.168.0.1" hide="yes" size="4" pos="56" show="192.168.0.1" value="c0a80001"/>
    <field name="" show="Source GeoIP: Unknown" size="4" pos="52" value="c0a80002"/>
    <field name="" show="Destination GeoIP: Unknown" size="4" pos="56" value="c0a80001"/>
  </proto>
  <proto name="icmp" showname="Internet Control Message Protocol" size="80" pos="60">
    <field name="icmp.type" showname="Type: 0 (Echo (ping) reply)" size="1" pos="60" show="0" value="00"/>
    <field name="icmp.code" showname="Code: 0" size="1" pos="61" show="0" value="00"/>
    <field name="icmp.checksum" showname="Checksum: 0x21cc [correct]" size="2" pos="62" show="0x000021cc" value="21cc"/>
    <field name="icmp.checksum.status" showname="Checksum Status: Good" size="0" pos="62" show="1"/>
    <field name="icmp.ident" showname="Identifier (BE): 0 (0x0000)" size="2" pos="64" show="0" value="0000"/>
    <field name="icmp.ident" showname="Identifier (LE): 0 (0x0000)" size="2" pos="64" show="0" value="0000"/>
    <field name="icmp.seq" showname="Sequence number (BE): 3 (0x0003)" size="2" pos="66" show="3" value="0003"/>
    <field name="icmp.seq_le" showname="Sequence number (LE): 768 (0x0300)" size="2" pos="66" show="768" value="0003"/>
    <field name="icmp.resp_to" showname="Request frame: 326" size="0" pos="60" show="326"/>
    <field name="icmp.resptime" showname="Response time: 1.922 ms" size="0" pos="60" show="1.922"/>
    <field name="data" value="0000000000136468abcdabcdabcdabcdabcdabcdabcdabcdabcdabcdabcdabcdabcdabcdabcdabcdabcdabcdabcdabcdabcdabcdabcdabcdabcdabcdabcdabcdabcdabcdabcdabcd">
      <field name="data.data" showname="Data: 0000000000136468abcdabcdabcdabcdabcdabcdabcdabcd..." size="72" pos="68" show="00:00:00:00:00:13:64:68:ab:cd:ab:cd:ab:cd:ab:cd:ab:cd:ab:cd:ab:cd:ab:cd:ab:cd:ab:cd:ab:cd:ab:cd:ab:cd:ab:cd:ab:cd:ab:cd:ab:cd:ab:cd:ab:cd:ab:cd:ab:cd:ab:cd:ab:cd:ab:cd:ab:cd:ab:cd:ab:cd:ab:cd:ab:cd:ab:cd:ab:cd:ab:cd" value="0000000000136468abcdabcdabcdabcdabcdabcdabcdabcdabcdabcdabcdabcdabcdabcdabcdabcdabcdabcdabcdabcdabcdabcdabcdabcdabcdabcdabcdabcdabcdabcdabcdabcd"/>
      <field name="data.len" showname="Length: 72" size="0" pos="68" show="72"/>
    </field>
  </proto>
</packet>

<packet>
  <proto name="geninfo" pos="0" showname="General information" size="140">
    <field name="num" pos="0" show="328" showname="Number" value="148" size="140"/>
    <field name="len" pos="0" show="140" showname="Frame Length" value="8c" size="140"/>
    <field name="caplen" pos="0" show="140" showname="Captured Length" value="8c" size="140"/>
    <field name="timestamp" pos="0" show="Feb  1, 2020 23:22:12.173864000 India Standard Time" showname="Captured Time" value="1580579532.173864000" size="140"/>
  </proto>
  <proto name="frame" showname="Frame 328: 140 bytes on wire (1120 bits), 140 bytes captured (1120 bits) on interface 0" size="140" pos="0">
    <field name="frame.interface_id" showname="Interface id: 0 (-)" size="0" pos="0" show="0"/>
    <field name="frame.encap_type" showname="Encapsulation type: Ethernet (1)" size="0" pos="0" show="1"/>
    <field name="frame.time" showname="Arrival Time: Feb  1, 2020 23:22:12.173864000 India Standard Time" size="0" pos="0" show="Feb  1, 2020 23:22:12.173864000 India Standard Time"/>
    <field name="frame.offset_shift" showname="Time shift for this packet: 0.000000000 seconds" size="0" pos="0" show="0.000000000"/>
    <field name="frame.time_epoch" showname="Epoch Time: 1580579532.173864000 seconds" size="0" pos="0" show="1580579532.173864000"/>
    <field name="frame.time_delta" showname="Time delta from previous captured frame: 0.008414000 seconds" size="0" pos="0" show="0.008414000"/>
    <field name="frame.time_delta_displayed" showname="Time delta from previous displayed frame: 0.008414000 seconds" size="0" pos="0" show="0.008414000"/>
    <field name="frame.time_relative" showname="Time since reference or first frame: 129.890202000 seconds" size="0" pos="0" show="129.890202000"/>
    <field name="frame.number" showname="Frame Number: 328" size="0" pos="0" show="328"/>
    <field name="frame.len" showname="Frame Length: 140 bytes (1120 bits)" size="0" pos="0" show="140"/>
    <field name="frame.cap_len" showname="Capture Length: 140 bytes (1120 bits)" size="0" pos="0" show="140"/>
    <field name="frame.marked" showname="Frame is marked: False" size="0" pos="0" show="0"/>
    <field name="frame.ignored" showname="Frame is ignored: False" size="0" pos="0" show="0"/>
    <field name="frame.protocols" showname="Protocols in frame: eth:ethertype:mpls:pwethheuristic:pwethcw:eth:ethertype:ip:icmp:data" size="0" pos="0" show="eth:ethertype:mpls:pwethheuristic:pwethcw:eth:ethertype:ip:icmp:data"/>
    <field name="frame.coloring_rule.name" showname="Coloring Rule Name: ICMP" size="0" pos="0" show="ICMP"/>
    <field name="frame.coloring_rule.string" showname="Coloring Rule String: icmp || icmpv6" size="0" pos="0" show="icmp || icmpv6"/>
  </proto>
  <proto name="eth" showname="Ethernet II, Src: aa:bb:cc:00:01:20 (aa:bb:cc:00:01:20), Dst: aa:bb:cc:00:02:20 (aa:bb:cc:00:02:20)" size="14" pos="0">
    <field name="eth.dst" showname="Destination: aa:bb:cc:00:02:20 (aa:bb:cc:00:02:20)" size="6" pos="0" show="aa:bb:cc:00:02:20" value="aabbcc000220">
      <field name="eth.dst_resolved" showname="Destination (resolved): aa:bb:cc:00:02:20" hide="yes" size="6" pos="0" show="aa:bb:cc:00:02:20" value="aabbcc000220"/>
      <field name="eth.addr" showname="Address: aa:bb:cc:00:02:20 (aa:bb:cc:00:02:20)" size="6" pos="0" show="aa:bb:cc:00:02:20" value="aabbcc000220"/>
      <field name="eth.addr_resolved" showname="Address (resolved): aa:bb:cc:00:02:20" hide="yes" size="6" pos="0" show="aa:bb:cc:00:02:20" value="aabbcc000220"/>
      <field name="eth.lg" showname=".... ..1. .... .... .... .... = LG bit: Locally administered address (this is NOT the factory default)" size="3" pos="0" show="1" value="1" unmaskedvalue="aabbcc"/>
      <field name="eth.ig" showname=".... ...0 .... .... .... .... = IG bit: Individual address (unicast)" size="3" pos="0" show="0" value="0" unmaskedvalue="aabbcc"/>
    </field>
    <field name="eth.src" showname="Source: aa:bb:cc:00:01:20 (aa:bb:cc:00:01:20)" size="6" pos="6" show="aa:bb:cc:00:01:20" value="aabbcc000120">
      <field name="eth.src_resolved" showname="Source (resolved): aa:bb:cc:00:01:20" hide="yes" size="6" pos="6" show="aa:bb:cc:00:01:20" value="aabbcc000120"/>
      <field name="eth.addr" showname="Address: aa:bb:cc:00:01:20 (aa:bb:cc:00:01:20)" size="6" pos="6" show="aa:bb:cc:00:01:20" value="aabbcc000120"/>
      <field name="eth.addr_resolved" showname="Address (resolved): aa:bb:cc:00:01:20" hide="yes" size="6" pos="6" show="aa:bb:cc:00:01:20" value="aabbcc000120"/>
      <field name="eth.lg" showname=".... ..1. .... .... .... .... = LG bit: Locally administered address (this is NOT the factory default)" size="3" pos="6" show="1" value="1" unmaskedvalue="aabbcc"/>
      <field name="eth.ig" showname=".... ...0 .... .... .... .... = IG bit: Individual address (unicast)" size="3" pos="6" show="0" value="0" unmaskedvalue="aabbcc"/>
    </field>
    <field name="eth.type" showname="Type: MPLS label switched packet (0x8847)" size="2" pos="12" show="0x00008847" value="8847"/>
  </proto>
  <proto name="mpls" showname="MultiProtocol Label Switching Header, Label: 404, Exp: 0, S: 0, TTL: 254" size="4" pos="14">
    <field name="mpls.label" showname="0000 0000 0001 1001 0100 .... .... .... = MPLS Label: 404" size="4" pos="14" show="404" value="194" unmaskedvalue="001940fe"/>
    <field name="mpls.exp" showname=".... .... .... .... .... 000. .... .... = MPLS Experimental Bits: 0" size="4" pos="14" show="0" value="0" unmaskedvalue="001940fe"/>
    <field name="mpls.bottom" showname=".... .... .... .... .... ...0 .... .... = MPLS Bottom Of Label Stack: 0" size="4" pos="14" show="0" value="0" unmaskedvalue="001940fe"/>
    <field name="mpls.ttl" showname=".... .... .... .... .... .... 1111 1110 = MPLS TTL: 254" size="4" pos="14" show="254" value="FE" unmaskedvalue="001940fe"/>
  </proto>
  <proto name="mpls" showname="MultiProtocol Label Switching Header, Label: 201, Exp: 0, S: 1, TTL: 255" size="4" pos="18">
    <field name="mpls.label" showname="0000 0000 0000 1100 1001 .... .... .... = MPLS Label: 201" size="4" pos="18" show="201" value="C9" unmaskedvalue="000c91ff"/>
    <field name="mpls.exp" showname=".... .... .... .... .... 000. .... .... = MPLS Experimental Bits: 0" size="4" pos="18" show="0" value="0" unmaskedvalue="000c91ff"/>
    <field name="mpls.bottom" showname=".... .... .... .... .... ...1 .... .... = MPLS Bottom Of Label Stack: 1" size="4" pos="18" show="1" value="1" unmaskedvalue="000c91ff"/>
    <field name="mpls.ttl" showname=".... .... .... .... .... .... 1111 1111 = MPLS TTL: 255" size="4" pos="18" show="255" value="FF" unmaskedvalue="000c91ff"/>
  </proto>
  <proto name="fake-field-wrapper">
    <field name="pweth.cw" showname="PW Control Word (ethernet): True" hide="yes" size="0" pos="22" show="1"/>
</proto>
  <proto name="pwethcw" showname="PW Ethernet Control Word" size="4" pos="22">
    <field name="pweth.cw.sequence_number" showname="Sequence Number: 0" size="2" pos="24" show="0" value="0000"/>
  </proto>
  <proto name="eth" showname="Ethernet II, Src: aa:bb:cc:80:07:00 (aa:bb:cc:80:07:00), Dst: aa:bb:cc:80:09:00 (aa:bb:cc:80:09:00)" size="14" pos="26">
    <field name="eth.dst" showname="Destination: aa:bb:cc:80:09:00 (aa:bb:cc:80:09:00)" size="6" pos="26" show="aa:bb:cc:80:09:00" value="aabbcc800900">
      <field name="eth.dst_resolved" showname="Destination (resolved): aa:bb:cc:80:09:00" hide="yes" size="6" pos="26" show="aa:bb:cc:80:09:00" value="aabbcc800900"/>
      <field name="eth.addr" showname="Address: aa:bb:cc:80:09:00 (aa:bb:cc:80:09:00)" size="6" pos="26" show="aa:bb:cc:80:09:00" value="aabbcc800900"/>
      <field name="eth.addr_resolved" showname="Address (resolved): aa:bb:cc:80:09:00" hide="yes" size="6" pos="26" show="aa:bb:cc:80:09:00" value="aabbcc800900"/>
      <field name="eth.lg" showname=".... ..1. .... .... .... .... = LG bit: Locally administered address (this is NOT the factory default)" size="3" pos="26" show="1" value="1" unmaskedvalue="aabbcc"/>
      <field name="eth.ig" showname=".... ...0 .... .... .... .... = IG bit: Individual address (unicast)" size="3" pos="26" show="0" value="0" unmaskedvalue="aabbcc"/>
    </field>
    <field name="eth.src" showname="Source: aa:bb:cc:80:07:00 (aa:bb:cc:80:07:00)" size="6" pos="32" show="aa:bb:cc:80:07:00" value="aabbcc800700">
      <field name="eth.src_resolved" showname="Source (resolved): aa:bb:cc:80:07:00" hide="yes" size="6" pos="32" show="aa:bb:cc:80:07:00" value="aabbcc800700"/>
      <field name="eth.addr" showname="Address: aa:bb:cc:80:07:00 (aa:bb:cc:80:07:00)" size="6" pos="32" show="aa:bb:cc:80:07:00" value="aabbcc800700"/>
      <field name="eth.addr_resolved" showname="Address (resolved): aa:bb:cc:80:07:00" hide="yes" size="6" pos="32" show="aa:bb:cc:80:07:00" value="aabbcc800700"/>
      <field name="eth.lg" showname=".... ..1. .... .... .... .... = LG bit: Locally administered address (this is NOT the factory default)" size="3" pos="32" show="1" value="1" unmaskedvalue="aabbcc"/>
      <field name="eth.ig" showname=".... ...0 .... .... .... .... = IG bit: Individual address (unicast)" size="3" pos="32" show="0" value="0" unmaskedvalue="aabbcc"/>
    </field>
    <field name="eth.type" showname="Type: IPv4 (0x0800)" size="2" pos="38" show="0x00000800" value="0800"/>
  </proto>
  <proto name="ip" showname="Internet Protocol Version 4, Src: 192.168.0.1, Dst: 192.168.0.2" size="20" pos="40">
    <field name="ip.version" showname="0100 .... = Version: 4" size="1" pos="40" show="4" value="4" unmaskedvalue="45"/>
    <field name="ip.hdr_len" showname=".... 0101 = Header Length: 20 bytes (5)" size="1" pos="40" show="20" value="45"/>
    <field name="ip.dsfield" showname="Differentiated Services Field: 0x00 (DSCP: CS0, ECN: Not-ECT)" size="1" pos="41" show="0x00000000" value="00">
      <field name="ip.dsfield.dscp" showname="0000 00.. = Differentiated Services Codepoint: Default (0)" size="1" pos="41" show="0" value="0" unmaskedvalue="00"/>
      <field name="ip.dsfield.ecn" showname=".... ..00 = Explicit Congestion Notification: Not ECN-Capable Transport (0)" size="1" pos="41" show="0" value="0" unmaskedvalue="00"/>
    </field>
    <field name="ip.len" showname="Total Length: 100" size="2" pos="42" show="100" value="0064"/>
    <field name="ip.id" showname="Identification: 0x0004 (4)" size="2" pos="44" show="0x00000004" value="0004"/>
    <field name="ip.flags" showname="Flags: 0x00" size="1" pos="46" show="0x00000000" value="00">
      <field name="ip.flags.rb" showname="0... .... = Reserved bit: Not set" size="1" pos="46" show="0" value="00"/>
      <field name="ip.flags.df" showname=".0.. .... = Don&#x27;t fragment: Not set" size="1" pos="46" show="0" value="00"/>
      <field name="ip.flags.mf" showname="..0. .... = More fragments: Not set" size="1" pos="46" show="0" value="00"/>
    </field>
    <field name="ip.frag_offset" showname="Fragment offset: 0" size="2" pos="46" show="0" value="0000"/>
    <field name="ip.ttl" showname="Time to live: 255" size="1" pos="48" show="255" value="ff"/>
    <field name="ip.proto" showname="Protocol: ICMP (1)" size="1" pos="49" show="1" value="01"/>
    <field name="ip.checksum" showname="Header checksum: 0x3a41 [validation disabled]" size="2" pos="50" show="0x00003a41" value="3a41"/>
    <field name="ip.checksum.status" showname="Header checksum status: Unverified" size="0" pos="50" show="2"/>
    <field name="ip.src" showname="Source: 192.168.0.1" size="4" pos="52" show="192.168.0.1" value="c0a80001"/>
    <field name="ip.addr" showname="Source or Destination Address: 192.168.0.1" hide="yes" size="4" pos="52" show="192.168.0.1" value="c0a80001"/>
    <field name="ip.src_host" showname="Source Host: 192.168.0.1" hide="yes" size="4" pos="52" show="192.168.0.1" value="c0a80001"/>
    <field name="ip.host" showname="Source or Destination Host: 192.168.0.1" hide="yes" size="4" pos="52" show="192.168.0.1" value="c0a80001"/>
    <field name="ip.dst" showname="Destination: 192.168.0.2" size="4" pos="56" show="192.168.0.2" value="c0a80002"/>
    <field name="ip.addr" showname="Source or Destination Address: 192.168.0.2" hide="yes" size="4" pos="56" show="192.168.0.2" value="c0a80002"/>
    <field name="ip.dst_host" showname="Destination Host: 192.168.0.2" hide="yes" size="4" pos="56" show="192.168.0.2" value="c0a80002"/>
    <field name="ip.host" showname="Source or Destination Host: 192.168.0.2" hide="yes" size="4" pos="56" show="192.168.0.2" value="c0a80002"/>
    <field name="" show="Source GeoIP: Unknown" size="4" pos="52" value="c0a80001"/>
    <field name="" show="Destination GeoIP: Unknown" size="4" pos="56" value="c0a80002"/>
  </proto>
  <proto name="icmp" showname="Internet Control Message Protocol" size="80" pos="60">
    <field name="icmp.type" showname="Type: 8 (Echo (ping) request)" size="1" pos="60" show="8" value="08"/>
    <field name="icmp.code" showname="Code: 0" size="1" pos="61" show="0" value="00"/>
    <field name="icmp.checksum" showname="Checksum: 0x19c1 [correct]" size="2" pos="62" show="0x000019c1" value="19c1"/>
    <field name="icmp.checksum.status" showname="Checksum Status: Good" size="0" pos="62" show="1"/>
    <field name="icmp.ident" showname="Identifier (BE): 0 (0x0000)" size="2" pos="64" show="0" value="0000"/>
    <field name="icmp.ident" showname="Identifier (LE): 0 (0x0000)" size="2" pos="64" show="0" value="0000"/>
    <field name="icmp.seq" showname="Sequence number (BE): 4 (0x0004)" size="2" pos="66" show="4" value="0004"/>
    <field name="icmp.seq_le" showname="Sequence number (LE): 1024 (0x0400)" size="2" pos="66" show="1024" value="0004"/>
    <field name="icmp.resp_in" showname="Response frame: 329" size="0" pos="60" show="329"/>
    <field name="data" value="0000000000136472abcdabcdabcdabcdabcdabcdabcdabcdabcdabcdabcdabcdabcdabcdabcdabcdabcdabcdabcdabcdabcdabcdabcdabcdabcdabcdabcdabcdabcdabcdabcdabcd">
      <field name="data.data" showname="Data: 0000000000136472abcdabcdabcdabcdabcdabcdabcdabcd..." size="72" pos="68" show="00:00:00:00:00:13:64:72:ab:cd:ab:cd:ab:cd:ab:cd:ab:cd:ab:cd:ab:cd:ab:cd:ab:cd:ab:cd:ab:cd:ab:cd:ab:cd:ab:cd:ab:cd:ab:cd:ab:cd:ab:cd:ab:cd:ab:cd:ab:cd:ab:cd:ab:cd:ab:cd:ab:cd:ab:cd:ab:cd:ab:cd:ab:cd:ab:cd:ab:cd:ab:cd" value="0000000000136472abcdabcdabcdabcdabcdabcdabcdabcdabcdabcdabcdabcdabcdabcdabcdabcdabcdabcdabcdabcdabcdabcdabcdabcdabcdabcdabcdabcdabcdabcdabcdabcd"/>
      <field name="data.len" showname="Length: 72" size="0" pos="68" show="72"/>
    </field>
  </proto>
</packet>

<packet>
  <proto name="geninfo" pos="0" showname="General information" size="140">
    <field name="num" pos="0" show="329" showname="Number" value="149" size="140"/>
    <field name="len" pos="0" show="140" showname="Frame Length" value="8c" size="140"/>
    <field name="caplen" pos="0" show="140" showname="Captured Length" value="8c" size="140"/>
    <field name="timestamp" pos="0" show="Feb  1, 2020 23:22:12.179885000 India Standard Time" showname="Captured Time" value="1580579532.179885000" size="140"/>
  </proto>
  <proto name="frame" showname="Frame 329: 140 bytes on wire (1120 bits), 140 bytes captured (1120 bits) on interface 0" size="140" pos="0">
    <field name="frame.interface_id" showname="Interface id: 0 (-)" size="0" pos="0" show="0"/>
    <field name="frame.encap_type" showname="Encapsulation type: Ethernet (1)" size="0" pos="0" show="1"/>
    <field name="frame.time" showname="Arrival Time: Feb  1, 2020 23:22:12.179885000 India Standard Time" size="0" pos="0" show="Feb  1, 2020 23:22:12.179885000 India Standard Time"/>
    <field name="frame.offset_shift" showname="Time shift for this packet: 0.000000000 seconds" size="0" pos="0" show="0.000000000"/>
    <field name="frame.time_epoch" showname="Epoch Time: 1580579532.179885000 seconds" size="0" pos="0" show="1580579532.179885000"/>
    <field name="frame.time_delta" showname="Time delta from previous captured frame: 0.006021000 seconds" size="0" pos="0" show="0.006021000"/>
    <field name="frame.time_delta_displayed" showname="Time delta from previous displayed frame: 0.006021000 seconds" size="0" pos="0" show="0.006021000"/>
    <field name="frame.time_relative" showname="Time since reference or first frame: 129.896223000 seconds" size="0" pos="0" show="129.896223000"/>
    <field name="frame.number" showname="Frame Number: 329" size="0" pos="0" show="329"/>
    <field name="frame.len" showname="Frame Length: 140 bytes (1120 bits)" size="0" pos="0" show="140"/>
    <field name="frame.cap_len" showname="Capture Length: 140 bytes (1120 bits)" size="0" pos="0" show="140"/>
    <field name="frame.marked" showname="Frame is marked: False" size="0" pos="0" show="0"/>
    <field name="frame.ignored" showname="Frame is ignored: False" size="0" pos="0" show="0"/>
    <field name="frame.protocols" showname="Protocols in frame: eth:ethertype:mpls:pwethheuristic:pwethcw:eth:ethertype:ip:icmp:data" size="0" pos="0" show="eth:ethertype:mpls:pwethheuristic:pwethcw:eth:ethertype:ip:icmp:data"/>
    <field name="frame.coloring_rule.name" showname="Coloring Rule Name: ICMP" size="0" pos="0" show="ICMP"/>
    <field name="frame.coloring_rule.string" showname="Coloring Rule String: icmp || icmpv6" size="0" pos="0" show="icmp || icmpv6"/>
  </proto>
  <proto name="eth" showname="Ethernet II, Src: aa:bb:cc:00:02:20 (aa:bb:cc:00:02:20), Dst: aa:bb:cc:00:01:20 (aa:bb:cc:00:01:20)" size="14" pos="0">
    <field name="eth.dst" showname="Destination: aa:bb:cc:00:01:20 (aa:bb:cc:00:01:20)" size="6" pos="0" show="aa:bb:cc:00:01:20" value="aabbcc000120">
      <field name="eth.dst_resolved" showname="Destination (resolved): aa:bb:cc:00:01:20" hide="yes" size="6" pos="0" show="aa:bb:cc:00:01:20" value="aabbcc000120"/>
      <field name="eth.addr" showname="Address: aa:bb:cc:00:01:20 (aa:bb:cc:00:01:20)" size="6" pos="0" show="aa:bb:cc:00:01:20" value="aabbcc000120"/>
      <field name="eth.addr_resolved" showname="Address (resolved): aa:bb:cc:00:01:20" hide="yes" size="6" pos="0" show="aa:bb:cc:00:01:20" value="aabbcc000120"/>
      <field name="eth.lg" showname=".... ..1. .... .... .... .... = LG bit: Locally administered address (this is NOT the factory default)" size="3" pos="0" show="1" value="1" unmaskedvalue="aabbcc"/>
      <field name="eth.ig" showname=".... ...0 .... .... .... .... = IG bit: Individual address (unicast)" size="3" pos="0" show="0" value="0" unmaskedvalue="aabbcc"/>
    </field>
    <field name="eth.src" showname="Source: aa:bb:cc:00:02:20 (aa:bb:cc:00:02:20)" size="6" pos="6" show="aa:bb:cc:00:02:20" value="aabbcc000220">
      <field name="eth.src_resolved" showname="Source (resolved): aa:bb:cc:00:02:20" hide="yes" size="6" pos="6" show="aa:bb:cc:00:02:20" value="aabbcc000220"/>
      <field name="eth.addr" showname="Address: aa:bb:cc:00:02:20 (aa:bb:cc:00:02:20)" size="6" pos="6" show="aa:bb:cc:00:02:20" value="aabbcc000220"/>
      <field name="eth.addr_resolved" showname="Address (resolved): aa:bb:cc:00:02:20" hide="yes" size="6" pos="6" show="aa:bb:cc:00:02:20" value="aabbcc000220"/>
      <field name="eth.lg" showname=".... ..1. .... .... .... .... = LG bit: Locally administered address (this is NOT the factory default)" size="3" pos="6" show="1" value="1" unmaskedvalue="aabbcc"/>
      <field name="eth.ig" showname=".... ...0 .... .... .... .... = IG bit: Individual address (unicast)" size="3" pos="6" show="0" value="0" unmaskedvalue="aabbcc"/>
    </field>
    <field name="eth.type" showname="Type: MPLS label switched packet (0x8847)" size="2" pos="12" show="0x00008847" value="8847"/>
  </proto>
  <proto name="mpls" showname="MultiProtocol Label Switching Header, Label: 307, Exp: 0, S: 0, TTL: 254" size="4" pos="14">
    <field name="mpls.label" showname="0000 0000 0001 0011 0011 .... .... .... = MPLS Label: 307" size="4" pos="14" show="307" value="133" unmaskedvalue="001330fe"/>
    <field name="mpls.exp" showname=".... .... .... .... .... 000. .... .... = MPLS Experimental Bits: 0" size="4" pos="14" show="0" value="0" unmaskedvalue="001330fe"/>
    <field name="mpls.bottom" showname=".... .... .... .... .... ...0 .... .... = MPLS Bottom Of Label Stack: 0" size="4" pos="14" show="0" value="0" unmaskedvalue="001330fe"/>
    <field name="mpls.ttl" showname=".... .... .... .... .... .... 1111 1110 = MPLS TTL: 254" size="4" pos="14" show="254" value="FE" unmaskedvalue="001330fe"/>
  </proto>
  <proto name="mpls" showname="MultiProtocol Label Switching Header, Label: 100, Exp: 0, S: 1, TTL: 255" size="4" pos="18">
    <field name="mpls.label" showname="0000 0000 0000 0110 0100 .... .... .... = MPLS Label: 100" size="4" pos="18" show="100" value="64" unmaskedvalue="000641ff"/>
    <field name="mpls.exp" showname=".... .... .... .... .... 000. .... .... = MPLS Experimental Bits: 0" size="4" pos="18" show="0" value="0" unmaskedvalue="000641ff"/>
    <field name="mpls.bottom" showname=".... .... .... .... .... ...1 .... .... = MPLS Bottom Of Label Stack: 1" size="4" pos="18" show="1" value="1" unmaskedvalue="000641ff"/>
    <field name="mpls.ttl" showname=".... .... .... .... .... .... 1111 1111 = MPLS TTL: 255" size="4" pos="18" show="255" value="FF" unmaskedvalue="000641ff"/>
  </proto>
  <proto name="fake-field-wrapper">
    <field name="pweth.cw" showname="PW Control Word (ethernet): True" hide="yes" size="0" pos="22" show="1"/>
</proto>
  <proto name="pwethcw" showname="PW Ethernet Control Word" size="4" pos="22">
    <field name="pweth.cw.sequence_number" showname="Sequence Number: 0" size="2" pos="24" show="0" value="0000"/>
  </proto>
  <proto name="eth" showname="Ethernet II, Src: aa:bb:cc:80:09:00 (aa:bb:cc:80:09:00), Dst: aa:bb:cc:80:07:00 (aa:bb:cc:80:07:00)" size="14" pos="26">
    <field name="eth.dst" showname="Destination: aa:bb:cc:80:07:00 (aa:bb:cc:80:07:00)" size="6" pos="26" show="aa:bb:cc:80:07:00" value="aabbcc800700">
      <field name="eth.dst_resolved" showname="Destination (resolved): aa:bb:cc:80:07:00" hide="yes" size="6" pos="26" show="aa:bb:cc:80:07:00" value="aabbcc800700"/>
      <field name="eth.addr" showname="Address: aa:bb:cc:80:07:00 (aa:bb:cc:80:07:00)" size="6" pos="26" show="aa:bb:cc:80:07:00" value="aabbcc800700"/>
      <field name="eth.addr_resolved" showname="Address (resolved): aa:bb:cc:80:07:00" hide="yes" size="6" pos="26" show="aa:bb:cc:80:07:00" value="aabbcc800700"/>
      <field name="eth.lg" showname=".... ..1. .... .... .... .... = LG bit: Locally administered address (this is NOT the factory default)" size="3" pos="26" show="1" value="1" unmaskedvalue="aabbcc"/>
      <field name="eth.ig" showname=".... ...0 .... .... .... .... = IG bit: Individual address (unicast)" size="3" pos="26" show="0" value="0" unmaskedvalue="aabbcc"/>
    </field>
    <field name="eth.src" showname="Source: aa:bb:cc:80:09:00 (aa:bb:cc:80:09:00)" size="6" pos="32" show="aa:bb:cc:80:09:00" value="aabbcc800900">
      <field name="eth.src_resolved" showname="Source (resolved): aa:bb:cc:80:09:00" hide="yes" size="6" pos="32" show="aa:bb:cc:80:09:00" value="aabbcc800900"/>
      <field name="eth.addr" showname="Address: aa:bb:cc:80:09:00 (aa:bb:cc:80:09:00)" size="6" pos="32" show="aa:bb:cc:80:09:00" value="aabbcc800900"/>
      <field name="eth.addr_resolved" showname="Address (resolved): aa:bb:cc:80:09:00" hide="yes" size="6" pos="32" show="aa:bb:cc:80:09:00" value="aabbcc800900"/>
      <field name="eth.lg" showname=".... ..1. .... .... .... .... = LG bit: Locally administered address (this is NOT the factory default)" size="3" pos="32" show="1" value="1" unmaskedvalue="aabbcc"/>
      <field name="eth.ig" showname=".... ...0 .... .... .... .... = IG bit: Individual address (unicast)" size="3" pos="32" show="0" value="0" unmaskedvalue="aabbcc"/>
    </field>
    <field name="eth.type" showname="Type: IPv4 (0x0800)" size="2" pos="38" show="0x00000800" value="0800"/>
  </proto>
  <proto name="ip" showname="Internet Protocol Version 4, Src: 192.168.0.2, Dst: 192.168.0.1" size="20" pos="40">
    <field name="ip.version" showname="0100 .... = Version: 4" size="1" pos="40" show="4" value="4" unmaskedvalue="45"/>
    <field name="ip.hdr_len" showname=".... 0101 = Header Length: 20 bytes (5)" size="1" pos="40" show="20" value="45"/>
    <field name="ip.dsfield" showname="Differentiated Services Field: 0x00 (DSCP: CS0, ECN: Not-ECT)" size="1" pos="41" show="0x00000000" value="00">
      <field name="ip.dsfield.dscp" showname="0000 00.. = Differentiated Services Codepoint: Default (0)" size="1" pos="41" show="0" value="0" unmaskedvalue="00"/>
      <field name="ip.dsfield.ecn" showname=".... ..00 = Explicit Congestion Notification: Not ECN-Capable Transport (0)" size="1" pos="41" show="0" value="0" unmaskedvalue="00"/>
    </field>
    <field name="ip.len" showname="Total Length: 100" size="2" pos="42" show="100" value="0064"/>
    <field name="ip.id" showname="Identification: 0x0004 (4)" size="2" pos="44" show="0x00000004" value="0004"/>
    <field name="ip.flags" showname="Flags: 0x00" size="1" pos="46" show="0x00000000" value="00">
      <field name="ip.flags.rb" showname="0... .... = Reserved bit: Not set" size="1" pos="46" show="0" value="00"/>
      <field name="ip.flags.df" showname=".0.. .... = Don&#x27;t fragment: Not set" size="1" pos="46" show="0" value="00"/>
      <field name="ip.flags.mf" showname="..0. .... = More fragments: Not set" size="1" pos="46" show="0" value="00"/>
    </field>
    <field name="ip.frag_offset" showname="Fragment offset: 0" size="2" pos="46" show="0" value="0000"/>
    <field name="ip.ttl" showname="Time to live: 255" size="1" pos="48" show="255" value="ff"/>
    <field name="ip.proto" showname="Protocol: ICMP (1)" size="1" pos="49" show="1" value="01"/>
    <field name="ip.checksum" showname="Header checksum: 0x3a41 [validation disabled]" size="2" pos="50" show="0x00003a41" value="3a41"/>
    <field name="ip.checksum.status" showname="Header checksum status: Unverified" size="0" pos="50" show="2"/>
    <field name="ip.src" showname="Source: 192.168.0.2" size="4" pos="52" show="192.168.0.2" value="c0a80002"/>
    <field name="ip.addr" showname="Source or Destination Address: 192.168.0.2" hide="yes" size="4" pos="52" show="192.168.0.2" value="c0a80002"/>
    <field name="ip.src_host" showname="Source Host: 192.168.0.2" hide="yes" size="4" pos="52" show="192.168.0.2" value="c0a80002"/>
    <field name="ip.host" showname="Source or Destination Host: 192.168.0.2" hide="yes" size="4" pos="52" show="192.168.0.2" value="c0a80002"/>
    <field name="ip.dst" showname="Destination: 192.168.0.1" size="4" pos="56" show="192.168.0.1" value="c0a80001"/>
    <field name="ip.addr" showname="Source or Destination Address: 192.168.0.1" hide="yes" size="4" pos="56" show="192.168.0.1" value="c0a80001"/>
    <field name="ip.dst_host" showname="Destination Host: 192.168.0.1" hide="yes" size="4" pos="56" show="192.168.0.1" value="c0a80001"/>
    <field name="ip.host" showname="Source or Destination Host: 192.168.0.1" hide="yes" size="4" pos="56" show="192.168.0.1" value="c0a80001"/>
    <field name="" show="Source GeoIP: Unknown" size="4" pos="52" value="c0a80002"/>
    <field name="" show="Destination GeoIP: Unknown" size="4" pos="56" value="c0a80001"/>
  </proto>
  <proto name="icmp" showname="Internet Control Message Protocol" size="80" pos="60">
    <field name="icmp.type" showname="Type: 0 (Echo (ping) reply)" size="1" pos="60" show="0" value="00"/>
    <field name="icmp.code" showname="Code: 0" size="1" pos="61" show="0" value="00"/>
    <field name="icmp.checksum" showname="Checksum: 0x21c1 [correct]" size="2" pos="62" show="0x000021c1" value="21c1"/>
    <field name="icmp.checksum.status" showname="Checksum Status: Good" size="0" pos="62" show="1"/>
    <field name="icmp.ident" showname="Identifier (BE): 0 (0x0000)" size="2" pos="64" show="0" value="0000"/>
    <field name="icmp.ident" showname="Identifier (LE): 0 (0x0000)" size="2" pos="64" show="0" value="0000"/>
    <field name="icmp.seq" showname="Sequence number (BE): 4 (0x0004)" size="2" pos="66" show="4" value="0004"/>
    <field name="icmp.seq_le" showname="Sequence number (LE): 1024 (0x0400)" size="2" pos="66" show="1024" value="0004"/>
    <field name="icmp.resp_to" showname="Request frame: 328" size="0" pos="60" show="328"/>
    <field name="icmp.resptime" showname="Response time: 6.021 ms" size="0" pos="60" show="6.021"/>
    <field name="data" value="0000000000136472abcdabcdabcdabcdabcdabcdabcdabcdabcdabcdabcdabcdabcdabcdabcdabcdabcdabcdabcdabcdabcdabcdabcdabcdabcdabcdabcdabcdabcdabcdabcdabcd">
      <field name="data.data" showname="Data: 0000000000136472abcdabcdabcdabcdabcdabcdabcdabcd..." size="72" pos="68" show="00:00:00:00:00:13:64:72:ab:cd:ab:cd:ab:cd:ab:cd:ab:cd:ab:cd:ab:cd:ab:cd:ab:cd:ab:cd:ab:cd:ab:cd:ab:cd:ab:cd:ab:cd:ab:cd:ab:cd:ab:cd:ab:cd:ab:cd:ab:cd:ab:cd:ab:cd:ab:cd:ab:cd:ab:cd:ab:cd:ab:cd:ab:cd:ab:cd:ab:cd:ab:cd" value="0000000000136472abcdabcdabcdabcdabcdabcdabcdabcdabcdabcdabcdabcdabcdabcdabcdabcdabcdabcdabcdabcdabcdabcdabcdabcdabcdabcdabcdabcdabcdabcdabcdabcd"/>
      <field name="data.len" showname="Length: 72" size="0" pos="68" show="72"/>
    </field>
  </proto>
</packet>

</pdml>
